
libc-bench:     file format elf64-littleriscv


Disassembly of section .text:

0000000000010120 <exit>:
   10120:	fe010113          	addi	sp,sp,-32
   10124:	00a13423          	sd	a0,8(sp)
   10128:	00113c23          	sd	ra,24(sp)
   1012c:	3ed010ef          	jal	ra,11d18 <__funcs_on_exit>
   10130:	3ed010ef          	jal	ra,11d1c <__libc_exit_fini>
   10134:	2e9120ef          	jal	ra,22c1c <__stdio_exit>
   10138:	00813503          	ld	a0,8(sp)
   1013c:	6f90d0ef          	jal	ra,1e034 <_Exit>

0000000000010140 <main>:
   10140:	000115b7          	lui	a1,0x11
   10144:	00026537          	lui	a0,0x26
   10148:	ff010113          	addi	sp,sp,-16
   1014c:	00000613          	li	a2,0
   10150:	8d858593          	addi	a1,a1,-1832 # 108d8 <b_malloc_sparse>
   10154:	28850513          	addi	a0,a0,648 # 26288 <__clzdi2+0x110>
   10158:	00113423          	sd	ra,8(sp)
   1015c:	00813023          	sd	s0,0(sp)
   10160:	5d4000ef          	jal	ra,10734 <run_bench>
   10164:	000115b7          	lui	a1,0x11
   10168:	00026537          	lui	a0,0x26
   1016c:	00000613          	li	a2,0
   10170:	9a858593          	addi	a1,a1,-1624 # 109a8 <b_malloc_bubble>
   10174:	2a050513          	addi	a0,a0,672 # 262a0 <__clzdi2+0x128>
   10178:	5bc000ef          	jal	ra,10734 <run_bench>
   1017c:	000115b7          	lui	a1,0x11
   10180:	00026537          	lui	a0,0x26
   10184:	00000613          	li	a2,0
   10188:	a5c58593          	addi	a1,a1,-1444 # 10a5c <b_malloc_tiny1>
   1018c:	2b850513          	addi	a0,a0,696 # 262b8 <__clzdi2+0x140>
   10190:	5a4000ef          	jal	ra,10734 <run_bench>
   10194:	000115b7          	lui	a1,0x11
   10198:	00026537          	lui	a0,0x26
   1019c:	00000613          	li	a2,0
   101a0:	b1058593          	addi	a1,a1,-1264 # 10b10 <b_malloc_tiny2>
   101a4:	2d050513          	addi	a0,a0,720 # 262d0 <__clzdi2+0x158>
   101a8:	58c000ef          	jal	ra,10734 <run_bench>
   101ac:	000115b7          	lui	a1,0x11
   101b0:	00026537          	lui	a0,0x26
   101b4:	00000613          	li	a2,0
   101b8:	be858593          	addi	a1,a1,-1048 # 10be8 <b_malloc_big1>
   101bc:	2e850513          	addi	a0,a0,744 # 262e8 <__clzdi2+0x170>
   101c0:	574000ef          	jal	ra,10734 <run_bench>
   101c4:	000115b7          	lui	a1,0x11
   101c8:	00026537          	lui	a0,0x26
   101cc:	00000613          	li	a2,0
   101d0:	c9858593          	addi	a1,a1,-872 # 10c98 <b_malloc_big2>
   101d4:	30050513          	addi	a0,a0,768 # 26300 <__clzdi2+0x188>
   101d8:	55c000ef          	jal	ra,10734 <run_bench>
   101dc:	000115b7          	lui	a1,0x11
   101e0:	00026537          	lui	a0,0x26
   101e4:	00000613          	li	a2,0
   101e8:	d7058593          	addi	a1,a1,-656 # 10d70 <b_malloc_thread_stress>
   101ec:	31850513          	addi	a0,a0,792 # 26318 <__clzdi2+0x1a0>
   101f0:	544000ef          	jal	ra,10734 <run_bench>
   101f4:	000115b7          	lui	a1,0x11
   101f8:	00026537          	lui	a0,0x26
   101fc:	00000613          	li	a2,0
   10200:	e5c58593          	addi	a1,a1,-420 # 10e5c <b_malloc_thread_local>
   10204:	33850513          	addi	a0,a0,824 # 26338 <__clzdi2+0x1c0>
   10208:	52c000ef          	jal	ra,10734 <run_bench>
   1020c:	00011437          	lui	s0,0x11
   10210:	00026637          	lui	a2,0x26
   10214:	00026537          	lui	a0,0x26
   10218:	3c040593          	addi	a1,s0,960 # 113c0 <b_string_strstr>
   1021c:	35860613          	addi	a2,a2,856 # 26358 <__clzdi2+0x1e0>
   10220:	37850513          	addi	a0,a0,888 # 26378 <__clzdi2+0x200>
   10224:	510000ef          	jal	ra,10734 <run_bench>
   10228:	00026637          	lui	a2,0x26
   1022c:	00026537          	lui	a0,0x26
   10230:	3c040593          	addi	a1,s0,960
   10234:	3a860613          	addi	a2,a2,936 # 263a8 <__clzdi2+0x230>
   10238:	3c850513          	addi	a0,a0,968 # 263c8 <__clzdi2+0x250>
   1023c:	4f8000ef          	jal	ra,10734 <run_bench>
   10240:	00026637          	lui	a2,0x26
   10244:	00026537          	lui	a0,0x26
   10248:	3c040593          	addi	a1,s0,960
   1024c:	3f860613          	addi	a2,a2,1016 # 263f8 <__clzdi2+0x280>
   10250:	41850513          	addi	a0,a0,1048 # 26418 <__clzdi2+0x2a0>
   10254:	4e0000ef          	jal	ra,10734 <run_bench>
   10258:	00026637          	lui	a2,0x26
   1025c:	00026537          	lui	a0,0x26
   10260:	3c040593          	addi	a1,s0,960
   10264:	44860613          	addi	a2,a2,1096 # 26448 <__clzdi2+0x2d0>
   10268:	46850513          	addi	a0,a0,1128 # 26468 <__clzdi2+0x2f0>
   1026c:	4c8000ef          	jal	ra,10734 <run_bench>
   10270:	00026637          	lui	a2,0x26
   10274:	00026537          	lui	a0,0x26
   10278:	3c040593          	addi	a1,s0,960
   1027c:	49860613          	addi	a2,a2,1176 # 26498 <__clzdi2+0x320>
   10280:	4c050513          	addi	a0,a0,1216 # 264c0 <__clzdi2+0x348>
   10284:	4b0000ef          	jal	ra,10734 <run_bench>
   10288:	000115b7          	lui	a1,0x11
   1028c:	00026537          	lui	a0,0x26
   10290:	00000613          	li	a2,0
   10294:	4b058593          	addi	a1,a1,1200 # 114b0 <b_string_memset>
   10298:	4f850513          	addi	a0,a0,1272 # 264f8 <__clzdi2+0x380>
   1029c:	498000ef          	jal	ra,10734 <run_bench>
   102a0:	000115b7          	lui	a1,0x11
   102a4:	00026537          	lui	a0,0x26
   102a8:	00000613          	li	a2,0
   102ac:	52458593          	addi	a1,a1,1316 # 11524 <b_string_strchr>
   102b0:	51050513          	addi	a0,a0,1296 # 26510 <__clzdi2+0x398>
   102b4:	480000ef          	jal	ra,10734 <run_bench>
   102b8:	000115b7          	lui	a1,0x11
   102bc:	00026537          	lui	a0,0x26
   102c0:	00000613          	li	a2,0
   102c4:	5c458593          	addi	a1,a1,1476 # 115c4 <b_string_strlen>
   102c8:	52850513          	addi	a0,a0,1320 # 26528 <__clzdi2+0x3b0>
   102cc:	468000ef          	jal	ra,10734 <run_bench>
   102d0:	000115b7          	lui	a1,0x11
   102d4:	00026537          	lui	a0,0x26
   102d8:	00000613          	li	a2,0
   102dc:	fc858593          	addi	a1,a1,-56 # 10fc8 <b_pthread_createjoin_serial1>
   102e0:	54050513          	addi	a0,a0,1344 # 26540 <__clzdi2+0x3c8>
   102e4:	450000ef          	jal	ra,10734 <run_bench>
   102e8:	000115b7          	lui	a1,0x11
   102ec:	00026537          	lui	a0,0x26
   102f0:	00000613          	li	a2,0
   102f4:	02858593          	addi	a1,a1,40 # 11028 <b_pthread_createjoin_serial2>
   102f8:	56850513          	addi	a0,a0,1384 # 26568 <__clzdi2+0x3f0>
   102fc:	438000ef          	jal	ra,10734 <run_bench>
   10300:	000115b7          	lui	a1,0x11
   10304:	00026537          	lui	a0,0x26
   10308:	00000613          	li	a2,0
   1030c:	0b458593          	addi	a1,a1,180 # 110b4 <b_pthread_create_serial1>
   10310:	59050513          	addi	a0,a0,1424 # 26590 <__clzdi2+0x418>
   10314:	420000ef          	jal	ra,10734 <run_bench>
   10318:	000115b7          	lui	a1,0x11
   1031c:	00026537          	lui	a0,0x26
   10320:	00000613          	li	a2,0
   10324:	11858593          	addi	a1,a1,280 # 11118 <b_pthread_uselesslock>
   10328:	5b050513          	addi	a0,a0,1456 # 265b0 <__clzdi2+0x438>
   1032c:	408000ef          	jal	ra,10734 <run_bench>
   10330:	000115b7          	lui	a1,0x11
   10334:	00026537          	lui	a0,0x26
   10338:	00000613          	li	a2,0
   1033c:	65858593          	addi	a1,a1,1624 # 11658 <b_utf8_bigbuf>
   10340:	5d050513          	addi	a0,a0,1488 # 265d0 <__clzdi2+0x458>
   10344:	3f0000ef          	jal	ra,10734 <run_bench>
   10348:	000125b7          	lui	a1,0x12
   1034c:	00026537          	lui	a0,0x26
   10350:	00000613          	li	a2,0
   10354:	86858593          	addi	a1,a1,-1944 # 11868 <b_utf8_onebyone>
   10358:	5e850513          	addi	a0,a0,1512 # 265e8 <__clzdi2+0x470>
   1035c:	3d8000ef          	jal	ra,10734 <run_bench>
   10360:	000115b7          	lui	a1,0x11
   10364:	00026537          	lui	a0,0x26
   10368:	00000613          	li	a2,0
   1036c:	2b058593          	addi	a1,a1,688 # 112b0 <b_stdio_putcgetc>
   10370:	60050513          	addi	a0,a0,1536 # 26600 <__clzdi2+0x488>
   10374:	3c0000ef          	jal	ra,10734 <run_bench>
   10378:	000115b7          	lui	a1,0x11
   1037c:	00026537          	lui	a0,0x26
   10380:	00000613          	li	a2,0
   10384:	33858593          	addi	a1,a1,824 # 11338 <b_stdio_putcgetc_unlocked>
   10388:	61850513          	addi	a0,a0,1560 # 26618 <__clzdi2+0x4a0>
   1038c:	3a8000ef          	jal	ra,10734 <run_bench>
   10390:	00026437          	lui	s0,0x26
   10394:	000115b7          	lui	a1,0x11
   10398:	00026537          	lui	a0,0x26
   1039c:	63840613          	addi	a2,s0,1592 # 26638 <__clzdi2+0x4c0>
   103a0:	16c58593          	addi	a1,a1,364 # 1116c <b_regex_compile>
   103a4:	64850513          	addi	a0,a0,1608 # 26648 <__clzdi2+0x4d0>
   103a8:	38c000ef          	jal	ra,10734 <run_bench>
   103ac:	63840613          	addi	a2,s0,1592
   103b0:	00026537          	lui	a0,0x26
   103b4:	00011437          	lui	s0,0x11
   103b8:	1c840593          	addi	a1,s0,456 # 111c8 <b_regex_search>
   103bc:	66850513          	addi	a0,a0,1640 # 26668 <__clzdi2+0x4f0>
   103c0:	374000ef          	jal	ra,10734 <run_bench>
   103c4:	00026637          	lui	a2,0x26
   103c8:	00026537          	lui	a0,0x26
   103cc:	1c840593          	addi	a1,s0,456
   103d0:	68860613          	addi	a2,a2,1672 # 26688 <__clzdi2+0x510>
   103d4:	69050513          	addi	a0,a0,1680 # 26690 <__clzdi2+0x518>
   103d8:	35c000ef          	jal	ra,10734 <run_bench>
   103dc:	00813083          	ld	ra,8(sp)
   103e0:	00013403          	ld	s0,0(sp)
   103e4:	00000513          	li	a0,0
   103e8:	01010113          	addi	sp,sp,16
   103ec:	00008067          	ret

00000000000103f0 <_start>:
   103f0:	0001c197          	auipc	gp,0x1c
   103f4:	41018193          	addi	gp,gp,1040 # 2c800 <__global_pointer$>
   103f8:	00010513          	mv	a0,sp
   103fc:	00000593          	li	a1,0
   10400:	ff017113          	andi	sp,sp,-16
   10404:	0040006f          	j	10408 <_start_c>

0000000000010408 <_start_c>:
   10408:	00052583          	lw	a1,0(a0)
   1040c:	00012737          	lui	a4,0x12
   10410:	000126b7          	lui	a3,0x12
   10414:	00850613          	addi	a2,a0,8
   10418:	00010537          	lui	a0,0x10
   1041c:	00000793          	li	a5,0
   10420:	d1870713          	addi	a4,a4,-744 # 11d18 <__funcs_on_exit>
   10424:	a6c68693          	addi	a3,a3,-1428 # 11a6c <_init>
   10428:	14050513          	addi	a0,a0,320 # 10140 <main>
   1042c:	0950106f          	j	11cc0 <__libc_start_main>

0000000000010430 <deregister_tm_clones>:
   10430:	8e818713          	addi	a4,gp,-1816 # 2c0e8 <__TMC_END__>
   10434:	8e818793          	addi	a5,gp,-1816 # 2c0e8 <__TMC_END__>
   10438:	00e78a63          	beq	a5,a4,1044c <deregister_tm_clones+0x1c>
   1043c:	00000793          	li	a5,0
   10440:	00078663          	beqz	a5,1044c <deregister_tm_clones+0x1c>
   10444:	8e818513          	addi	a0,gp,-1816 # 2c0e8 <__TMC_END__>
   10448:	00078067          	jr	a5
   1044c:	00008067          	ret

0000000000010450 <register_tm_clones>:
   10450:	8e818593          	addi	a1,gp,-1816 # 2c0e8 <__TMC_END__>
   10454:	8e818793          	addi	a5,gp,-1816 # 2c0e8 <__TMC_END__>
   10458:	40f585b3          	sub	a1,a1,a5
   1045c:	4035d593          	srai	a1,a1,0x3
   10460:	00200793          	li	a5,2
   10464:	02f5c5b3          	div	a1,a1,a5
   10468:	00058a63          	beqz	a1,1047c <register_tm_clones+0x2c>
   1046c:	00000793          	li	a5,0
   10470:	00078663          	beqz	a5,1047c <register_tm_clones+0x2c>
   10474:	8e818513          	addi	a0,gp,-1816 # 2c0e8 <__TMC_END__>
   10478:	00078067          	jr	a5
   1047c:	00008067          	ret

0000000000010480 <__do_global_dtors_aux>:
   10480:	a881c703          	lbu	a4,-1400(gp) # 2c288 <completed.1>
   10484:	04071463          	bnez	a4,104cc <__do_global_dtors_aux+0x4c>
   10488:	ff010113          	addi	sp,sp,-16
   1048c:	00813023          	sd	s0,0(sp)
   10490:	00113423          	sd	ra,8(sp)
   10494:	00078413          	mv	s0,a5
   10498:	f99ff0ef          	jal	ra,10430 <deregister_tm_clones>
   1049c:	00000793          	li	a5,0
   104a0:	00078a63          	beqz	a5,104b4 <__do_global_dtors_aux+0x34>
   104a4:	0002b537          	lui	a0,0x2b
   104a8:	ec850513          	addi	a0,a0,-312 # 2aec8 <__FRAME_END__>
   104ac:	00000097          	auipc	ra,0x0
   104b0:	000000e7          	jalr	zero # 0 <exit-0x10120>
   104b4:	00100793          	li	a5,1
   104b8:	00813083          	ld	ra,8(sp)
   104bc:	a8f18423          	sb	a5,-1400(gp) # 2c288 <completed.1>
   104c0:	00013403          	ld	s0,0(sp)
   104c4:	01010113          	addi	sp,sp,16
   104c8:	00008067          	ret
   104cc:	00008067          	ret

00000000000104d0 <frame_dummy>:
   104d0:	00000793          	li	a5,0
   104d4:	02078463          	beqz	a5,104fc <frame_dummy+0x2c>
   104d8:	0002b537          	lui	a0,0x2b
   104dc:	ff010113          	addi	sp,sp,-16
   104e0:	a9018593          	addi	a1,gp,-1392 # 2c290 <object.0>
   104e4:	ec850513          	addi	a0,a0,-312 # 2aec8 <__FRAME_END__>
   104e8:	00113423          	sd	ra,8(sp)
   104ec:	00000097          	auipc	ra,0x0
   104f0:	000000e7          	jalr	zero # 0 <exit-0x10120>
   104f4:	00813083          	ld	ra,8(sp)
   104f8:	01010113          	addi	sp,sp,16
   104fc:	f55ff06f          	j	10450 <register_tm_clones>

0000000000010500 <print_stats>:
   10500:	e6010113          	addi	sp,sp,-416
   10504:	00a13023          	sd	a0,0(sp)
   10508:	00b13423          	sd	a1,8(sp)
   1050c:	00000513          	li	a0,0
   10510:	02010593          	addi	a1,sp,32
   10514:	18113c23          	sd	ra,408(sp)
   10518:	18813823          	sd	s0,400(sp)
   1051c:	18913423          	sd	s1,392(sp)
   10520:	19213023          	sd	s2,384(sp)
   10524:	17313c23          	sd	s3,376(sp)
   10528:	17413823          	sd	s4,368(sp)
   1052c:	17513423          	sd	s5,360(sp)
   10530:	17613023          	sd	s6,352(sp)
   10534:	15713c23          	sd	s7,344(sp)
   10538:	15813823          	sd	s8,336(sp)
   1053c:	15913423          	sd	s9,328(sp)
   10540:	15a13023          	sd	s10,320(sp)
   10544:	13b13c23          	sd	s11,312(sp)
   10548:	2300d0ef          	jal	ra,1d778 <__clock_gettime>
   1054c:	02013703          	ld	a4,32(sp)
   10550:	00013783          	ld	a5,0(sp)
   10554:	00813683          	ld	a3,8(sp)
   10558:	40f70733          	sub	a4,a4,a5
   1055c:	02813783          	ld	a5,40(sp)
   10560:	02e13023          	sd	a4,32(sp)
   10564:	40d787b3          	sub	a5,a5,a3
   10568:	0807c663          	bltz	a5,105f4 <print_stats+0xf4>
   1056c:	02f13423          	sd	a5,40(sp)
   10570:	000265b7          	lui	a1,0x26
   10574:	00026537          	lui	a0,0x26
   10578:	1c058593          	addi	a1,a1,448 # 261c0 <__clzdi2+0x48>
   1057c:	1c850513          	addi	a0,a0,456 # 261c8 <__clzdi2+0x50>
   10580:	318080ef          	jal	ra,18898 <fopen>
   10584:	00050493          	mv	s1,a0
   10588:	00000913          	li	s2,0
   1058c:	00000993          	li	s3,0
   10590:	00000a13          	li	s4,0
   10594:	18051063          	bnez	a0,10714 <print_stats+0x214>
   10598:	02813603          	ld	a2,40(sp)
   1059c:	02013583          	ld	a1,32(sp)
   105a0:	00026537          	lui	a0,0x26
   105a4:	00090793          	mv	a5,s2
   105a8:	00098713          	mv	a4,s3
   105ac:	000a0693          	mv	a3,s4
   105b0:	25050513          	addi	a0,a0,592 # 26250 <__clzdi2+0xd8>
   105b4:	670080ef          	jal	ra,18c24 <printf>
   105b8:	19813083          	ld	ra,408(sp)
   105bc:	19013403          	ld	s0,400(sp)
   105c0:	18813483          	ld	s1,392(sp)
   105c4:	18013903          	ld	s2,384(sp)
   105c8:	17813983          	ld	s3,376(sp)
   105cc:	17013a03          	ld	s4,368(sp)
   105d0:	16813a83          	ld	s5,360(sp)
   105d4:	16013b03          	ld	s6,352(sp)
   105d8:	15813b83          	ld	s7,344(sp)
   105dc:	15013c03          	ld	s8,336(sp)
   105e0:	14813c83          	ld	s9,328(sp)
   105e4:	14013d03          	ld	s10,320(sp)
   105e8:	13813d83          	ld	s11,312(sp)
   105ec:	1a010113          	addi	sp,sp,416
   105f0:	00008067          	ret
   105f4:	3b9ad6b7          	lui	a3,0x3b9ad
   105f8:	a0068693          	addi	a3,a3,-1536 # 3b9aca00 <__BSS_END__+0x3b97fa90>
   105fc:	00d787b3          	add	a5,a5,a3
   10600:	fff70713          	addi	a4,a4,-1
   10604:	02f13423          	sd	a5,40(sp)
   10608:	02e13023          	sd	a4,32(sp)
   1060c:	f65ff06f          	j	10570 <print_stats+0x70>
   10610:	01410693          	addi	a3,sp,20
   10614:	01010613          	addi	a2,sp,16
   10618:	1e0a8593          	addi	a1,s5,480
   1061c:	03010513          	addi	a0,sp,48
   10620:	0a9080ef          	jal	ra,18ec8 <sscanf>
   10624:	00200793          	li	a5,2
   10628:	06f51863          	bne	a0,a5,10698 <print_stats+0x198>
   1062c:	01012403          	lw	s0,16(sp)
   10630:	01412503          	lw	a0,20(sp)
   10634:	00a46433          	or	s0,s0,a0
   10638:	0004041b          	sext.w	s0,s0
   1063c:	0c041463          	bnez	s0,10704 <print_stats+0x204>
   10640:	208c8593          	addi	a1,s9,520
   10644:	03010513          	addi	a0,sp,48
   10648:	1590b0ef          	jal	ra,1bfa0 <strstr>
   1064c:	04051863          	bnez	a0,1069c <print_stats+0x19c>
   10650:	210d0593          	addi	a1,s10,528
   10654:	03010513          	addi	a0,sp,48
   10658:	1490b0ef          	jal	ra,1bfa0 <strstr>
   1065c:	00051a63          	bnez	a0,10670 <print_stats+0x170>
   10660:	05b00593          	li	a1,91
   10664:	03010513          	addi	a0,sp,48
   10668:	4300b0ef          	jal	ra,1ba98 <strchr>
   1066c:	02051863          	bnez	a0,1069c <print_stats+0x19c>
   10670:	01810613          	addi	a2,sp,24
   10674:	218b0593          	addi	a1,s6,536
   10678:	03010513          	addi	a0,sp,48
   1067c:	04d080ef          	jal	ra,18ec8 <sscanf>
   10680:	00100d93          	li	s11,1
   10684:	00050413          	mv	s0,a0
   10688:	03b51a63          	bne	a0,s11,106bc <print_stats+0x1bc>
   1068c:	01813783          	ld	a5,24(sp)
   10690:	00fa0a33          	add	s4,s4,a5
   10694:	0080006f          	j	1069c <print_stats+0x19c>
   10698:	fc041ce3          	bnez	s0,10670 <print_stats+0x170>
   1069c:	00048613          	mv	a2,s1
   106a0:	10000593          	li	a1,256
   106a4:	03010513          	addi	a0,sp,48
   106a8:	058080ef          	jal	ra,18700 <fgets>
   106ac:	f60512e3          	bnez	a0,10610 <print_stats+0x110>
   106b0:	00048513          	mv	a0,s1
   106b4:	621070ef          	jal	ra,184d4 <fclose>
   106b8:	ee1ff06f          	j	10598 <print_stats+0x98>
   106bc:	01810613          	addi	a2,sp,24
   106c0:	228b8593          	addi	a1,s7,552
   106c4:	03010513          	addi	a0,sp,48
   106c8:	001080ef          	jal	ra,18ec8 <sscanf>
   106cc:	00050413          	mv	s0,a0
   106d0:	01b51863          	bne	a0,s11,106e0 <print_stats+0x1e0>
   106d4:	01813783          	ld	a5,24(sp)
   106d8:	00f989b3          	add	s3,s3,a5
   106dc:	fc1ff06f          	j	1069c <print_stats+0x19c>
   106e0:	01810613          	addi	a2,sp,24
   106e4:	238c0593          	addi	a1,s8,568
   106e8:	03010513          	addi	a0,sp,48
   106ec:	7dc080ef          	jal	ra,18ec8 <sscanf>
   106f0:	00050413          	mv	s0,a0
   106f4:	01b51c63          	bne	a0,s11,1070c <print_stats+0x20c>
   106f8:	01813783          	ld	a5,24(sp)
   106fc:	00f90933          	add	s2,s2,a5
   10700:	f9dff06f          	j	1069c <print_stats+0x19c>
   10704:	00000413          	li	s0,0
   10708:	f95ff06f          	j	1069c <print_stats+0x19c>
   1070c:	00100413          	li	s0,1
   10710:	f8dff06f          	j	1069c <print_stats+0x19c>
   10714:	00000413          	li	s0,0
   10718:	00026ab7          	lui	s5,0x26
   1071c:	00026b37          	lui	s6,0x26
   10720:	00026bb7          	lui	s7,0x26
   10724:	00026c37          	lui	s8,0x26
   10728:	00026cb7          	lui	s9,0x26
   1072c:	00026d37          	lui	s10,0x26
   10730:	f6dff06f          	j	1069c <print_stats+0x19c>

0000000000010734 <run_bench>:
   10734:	fd010113          	addi	sp,sp,-48
   10738:	02813023          	sd	s0,32(sp)
   1073c:	00913c23          	sd	s1,24(sp)
   10740:	01213823          	sd	s2,16(sp)
   10744:	02113423          	sd	ra,40(sp)
   10748:	00050913          	mv	s2,a0
   1074c:	00058413          	mv	s0,a1
   10750:	00060493          	mv	s1,a2
   10754:	2b1020ef          	jal	ra,13204 <fork>
   10758:	02051a63          	bnez	a0,1078c <run_bench+0x58>
   1075c:	00090513          	mv	a0,s2
   10760:	6a4080ef          	jal	ra,18e04 <puts>
   10764:	00010593          	mv	a1,sp
   10768:	00000513          	li	a0,0
   1076c:	00c0d0ef          	jal	ra,1d778 <__clock_gettime>
   10770:	00048513          	mv	a0,s1
   10774:	000400e7          	jalr	s0
   10778:	00013503          	ld	a0,0(sp)
   1077c:	00813583          	ld	a1,8(sp)
   10780:	d81ff0ef          	jal	ra,10500 <print_stats>
   10784:	00000513          	li	a0,0
   10788:	999ff0ef          	jal	ra,10120 <exit>
   1078c:	00010513          	mv	a0,sp
   10790:	305020ef          	jal	ra,13294 <wait>
   10794:	02813083          	ld	ra,40(sp)
   10798:	02013403          	ld	s0,32(sp)
   1079c:	00012503          	lw	a0,0(sp)
   107a0:	01813483          	ld	s1,24(sp)
   107a4:	01013903          	ld	s2,16(sp)
   107a8:	03010113          	addi	sp,sp,48
   107ac:	00008067          	ret

00000000000107b0 <stress>:
   107b0:	fa010113          	addi	sp,sp,-96
   107b4:	04913423          	sd	s1,72(sp)
   107b8:	05213023          	sd	s2,64(sp)
   107bc:	03313c23          	sd	s3,56(sp)
   107c0:	03413823          	sd	s4,48(sp)
   107c4:	03513423          	sd	s5,40(sp)
   107c8:	03613023          	sd	s6,32(sp)
   107cc:	01713c23          	sd	s7,24(sp)
   107d0:	01813823          	sd	s8,16(sp)
   107d4:	04113c23          	sd	ra,88(sp)
   107d8:	04813823          	sd	s0,80(sp)
   107dc:	01913423          	sd	s9,8(sp)
   107e0:	01a13023          	sd	s10,0(sp)
   107e4:	00050a93          	mv	s5,a0
   107e8:	000184b7          	lui	s1,0x18
   107ec:	6110c0ef          	jal	ra,1d5fc <pthread_self>
   107f0:	41c659b7          	lui	s3,0x41c65
   107f4:	00003a37          	lui	s4,0x3
   107f8:	0005091b          	sext.w	s2,a0
   107fc:	6a048493          	addi	s1,s1,1696 # 186a0 <fflush+0x100>
   10800:	e6d9899b          	addiw	s3,s3,-403
   10804:	039a0a1b          	addiw	s4,s4,57
   10808:	12c00b13          	li	s6,300
   1080c:	03000b93          	li	s7,48
   10810:	1f400c13          	li	s8,500
   10814:	0339043b          	mulw	s0,s2,s3
   10818:	0144043b          	addw	s0,s0,s4
   1081c:	03340cbb          	mulw	s9,s0,s3
   10820:	0364743b          	remuw	s0,s0,s6
   10824:	014c893b          	addw	s2,s9,s4
   10828:	02041413          	slli	s0,s0,0x20
   1082c:	02045413          	srli	s0,s0,0x20
   10830:	03740433          	mul	s0,s0,s7
   10834:	008a8433          	add	s0,s5,s0
   10838:	00040513          	mv	a0,s0
   1083c:	6f40c0ef          	jal	ra,1cf30 <__pthread_mutex_lock>
   10840:	02843d03          	ld	s10,40(s0)
   10844:	00040513          	mv	a0,s0
   10848:	02043423          	sd	zero,40(s0)
   1084c:	3bd0c0ef          	jal	ra,1d408 <__pthread_mutex_unlock>
   10850:	000d0513          	mv	a0,s10
   10854:	428020ef          	jal	ra,12c7c <free>
   10858:	020d1e63          	bnez	s10,10894 <stress+0xe4>
   1085c:	0389753b          	remuw	a0,s2,s8
   10860:	1ff57513          	andi	a0,a0,511
   10864:	030020ef          	jal	ra,12894 <malloc>
   10868:	00050c93          	mv	s9,a0
   1086c:	00040513          	mv	a0,s0
   10870:	6c00c0ef          	jal	ra,1cf30 <__pthread_mutex_lock>
   10874:	02843783          	ld	a5,40(s0)
   10878:	00079663          	bnez	a5,10884 <stress+0xd4>
   1087c:	03943423          	sd	s9,40(s0)
   10880:	00000c93          	li	s9,0
   10884:	00040513          	mv	a0,s0
   10888:	3810c0ef          	jal	ra,1d408 <__pthread_mutex_unlock>
   1088c:	000c8513          	mv	a0,s9
   10890:	3ec020ef          	jal	ra,12c7c <free>
   10894:	fff4849b          	addiw	s1,s1,-1
   10898:	f6049ee3          	bnez	s1,10814 <stress+0x64>
   1089c:	05813083          	ld	ra,88(sp)
   108a0:	05013403          	ld	s0,80(sp)
   108a4:	04813483          	ld	s1,72(sp)
   108a8:	04013903          	ld	s2,64(sp)
   108ac:	03813983          	ld	s3,56(sp)
   108b0:	03013a03          	ld	s4,48(sp)
   108b4:	02813a83          	ld	s5,40(sp)
   108b8:	02013b03          	ld	s6,32(sp)
   108bc:	01813b83          	ld	s7,24(sp)
   108c0:	01013c03          	ld	s8,16(sp)
   108c4:	00813c83          	ld	s9,8(sp)
   108c8:	00013d03          	ld	s10,0(sp)
   108cc:	00000513          	li	a0,0
   108d0:	06010113          	addi	sp,sp,96
   108d4:	00008067          	ret

00000000000108d8 <b_malloc_sparse>:
   108d8:	fffed337          	lui	t1,0xfffed
   108dc:	81010113          	addi	sp,sp,-2032
   108e0:	f4030313          	addi	t1,t1,-192 # fffffffffffecf40 <__BSS_END__+0xfffffffffffbffd0>
   108e4:	000147b7          	lui	a5,0x14
   108e8:	7e813023          	sd	s0,2016(sp)
   108ec:	7c913c23          	sd	s1,2008(sp)
   108f0:	7d213823          	sd	s2,2000(sp)
   108f4:	7e113423          	sd	ra,2024(sp)
   108f8:	7d313423          	sd	s3,1992(sp)
   108fc:	fffec437          	lui	s0,0xfffec
   10900:	00610133          	add	sp,sp,t1
   10904:	88078793          	addi	a5,a5,-1920 # 13880 <tre_add_tag_left+0x48>
   10908:	78040413          	addi	s0,s0,1920 # fffffffffffec780 <__BSS_END__+0xfffffffffffbf810>
   1090c:	002787b3          	add	a5,a5,sp
   10910:	00878433          	add	s0,a5,s0
   10914:	00001937          	lui	s2,0x1
   10918:	00040493          	mv	s1,s0
   1091c:	fa090913          	addi	s2,s2,-96 # fa0 <exit-0xf180>
   10920:	00090513          	mv	a0,s2
   10924:	771010ef          	jal	ra,12894 <malloc>
   10928:	00a4b023          	sd	a0,0(s1)
   1092c:	00090613          	mv	a2,s2
   10930:	00000593          	li	a1,0
   10934:	06c0b0ef          	jal	ra,1b9a0 <memset>
   10938:	000147b7          	lui	a5,0x14
   1093c:	88078793          	addi	a5,a5,-1920 # 13880 <tre_add_tag_left+0x48>
   10940:	00848493          	addi	s1,s1,8
   10944:	002787b3          	add	a5,a5,sp
   10948:	fcf49ce3          	bne	s1,a5,10920 <b_malloc_sparse+0x48>
   1094c:	00002937          	lui	s2,0x2
   10950:	00000493          	li	s1,0
   10954:	71090913          	addi	s2,s2,1808 # 2710 <exit-0xda10>
   10958:	09600993          	li	s3,150
   1095c:	00148493          	addi	s1,s1,1
   10960:	03249863          	bne	s1,s2,10990 <b_malloc_sparse+0xb8>
   10964:	00013337          	lui	t1,0x13
   10968:	0c030313          	addi	t1,t1,192 # 130c0 <mbrtowc+0x3c>
   1096c:	00610133          	add	sp,sp,t1
   10970:	7e813083          	ld	ra,2024(sp)
   10974:	7e013403          	ld	s0,2016(sp)
   10978:	7d813483          	ld	s1,2008(sp)
   1097c:	7d013903          	ld	s2,2000(sp)
   10980:	7c813983          	ld	s3,1992(sp)
   10984:	00000513          	li	a0,0
   10988:	7f010113          	addi	sp,sp,2032
   1098c:	00008067          	ret
   10990:	0334f7b3          	remu	a5,s1,s3
   10994:	00078663          	beqz	a5,109a0 <b_malloc_sparse+0xc8>
   10998:	00843503          	ld	a0,8(s0)
   1099c:	2e0020ef          	jal	ra,12c7c <free>
   109a0:	00840413          	addi	s0,s0,8
   109a4:	fb9ff06f          	j	1095c <b_malloc_sparse+0x84>

00000000000109a8 <b_malloc_bubble>:
   109a8:	fffed337          	lui	t1,0xfffed
   109ac:	81010113          	addi	sp,sp,-2032
   109b0:	f5030313          	addi	t1,t1,-176 # fffffffffffecf50 <__BSS_END__+0xfffffffffffbffe0>
   109b4:	000147b7          	lui	a5,0x14
   109b8:	7e813023          	sd	s0,2016(sp)
   109bc:	7c913c23          	sd	s1,2008(sp)
   109c0:	7d213823          	sd	s2,2000(sp)
   109c4:	7e113423          	sd	ra,2024(sp)
   109c8:	fffec437          	lui	s0,0xfffec
   109cc:	00610133          	add	sp,sp,t1
   109d0:	88078793          	addi	a5,a5,-1920 # 13880 <tre_add_tag_left+0x48>
   109d4:	78040413          	addi	s0,s0,1920 # fffffffffffec780 <__BSS_END__+0xfffffffffffbf810>
   109d8:	002787b3          	add	a5,a5,sp
   109dc:	00878433          	add	s0,a5,s0
   109e0:	00001937          	lui	s2,0x1
   109e4:	00040493          	mv	s1,s0
   109e8:	fa090913          	addi	s2,s2,-96 # fa0 <exit-0xf180>
   109ec:	00090513          	mv	a0,s2
   109f0:	6a5010ef          	jal	ra,12894 <malloc>
   109f4:	00a4b023          	sd	a0,0(s1)
   109f8:	00090613          	mv	a2,s2
   109fc:	00000593          	li	a1,0
   10a00:	7a10a0ef          	jal	ra,1b9a0 <memset>
   10a04:	000147b7          	lui	a5,0x14
   10a08:	88078793          	addi	a5,a5,-1920 # 13880 <tre_add_tag_left+0x48>
   10a0c:	00848493          	addi	s1,s1,8
   10a10:	002787b3          	add	a5,a5,sp
   10a14:	fcf49ce3          	bne	s1,a5,109ec <b_malloc_bubble+0x44>
   10a18:	000144b7          	lui	s1,0x14
   10a1c:	87848493          	addi	s1,s1,-1928 # 13878 <tre_add_tag_left+0x40>
   10a20:	009404b3          	add	s1,s0,s1
   10a24:	00043503          	ld	a0,0(s0)
   10a28:	00840413          	addi	s0,s0,8
   10a2c:	250020ef          	jal	ra,12c7c <free>
   10a30:	fe941ae3          	bne	s0,s1,10a24 <b_malloc_bubble+0x7c>
   10a34:	00013337          	lui	t1,0x13
   10a38:	0b030313          	addi	t1,t1,176 # 130b0 <mbrtowc+0x2c>
   10a3c:	00610133          	add	sp,sp,t1
   10a40:	7e813083          	ld	ra,2024(sp)
   10a44:	7e013403          	ld	s0,2016(sp)
   10a48:	7d813483          	ld	s1,2008(sp)
   10a4c:	7d013903          	ld	s2,2000(sp)
   10a50:	00000513          	li	a0,0
   10a54:	7f010113          	addi	sp,sp,2032
   10a58:	00008067          	ret

0000000000010a5c <b_malloc_tiny1>:
   10a5c:	fffed337          	lui	t1,0xfffed
   10a60:	81010113          	addi	sp,sp,-2032
   10a64:	f4030313          	addi	t1,t1,-192 # fffffffffffecf40 <__BSS_END__+0xfffffffffffbffd0>
   10a68:	000147b7          	lui	a5,0x14
   10a6c:	7e813023          	sd	s0,2016(sp)
   10a70:	7c913c23          	sd	s1,2008(sp)
   10a74:	7d213823          	sd	s2,2000(sp)
   10a78:	7d313423          	sd	s3,1992(sp)
   10a7c:	7e113423          	sd	ra,2024(sp)
   10a80:	fffec437          	lui	s0,0xfffec
   10a84:	00610133          	add	sp,sp,t1
   10a88:	88078793          	addi	a5,a5,-1920 # 13880 <tre_add_tag_left+0x48>
   10a8c:	78040413          	addi	s0,s0,1920 # fffffffffffec780 <__BSS_END__+0xfffffffffffbf810>
   10a90:	002787b3          	add	a5,a5,sp
   10a94:	00878433          	add	s0,a5,s0
   10a98:	00002937          	lui	s2,0x2
   10a9c:	00040993          	mv	s3,s0
   10aa0:	00000493          	li	s1,0
   10aa4:	71090913          	addi	s2,s2,1808 # 2710 <exit-0xda10>
   10aa8:	0034f513          	andi	a0,s1,3
   10aac:	00150513          	addi	a0,a0,1
   10ab0:	00451513          	slli	a0,a0,0x4
   10ab4:	5e1010ef          	jal	ra,12894 <malloc>
   10ab8:	00a9b023          	sd	a0,0(s3) # 41c65000 <__BSS_END__+0x41c38090>
   10abc:	00148493          	addi	s1,s1,1
   10ac0:	00898993          	addi	s3,s3,8
   10ac4:	ff2492e3          	bne	s1,s2,10aa8 <b_malloc_tiny1+0x4c>
   10ac8:	000144b7          	lui	s1,0x14
   10acc:	88048493          	addi	s1,s1,-1920 # 13880 <tre_add_tag_left+0x48>
   10ad0:	009404b3          	add	s1,s0,s1
   10ad4:	00043503          	ld	a0,0(s0)
   10ad8:	00840413          	addi	s0,s0,8
   10adc:	1a0020ef          	jal	ra,12c7c <free>
   10ae0:	fe941ae3          	bne	s0,s1,10ad4 <b_malloc_tiny1+0x78>
   10ae4:	00013337          	lui	t1,0x13
   10ae8:	0c030313          	addi	t1,t1,192 # 130c0 <mbrtowc+0x3c>
   10aec:	00610133          	add	sp,sp,t1
   10af0:	7e813083          	ld	ra,2024(sp)
   10af4:	7e013403          	ld	s0,2016(sp)
   10af8:	7d813483          	ld	s1,2008(sp)
   10afc:	7d013903          	ld	s2,2000(sp)
   10b00:	7c813983          	ld	s3,1992(sp)
   10b04:	00000513          	li	a0,0
   10b08:	7f010113          	addi	sp,sp,2032
   10b0c:	00008067          	ret

0000000000010b10 <b_malloc_tiny2>:
   10b10:	fffed337          	lui	t1,0xfffed
   10b14:	81010113          	addi	sp,sp,-2032
   10b18:	f4030313          	addi	t1,t1,-192 # fffffffffffecf40 <__BSS_END__+0xfffffffffffbffd0>
   10b1c:	7e813023          	sd	s0,2016(sp)
   10b20:	7c913c23          	sd	s1,2008(sp)
   10b24:	7d213823          	sd	s2,2000(sp)
   10b28:	7e113423          	sd	ra,2024(sp)
   10b2c:	000147b7          	lui	a5,0x14
   10b30:	00610133          	add	sp,sp,t1
   10b34:	fffec437          	lui	s0,0xfffec
   10b38:	88078793          	addi	a5,a5,-1920 # 13880 <tre_add_tag_left+0x48>
   10b3c:	01010713          	addi	a4,sp,16
   10b40:	78040413          	addi	s0,s0,1920 # fffffffffffec780 <__BSS_END__+0xfffffffffffbf810>
   10b44:	00e787b3          	add	a5,a5,a4
   10b48:	00002937          	lui	s2,0x2
   10b4c:	00878433          	add	s0,a5,s0
   10b50:	00000493          	li	s1,0
   10b54:	71090913          	addi	s2,s2,1808 # 2710 <exit-0xda10>
   10b58:	0034f513          	andi	a0,s1,3
   10b5c:	00150513          	addi	a0,a0,1
   10b60:	00451513          	slli	a0,a0,0x4
   10b64:	531010ef          	jal	ra,12894 <malloc>
   10b68:	00a43023          	sd	a0,0(s0)
   10b6c:	00148493          	addi	s1,s1,1
   10b70:	00840413          	addi	s0,s0,8
   10b74:	ff2492e3          	bne	s1,s2,10b58 <b_malloc_tiny2+0x48>
   10b78:	00014737          	lui	a4,0x14
   10b7c:	88070713          	addi	a4,a4,-1920 # 13880 <tre_add_tag_left+0x48>
   10b80:	01010693          	addi	a3,sp,16
   10b84:	fffec7b7          	lui	a5,0xfffec
   10b88:	00d70733          	add	a4,a4,a3
   10b8c:	00f707b3          	add	a5,a4,a5
   10b90:	000024b7          	lui	s1,0x2
   10b94:	00100413          	li	s0,1
   10b98:	00f13423          	sd	a5,8(sp)
   10b9c:	71048493          	addi	s1,s1,1808 # 2710 <exit-0xda10>
   10ba0:	00813703          	ld	a4,8(sp)
   10ba4:	00341793          	slli	a5,s0,0x3
   10ba8:	03940413          	addi	s0,s0,57
   10bac:	00f707b3          	add	a5,a4,a5
   10bb0:	7807b503          	ld	a0,1920(a5) # fffffffffffec780 <__BSS_END__+0xfffffffffffbf810>
   10bb4:	0c8020ef          	jal	ra,12c7c <free>
   10bb8:	02947433          	remu	s0,s0,s1
   10bbc:	fe0412e3          	bnez	s0,10ba0 <b_malloc_tiny2+0x90>
   10bc0:	00013337          	lui	t1,0x13
   10bc4:	0c030313          	addi	t1,t1,192 # 130c0 <mbrtowc+0x3c>
   10bc8:	00610133          	add	sp,sp,t1
   10bcc:	7e813083          	ld	ra,2024(sp)
   10bd0:	7e013403          	ld	s0,2016(sp)
   10bd4:	7d813483          	ld	s1,2008(sp)
   10bd8:	7d013903          	ld	s2,2000(sp)
   10bdc:	00000513          	li	a0,0
   10be0:	7f010113          	addi	sp,sp,2032
   10be4:	00008067          	ret

0000000000010be8 <b_malloc_big1>:
   10be8:	ffffd337          	lui	t1,0xffffd
   10bec:	81010113          	addi	sp,sp,-2032
   10bf0:	94030313          	addi	t1,t1,-1728 # ffffffffffffc940 <__BSS_END__+0xfffffffffffcf9d0>
   10bf4:	000047b7          	lui	a5,0x4
   10bf8:	7e813023          	sd	s0,2016(sp)
   10bfc:	7c913c23          	sd	s1,2008(sp)
   10c00:	7d213823          	sd	s2,2000(sp)
   10c04:	7d313423          	sd	s3,1992(sp)
   10c08:	7e113423          	sd	ra,2024(sp)
   10c0c:	ffffc437          	lui	s0,0xffffc
   10c10:	00610133          	add	sp,sp,t1
   10c14:	e8078793          	addi	a5,a5,-384 # 3e80 <exit-0xc2a0>
   10c18:	18040413          	addi	s0,s0,384 # ffffffffffffc180 <__BSS_END__+0xfffffffffffcf210>
   10c1c:	002787b3          	add	a5,a5,sp
   10c20:	00878433          	add	s0,a5,s0
   10c24:	00040913          	mv	s2,s0
   10c28:	00000493          	li	s1,0
   10c2c:	7d000993          	li	s3,2000
   10c30:	0034f513          	andi	a0,s1,3
   10c34:	00150513          	addi	a0,a0,1
   10c38:	00e51513          	slli	a0,a0,0xe
   10c3c:	459010ef          	jal	ra,12894 <malloc>
   10c40:	00a93023          	sd	a0,0(s2)
   10c44:	00148493          	addi	s1,s1,1
   10c48:	00890913          	addi	s2,s2,8
   10c4c:	ff3492e3          	bne	s1,s3,10c30 <b_malloc_big1+0x48>
   10c50:	000044b7          	lui	s1,0x4
   10c54:	e8048493          	addi	s1,s1,-384 # 3e80 <exit-0xc2a0>
   10c58:	009404b3          	add	s1,s0,s1
   10c5c:	00043503          	ld	a0,0(s0)
   10c60:	00840413          	addi	s0,s0,8
   10c64:	018020ef          	jal	ra,12c7c <free>
   10c68:	fe941ae3          	bne	s0,s1,10c5c <b_malloc_big1+0x74>
   10c6c:	00003337          	lui	t1,0x3
   10c70:	6c030313          	addi	t1,t1,1728 # 36c0 <exit-0xca60>
   10c74:	00610133          	add	sp,sp,t1
   10c78:	7e813083          	ld	ra,2024(sp)
   10c7c:	7e013403          	ld	s0,2016(sp)
   10c80:	7d813483          	ld	s1,2008(sp)
   10c84:	7d013903          	ld	s2,2000(sp)
   10c88:	7c813983          	ld	s3,1992(sp)
   10c8c:	00000513          	li	a0,0
   10c90:	7f010113          	addi	sp,sp,2032
   10c94:	00008067          	ret

0000000000010c98 <b_malloc_big2>:
   10c98:	ffffd337          	lui	t1,0xffffd
   10c9c:	81010113          	addi	sp,sp,-2032
   10ca0:	94030313          	addi	t1,t1,-1728 # ffffffffffffc940 <__BSS_END__+0xfffffffffffcf9d0>
   10ca4:	7e813023          	sd	s0,2016(sp)
   10ca8:	7c913c23          	sd	s1,2008(sp)
   10cac:	7d213823          	sd	s2,2000(sp)
   10cb0:	7e113423          	sd	ra,2024(sp)
   10cb4:	000047b7          	lui	a5,0x4
   10cb8:	00610133          	add	sp,sp,t1
   10cbc:	ffffc437          	lui	s0,0xffffc
   10cc0:	e8078793          	addi	a5,a5,-384 # 3e80 <exit-0xc2a0>
   10cc4:	01010713          	addi	a4,sp,16
   10cc8:	18040413          	addi	s0,s0,384 # ffffffffffffc180 <__BSS_END__+0xfffffffffffcf210>
   10ccc:	00e787b3          	add	a5,a5,a4
   10cd0:	00878433          	add	s0,a5,s0
   10cd4:	00000493          	li	s1,0
   10cd8:	7d000913          	li	s2,2000
   10cdc:	0034f513          	andi	a0,s1,3
   10ce0:	00150513          	addi	a0,a0,1
   10ce4:	00e51513          	slli	a0,a0,0xe
   10ce8:	3ad010ef          	jal	ra,12894 <malloc>
   10cec:	00a43023          	sd	a0,0(s0)
   10cf0:	00148493          	addi	s1,s1,1
   10cf4:	00840413          	addi	s0,s0,8
   10cf8:	ff2492e3          	bne	s1,s2,10cdc <b_malloc_big2+0x44>
   10cfc:	00004737          	lui	a4,0x4
   10d00:	e8070713          	addi	a4,a4,-384 # 3e80 <exit-0xc2a0>
   10d04:	01010693          	addi	a3,sp,16
   10d08:	ffffc7b7          	lui	a5,0xffffc
   10d0c:	00d70733          	add	a4,a4,a3
   10d10:	00f707b3          	add	a5,a4,a5
   10d14:	32700493          	li	s1,807
   10d18:	00100413          	li	s0,1
   10d1c:	00f13423          	sd	a5,8(sp)
   10d20:	7d000913          	li	s2,2000
   10d24:	00813703          	ld	a4,8(sp)
   10d28:	00341793          	slli	a5,s0,0x3
   10d2c:	fff4849b          	addiw	s1,s1,-1
   10d30:	00f707b3          	add	a5,a4,a5
   10d34:	1807b503          	ld	a0,384(a5) # ffffffffffffc180 <__BSS_END__+0xfffffffffffcf210>
   10d38:	03940413          	addi	s0,s0,57
   10d3c:	741010ef          	jal	ra,12c7c <free>
   10d40:	03247433          	remu	s0,s0,s2
   10d44:	fe0490e3          	bnez	s1,10d24 <b_malloc_big2+0x8c>
   10d48:	00003337          	lui	t1,0x3
   10d4c:	6c030313          	addi	t1,t1,1728 # 36c0 <exit-0xca60>
   10d50:	00610133          	add	sp,sp,t1
   10d54:	7e813083          	ld	ra,2024(sp)
   10d58:	7e013403          	ld	s0,2016(sp)
   10d5c:	7d813483          	ld	s1,2008(sp)
   10d60:	7d013903          	ld	s2,2000(sp)
   10d64:	00000513          	li	a0,0
   10d68:	7f010113          	addi	sp,sp,2032
   10d6c:	00008067          	ret

0000000000010d70 <b_malloc_thread_stress>:
   10d70:	ffffd337          	lui	t1,0xffffd
   10d74:	f6030313          	addi	t1,t1,-160 # ffffffffffffcf60 <__BSS_END__+0xfffffffffffcfff0>
   10d78:	81010113          	addi	sp,sp,-2032
   10d7c:	000046b7          	lui	a3,0x4
   10d80:	7e113423          	sd	ra,2024(sp)
   10d84:	7e813023          	sd	s0,2016(sp)
   10d88:	7c913c23          	sd	s1,2008(sp)
   10d8c:	7d213823          	sd	s2,2000(sp)
   10d90:	84068493          	addi	s1,a3,-1984 # 3840 <exit-0xc8e0>
   10d94:	00610133          	add	sp,sp,t1
   10d98:	00048613          	mv	a2,s1
   10d9c:	00000593          	li	a1,0
   10da0:	03010513          	addi	a0,sp,48
   10da4:	3fd0a0ef          	jal	ra,1b9a0 <memset>
   10da8:	00004937          	lui	s2,0x4
   10dac:	01010713          	addi	a4,sp,16
   10db0:	86090793          	addi	a5,s2,-1952 # 3860 <exit-0xc8c0>
   10db4:	00e787b3          	add	a5,a5,a4
   10db8:	ffffc437          	lui	s0,0xffffc
   10dbc:	409786b3          	sub	a3,a5,s1
   10dc0:	86090793          	addi	a5,s2,-1952
   10dc4:	00e787b3          	add	a5,a5,a4
   10dc8:	000104b7          	lui	s1,0x10
   10dcc:	7a840513          	addi	a0,s0,1960 # ffffffffffffc7a8 <__BSS_END__+0xfffffffffffcf838>
   10dd0:	7b048613          	addi	a2,s1,1968 # 107b0 <stress>
   10dd4:	00000593          	li	a1,0
   10dd8:	00a78533          	add	a0,a5,a0
   10ddc:	00d13423          	sd	a3,8(sp)
   10de0:	35d0b0ef          	jal	ra,1c93c <__pthread_create>
   10de4:	00813683          	ld	a3,8(sp)
   10de8:	01010713          	addi	a4,sp,16
   10dec:	86090793          	addi	a5,s2,-1952
   10df0:	00e787b3          	add	a5,a5,a4
   10df4:	7b040513          	addi	a0,s0,1968
   10df8:	7b048613          	addi	a2,s1,1968
   10dfc:	00000593          	li	a1,0
   10e00:	00a78533          	add	a0,a5,a0
   10e04:	3390b0ef          	jal	ra,1c93c <__pthread_create>
   10e08:	01010713          	addi	a4,sp,16
   10e0c:	01813503          	ld	a0,24(sp)
   10e10:	86090793          	addi	a5,s2,-1952
   10e14:	00e787b3          	add	a5,a5,a4
   10e18:	7b840593          	addi	a1,s0,1976
   10e1c:	00b785b3          	add	a1,a5,a1
   10e20:	00b13423          	sd	a1,8(sp)
   10e24:	0e80c0ef          	jal	ra,1cf0c <__pthread_join>
   10e28:	00813583          	ld	a1,8(sp)
   10e2c:	02013503          	ld	a0,32(sp)
   10e30:	0dc0c0ef          	jal	ra,1cf0c <__pthread_join>
   10e34:	00003337          	lui	t1,0x3
   10e38:	0a030313          	addi	t1,t1,160 # 30a0 <exit-0xd080>
   10e3c:	00610133          	add	sp,sp,t1
   10e40:	7e813083          	ld	ra,2024(sp)
   10e44:	7e013403          	ld	s0,2016(sp)
   10e48:	7d813483          	ld	s1,2008(sp)
   10e4c:	7d013903          	ld	s2,2000(sp)
   10e50:	00000513          	li	a0,0
   10e54:	7f010113          	addi	sp,sp,2032
   10e58:	00008067          	ret

0000000000010e5c <b_malloc_thread_local>:
   10e5c:	f2010113          	addi	sp,sp,-224
   10e60:	ffff9337          	lui	t1,0xffff9
   10e64:	0d213023          	sd	s2,192(sp)
   10e68:	00004937          	lui	s2,0x4
   10e6c:	0c113c23          	sd	ra,216(sp)
   10e70:	0c813823          	sd	s0,208(sp)
   10e74:	0c913423          	sd	s1,200(sp)
   10e78:	0b313c23          	sd	s3,184(sp)
   10e7c:	84090493          	addi	s1,s2,-1984 # 3840 <exit-0xc8e0>
   10e80:	00610133          	add	sp,sp,t1
   10e84:	00048613          	mv	a2,s1
   10e88:	00000593          	li	a1,0
   10e8c:	03010513          	addi	a0,sp,48
   10e90:	3110a0ef          	jal	ra,1b9a0 <memset>
   10e94:	000079b7          	lui	s3,0x7
   10e98:	01010713          	addi	a4,sp,16
   10e9c:	0a098793          	addi	a5,s3,160 # 70a0 <exit-0x9080>
   10ea0:	00e787b3          	add	a5,a5,a4
   10ea4:	412787b3          	sub	a5,a5,s2
   10ea8:	00048613          	mv	a2,s1
   10eac:	00000593          	li	a1,0
   10eb0:	7c078513          	addi	a0,a5,1984
   10eb4:	00f13423          	sd	a5,8(sp)
   10eb8:	2e90a0ef          	jal	ra,1b9a0 <memset>
   10ebc:	ffff9437          	lui	s0,0xffff9
   10ec0:	01010713          	addi	a4,sp,16
   10ec4:	0a098793          	addi	a5,s3,160
   10ec8:	00e787b3          	add	a5,a5,a4
   10ecc:	f8040693          	addi	a3,s0,-128 # ffffffffffff8f80 <__BSS_END__+0xfffffffffffcc010>
   10ed0:	00d786b3          	add	a3,a5,a3
   10ed4:	0a098793          	addi	a5,s3,160
   10ed8:	00e787b3          	add	a5,a5,a4
   10edc:	00010937          	lui	s2,0x10
   10ee0:	f6840513          	addi	a0,s0,-152
   10ee4:	7b090613          	addi	a2,s2,1968 # 107b0 <stress>
   10ee8:	00000593          	li	a1,0
   10eec:	00a78533          	add	a0,a5,a0
   10ef0:	24d0b0ef          	jal	ra,1c93c <__pthread_create>
   10ef4:	01010713          	addi	a4,sp,16
   10ef8:	0a098793          	addi	a5,s3,160
   10efc:	00e787b3          	add	a5,a5,a4
   10f00:	409786b3          	sub	a3,a5,s1
   10f04:	0a098793          	addi	a5,s3,160
   10f08:	00e787b3          	add	a5,a5,a4
   10f0c:	f7040513          	addi	a0,s0,-144
   10f10:	7b090613          	addi	a2,s2,1968
   10f14:	00000593          	li	a1,0
   10f18:	00a78533          	add	a0,a5,a0
   10f1c:	2210b0ef          	jal	ra,1c93c <__pthread_create>
   10f20:	01010713          	addi	a4,sp,16
   10f24:	01813503          	ld	a0,24(sp)
   10f28:	0a098793          	addi	a5,s3,160
   10f2c:	00e787b3          	add	a5,a5,a4
   10f30:	f7840593          	addi	a1,s0,-136
   10f34:	00b785b3          	add	a1,a5,a1
   10f38:	00b13423          	sd	a1,8(sp)
   10f3c:	7d10b0ef          	jal	ra,1cf0c <__pthread_join>
   10f40:	00813583          	ld	a1,8(sp)
   10f44:	02013503          	ld	a0,32(sp)
   10f48:	7c50b0ef          	jal	ra,1cf0c <__pthread_join>
   10f4c:	00007337          	lui	t1,0x7
   10f50:	00610133          	add	sp,sp,t1
   10f54:	0d813083          	ld	ra,216(sp)
   10f58:	0d013403          	ld	s0,208(sp)
   10f5c:	0c813483          	ld	s1,200(sp)
   10f60:	0c013903          	ld	s2,192(sp)
   10f64:	0b813983          	ld	s3,184(sp)
   10f68:	00000513          	li	a0,0
   10f6c:	0e010113          	addi	sp,sp,224
   10f70:	00008067          	ret

0000000000010f74 <emptyfunc>:
   10f74:	00000513          	li	a0,0
   10f78:	00008067          	ret

0000000000010f7c <lockunlock>:
   10f7c:	fe010113          	addi	sp,sp,-32
   10f80:	00813823          	sd	s0,16(sp)
   10f84:	000f4437          	lui	s0,0xf4
   10f88:	00913423          	sd	s1,8(sp)
   10f8c:	00113c23          	sd	ra,24(sp)
   10f90:	00050493          	mv	s1,a0
   10f94:	24040413          	addi	s0,s0,576 # f4240 <__BSS_END__+0xc72d0>
   10f98:	00048513          	mv	a0,s1
   10f9c:	7950b0ef          	jal	ra,1cf30 <__pthread_mutex_lock>
   10fa0:	00048513          	mv	a0,s1
   10fa4:	fff40413          	addi	s0,s0,-1
   10fa8:	4600c0ef          	jal	ra,1d408 <__pthread_mutex_unlock>
   10fac:	fe0416e3          	bnez	s0,10f98 <lockunlock+0x1c>
   10fb0:	01813083          	ld	ra,24(sp)
   10fb4:	01013403          	ld	s0,16(sp)
   10fb8:	00813483          	ld	s1,8(sp)
   10fbc:	00000513          	li	a0,0
   10fc0:	02010113          	addi	sp,sp,32
   10fc4:	00008067          	ret

0000000000010fc8 <b_pthread_createjoin_serial1>:
   10fc8:	fc010113          	addi	sp,sp,-64
   10fcc:	02813823          	sd	s0,48(sp)
   10fd0:	00001437          	lui	s0,0x1
   10fd4:	02913423          	sd	s1,40(sp)
   10fd8:	02113c23          	sd	ra,56(sp)
   10fdc:	00a13423          	sd	a0,8(sp)
   10fe0:	9c440413          	addi	s0,s0,-1596 # 9c4 <exit-0xf75c>
   10fe4:	000114b7          	lui	s1,0x11
   10fe8:	00000693          	li	a3,0
   10fec:	f7448613          	addi	a2,s1,-140 # 10f74 <emptyfunc>
   10ff0:	00000593          	li	a1,0
   10ff4:	01810513          	addi	a0,sp,24
   10ff8:	1450b0ef          	jal	ra,1c93c <__pthread_create>
   10ffc:	01813503          	ld	a0,24(sp)
   11000:	00810593          	addi	a1,sp,8
   11004:	fff40413          	addi	s0,s0,-1
   11008:	7050b0ef          	jal	ra,1cf0c <__pthread_join>
   1100c:	fc041ee3          	bnez	s0,10fe8 <b_pthread_createjoin_serial1+0x20>
   11010:	03813083          	ld	ra,56(sp)
   11014:	03013403          	ld	s0,48(sp)
   11018:	02813483          	ld	s1,40(sp)
   1101c:	00000513          	li	a0,0
   11020:	04010113          	addi	sp,sp,64
   11024:	00008067          	ret

0000000000011028 <b_pthread_createjoin_serial2>:
   11028:	e3010113          	addi	sp,sp,-464
   1102c:	1b213823          	sd	s2,432(sp)
   11030:	1b313423          	sd	s3,424(sp)
   11034:	1c113423          	sd	ra,456(sp)
   11038:	1c813023          	sd	s0,448(sp)
   1103c:	1a913c23          	sd	s1,440(sp)
   11040:	00a13423          	sd	a0,8(sp)
   11044:	03200913          	li	s2,50
   11048:	000119b7          	lui	s3,0x11
   1104c:	01010413          	addi	s0,sp,16
   11050:	00040493          	mv	s1,s0
   11054:	00048513          	mv	a0,s1
   11058:	00000693          	li	a3,0
   1105c:	f7498613          	addi	a2,s3,-140 # 10f74 <emptyfunc>
   11060:	00000593          	li	a1,0
   11064:	0d90b0ef          	jal	ra,1c93c <__pthread_create>
   11068:	00848493          	addi	s1,s1,8
   1106c:	1a010793          	addi	a5,sp,416
   11070:	fef492e3          	bne	s1,a5,11054 <b_pthread_createjoin_serial2+0x2c>
   11074:	00043503          	ld	a0,0(s0)
   11078:	00810593          	addi	a1,sp,8
   1107c:	00840413          	addi	s0,s0,8
   11080:	68d0b0ef          	jal	ra,1cf0c <__pthread_join>
   11084:	1a010793          	addi	a5,sp,416
   11088:	fef416e3          	bne	s0,a5,11074 <b_pthread_createjoin_serial2+0x4c>
   1108c:	fff90913          	addi	s2,s2,-1
   11090:	fa091ee3          	bnez	s2,1104c <b_pthread_createjoin_serial2+0x24>
   11094:	1c813083          	ld	ra,456(sp)
   11098:	1c013403          	ld	s0,448(sp)
   1109c:	1b813483          	ld	s1,440(sp)
   110a0:	1b013903          	ld	s2,432(sp)
   110a4:	1a813983          	ld	s3,424(sp)
   110a8:	00000513          	li	a0,0
   110ac:	1d010113          	addi	sp,sp,464
   110b0:	00008067          	ret

00000000000110b4 <b_pthread_create_serial1>:
   110b4:	fa010113          	addi	sp,sp,-96
   110b8:	00810513          	addi	a0,sp,8
   110bc:	04113c23          	sd	ra,88(sp)
   110c0:	04813823          	sd	s0,80(sp)
   110c4:	04913423          	sd	s1,72(sp)
   110c8:	3e40b0ef          	jal	ra,1c4ac <pthread_attr_init>
   110cc:	000045b7          	lui	a1,0x4
   110d0:	00810513          	addi	a0,sp,8
   110d4:	00001437          	lui	s0,0x1
   110d8:	41c0b0ef          	jal	ra,1c4f4 <pthread_attr_setstacksize>
   110dc:	9c440413          	addi	s0,s0,-1596 # 9c4 <exit-0xf75c>
   110e0:	000114b7          	lui	s1,0x11
   110e4:	00000693          	li	a3,0
   110e8:	f7448613          	addi	a2,s1,-140 # 10f74 <emptyfunc>
   110ec:	00810593          	addi	a1,sp,8
   110f0:	00010513          	mv	a0,sp
   110f4:	fff40413          	addi	s0,s0,-1
   110f8:	0450b0ef          	jal	ra,1c93c <__pthread_create>
   110fc:	fe0414e3          	bnez	s0,110e4 <b_pthread_create_serial1+0x30>
   11100:	05813083          	ld	ra,88(sp)
   11104:	05013403          	ld	s0,80(sp)
   11108:	04813483          	ld	s1,72(sp)
   1110c:	00000513          	li	a0,0
   11110:	06010113          	addi	sp,sp,96
   11114:	00008067          	ret

0000000000011118 <b_pthread_uselesslock>:
   11118:	fb010113          	addi	sp,sp,-80
   1111c:	00011637          	lui	a2,0x11
   11120:	00a13423          	sd	a0,8(sp)
   11124:	01810693          	addi	a3,sp,24
   11128:	f7c60613          	addi	a2,a2,-132 # 10f7c <lockunlock>
   1112c:	00000593          	li	a1,0
   11130:	01010513          	addi	a0,sp,16
   11134:	04113423          	sd	ra,72(sp)
   11138:	00013c23          	sd	zero,24(sp)
   1113c:	02013023          	sd	zero,32(sp)
   11140:	02013423          	sd	zero,40(sp)
   11144:	02013823          	sd	zero,48(sp)
   11148:	02013c23          	sd	zero,56(sp)
   1114c:	7f00b0ef          	jal	ra,1c93c <__pthread_create>
   11150:	01013503          	ld	a0,16(sp)
   11154:	00810593          	addi	a1,sp,8
   11158:	5b50b0ef          	jal	ra,1cf0c <__pthread_join>
   1115c:	04813083          	ld	ra,72(sp)
   11160:	00000513          	li	a0,0
   11164:	05010113          	addi	sp,sp,80
   11168:	00008067          	ret

000000000001116c <b_regex_compile>:
   1116c:	fa010113          	addi	sp,sp,-96
   11170:	000265b7          	lui	a1,0x26
   11174:	04913423          	sd	s1,72(sp)
   11178:	56058593          	addi	a1,a1,1376 # 26560 <__clzdi2+0x3e8>
   1117c:	00050493          	mv	s1,a0
   11180:	00000513          	li	a0,0
   11184:	04813823          	sd	s0,80(sp)
   11188:	04113c23          	sd	ra,88(sp)
   1118c:	3e800413          	li	s0,1000
   11190:	4ed000ef          	jal	ra,11e7c <setlocale>
   11194:	00100613          	li	a2,1
   11198:	00048593          	mv	a1,s1
   1119c:	00010513          	mv	a0,sp
   111a0:	29d040ef          	jal	ra,15c3c <regcomp>
   111a4:	00010513          	mv	a0,sp
   111a8:	fff40413          	addi	s0,s0,-1
   111ac:	14d040ef          	jal	ra,15af8 <regfree>
   111b0:	fe0412e3          	bnez	s0,11194 <b_regex_compile+0x28>
   111b4:	05813083          	ld	ra,88(sp)
   111b8:	05013403          	ld	s0,80(sp)
   111bc:	04813483          	ld	s1,72(sp)
   111c0:	06010113          	addi	sp,sp,96
   111c4:	00008067          	ret

00000000000111c8 <b_regex_search>:
   111c8:	fffc1337          	lui	t1,0xfffc1
   111cc:	81010113          	addi	sp,sp,-2032
   111d0:	fe030313          	addi	t1,t1,-32 # fffffffffffc0fe0 <__BSS_END__+0xfffffffffff94070>
   111d4:	000265b7          	lui	a1,0x26
   111d8:	7e113423          	sd	ra,2024(sp)
   111dc:	7e813023          	sd	s0,2016(sp)
   111e0:	7c913c23          	sd	s1,2008(sp)
   111e4:	7d213823          	sd	s2,2000(sp)
   111e8:	7d313423          	sd	s3,1992(sp)
   111ec:	00050913          	mv	s2,a0
   111f0:	00610133          	add	sp,sp,t1
   111f4:	56058593          	addi	a1,a1,1376 # 26560 <__clzdi2+0x3e8>
   111f8:	00000513          	li	a0,0
   111fc:	481000ef          	jal	ra,11e7c <setlocale>
   11200:	0003f9b7          	lui	s3,0x3f
   11204:	fffc1437          	lui	s0,0xfffc1
   11208:	7e098793          	addi	a5,s3,2016 # 3f7e0 <__BSS_END__+0x12870>
   1120c:	002787b3          	add	a5,a5,sp
   11210:	86040493          	addi	s1,s0,-1952 # fffffffffffc0860 <__BSS_END__+0xfffffffffff938f0>
   11214:	009784b3          	add	s1,a5,s1
   11218:	0003f637          	lui	a2,0x3f
   1121c:	79e60613          	addi	a2,a2,1950 # 3f79e <__BSS_END__+0x1282e>
   11220:	06100593          	li	a1,97
   11224:	00048513          	mv	a0,s1
   11228:	7780a0ef          	jal	ra,1b9a0 <memset>
   1122c:	7de98713          	addi	a4,s3,2014
   11230:	00270733          	add	a4,a4,sp
   11234:	06200793          	li	a5,98
   11238:	00f70023          	sb	a5,0(a4)
   1123c:	7df98793          	addi	a5,s3,2015
   11240:	002787b3          	add	a5,a5,sp
   11244:	00078023          	sb	zero,0(a5)
   11248:	7e098793          	addi	a5,s3,2016
   1124c:	002787b3          	add	a5,a5,sp
   11250:	82040413          	addi	s0,s0,-2016
   11254:	00878433          	add	s0,a5,s0
   11258:	00090593          	mv	a1,s2
   1125c:	00100613          	li	a2,1
   11260:	00040513          	mv	a0,s0
   11264:	1d9040ef          	jal	ra,15c3c <regcomp>
   11268:	00048593          	mv	a1,s1
   1126c:	00000713          	li	a4,0
   11270:	00000693          	li	a3,0
   11274:	00000613          	li	a2,0
   11278:	00040513          	mv	a0,s0
   1127c:	491050ef          	jal	ra,16f0c <regexec>
   11280:	00040513          	mv	a0,s0
   11284:	075040ef          	jal	ra,15af8 <regfree>
   11288:	0003f337          	lui	t1,0x3f
   1128c:	02030313          	addi	t1,t1,32 # 3f020 <__BSS_END__+0x120b0>
   11290:	00610133          	add	sp,sp,t1
   11294:	7e813083          	ld	ra,2024(sp)
   11298:	7e013403          	ld	s0,2016(sp)
   1129c:	7d813483          	ld	s1,2008(sp)
   112a0:	7d013903          	ld	s2,2000(sp)
   112a4:	7c813983          	ld	s3,1992(sp)
   112a8:	7f010113          	addi	sp,sp,2032
   112ac:	00008067          	ret

00000000000112b0 <b_stdio_putcgetc>:
   112b0:	fe010113          	addi	sp,sp,-32
   112b4:	00813823          	sd	s0,16(sp)
   112b8:	00913423          	sd	s1,8(sp)
   112bc:	00113c23          	sd	ra,24(sp)
   112c0:	01213023          	sd	s2,0(sp)
   112c4:	004c54b7          	lui	s1,0x4c5
   112c8:	439070ef          	jal	ra,18f00 <tmpfile>
   112cc:	00050413          	mv	s0,a0
   112d0:	b4048493          	addi	s1,s1,-1216 # 4c4b40 <__BSS_END__+0x497bd0>
   112d4:	00040593          	mv	a1,s0
   112d8:	07800513          	li	a0,120
   112dc:	fff48493          	addi	s1,s1,-1
   112e0:	285070ef          	jal	ra,18d64 <putc>
   112e4:	fe0498e3          	bnez	s1,112d4 <b_stdio_putcgetc+0x24>
   112e8:	00000613          	li	a2,0
   112ec:	00000593          	li	a1,0
   112f0:	00040513          	mv	a0,s0
   112f4:	004c54b7          	lui	s1,0x4c5
   112f8:	748070ef          	jal	ra,18a40 <__fseeko>
   112fc:	b4048493          	addi	s1,s1,-1216 # 4c4b40 <__BSS_END__+0x497bd0>
   11300:	00040513          	mv	a0,s0
   11304:	08d070ef          	jal	ra,18b90 <getc>
   11308:	fff48493          	addi	s1,s1,-1
   1130c:	00a90933          	add	s2,s2,a0
   11310:	fe0498e3          	bnez	s1,11300 <b_stdio_putcgetc+0x50>
   11314:	00040513          	mv	a0,s0
   11318:	1bc070ef          	jal	ra,184d4 <fclose>
   1131c:	01813083          	ld	ra,24(sp)
   11320:	01013403          	ld	s0,16(sp)
   11324:	00813483          	ld	s1,8(sp)
   11328:	00090513          	mv	a0,s2
   1132c:	00013903          	ld	s2,0(sp)
   11330:	02010113          	addi	sp,sp,32
   11334:	00008067          	ret

0000000000011338 <b_stdio_putcgetc_unlocked>:
   11338:	fe010113          	addi	sp,sp,-32
   1133c:	00813823          	sd	s0,16(sp)
   11340:	00913423          	sd	s1,8(sp)
   11344:	00113c23          	sd	ra,24(sp)
   11348:	01213023          	sd	s2,0(sp)
   1134c:	004c54b7          	lui	s1,0x4c5
   11350:	3b1070ef          	jal	ra,18f00 <tmpfile>
   11354:	00050413          	mv	s0,a0
   11358:	b4048493          	addi	s1,s1,-1216 # 4c4b40 <__BSS_END__+0x497bd0>
   1135c:	00040593          	mv	a1,s0
   11360:	07800513          	li	a0,120
   11364:	fff48493          	addi	s1,s1,-1
   11368:	265070ef          	jal	ra,18dcc <putc_unlocked>
   1136c:	fe0498e3          	bnez	s1,1135c <b_stdio_putcgetc_unlocked+0x24>
   11370:	00000613          	li	a2,0
   11374:	00000593          	li	a1,0
   11378:	00040513          	mv	a0,s0
   1137c:	004c54b7          	lui	s1,0x4c5
   11380:	6c0070ef          	jal	ra,18a40 <__fseeko>
   11384:	b4048493          	addi	s1,s1,-1216 # 4c4b40 <__BSS_END__+0x497bd0>
   11388:	00040513          	mv	a0,s0
   1138c:	051070ef          	jal	ra,18bdc <getc_unlocked>
   11390:	fff48493          	addi	s1,s1,-1
   11394:	00a90933          	add	s2,s2,a0
   11398:	fe0498e3          	bnez	s1,11388 <b_stdio_putcgetc_unlocked+0x50>
   1139c:	00040513          	mv	a0,s0
   113a0:	134070ef          	jal	ra,184d4 <fclose>
   113a4:	01813083          	ld	ra,24(sp)
   113a8:	01013403          	ld	s0,16(sp)
   113ac:	00813483          	ld	s1,8(sp)
   113b0:	00090513          	mv	a0,s2
   113b4:	00013903          	ld	s2,0(sp)
   113b8:	02010113          	addi	sp,sp,32
   113bc:	00008067          	ret

00000000000113c0 <b_string_strstr>:
   113c0:	fc010113          	addi	sp,sp,-64
   113c4:	02113c23          	sd	ra,56(sp)
   113c8:	02813823          	sd	s0,48(sp)
   113cc:	02913423          	sd	s1,40(sp)
   113d0:	03213023          	sd	s2,32(sp)
   113d4:	01313c23          	sd	s3,24(sp)
   113d8:	01413823          	sd	s4,16(sp)
   113dc:	01513423          	sd	s5,8(sp)
   113e0:	00002437          	lui	s0,0x2
   113e4:	00050993          	mv	s3,a0
   113e8:	7ac0a0ef          	jal	ra,1bb94 <strlen>
   113ec:	00050493          	mv	s1,a0
   113f0:	71040513          	addi	a0,s0,1808 # 2710 <exit-0xda10>
   113f4:	02a48533          	mul	a0,s1,a0
   113f8:	70f40413          	addi	s0,s0,1807
   113fc:	00150513          	addi	a0,a0,1
   11400:	494010ef          	jal	ra,12894 <malloc>
   11404:	00950ab3          	add	s5,a0,s1
   11408:	00050913          	mv	s2,a0
   1140c:	000a8a13          	mv	s4,s5
   11410:	409a0533          	sub	a0,s4,s1
   11414:	00048613          	mv	a2,s1
   11418:	00098593          	mv	a1,s3
   1141c:	1400a0ef          	jal	ra,1b55c <memcpy>
   11420:	fffa4783          	lbu	a5,-1(s4) # 2fff <exit-0xd121>
   11424:	fff40413          	addi	s0,s0,-1
   11428:	0017c793          	xori	a5,a5,1
   1142c:	fefa0fa3          	sb	a5,-1(s4)
   11430:	009a0a33          	add	s4,s4,s1
   11434:	fc041ee3          	bnez	s0,11410 <b_string_strstr+0x50>
   11438:	00002537          	lui	a0,0x2
   1143c:	70e50513          	addi	a0,a0,1806 # 270e <exit-0xda12>
   11440:	02a48533          	mul	a0,s1,a0
   11444:	00148613          	addi	a2,s1,1
   11448:	00098593          	mv	a1,s3
   1144c:	03200493          	li	s1,50
   11450:	00aa8533          	add	a0,s5,a0
   11454:	1080a0ef          	jal	ra,1b55c <memcpy>
   11458:	00094783          	lbu	a5,0(s2)
   1145c:	00098593          	mv	a1,s3
   11460:	00090513          	mv	a0,s2
   11464:	0017c793          	xori	a5,a5,1
   11468:	00f90023          	sb	a5,0(s2)
   1146c:	3350a0ef          	jal	ra,1bfa0 <strstr>
   11470:	0005051b          	sext.w	a0,a0
   11474:	fff48493          	addi	s1,s1,-1
   11478:	00a40433          	add	s0,s0,a0
   1147c:	fc049ee3          	bnez	s1,11458 <b_string_strstr+0x98>
   11480:	00090513          	mv	a0,s2
   11484:	7f8010ef          	jal	ra,12c7c <free>
   11488:	03813083          	ld	ra,56(sp)
   1148c:	00040513          	mv	a0,s0
   11490:	03013403          	ld	s0,48(sp)
   11494:	02813483          	ld	s1,40(sp)
   11498:	02013903          	ld	s2,32(sp)
   1149c:	01813983          	ld	s3,24(sp)
   114a0:	01013a03          	ld	s4,16(sp)
   114a4:	00813a83          	ld	s5,8(sp)
   114a8:	04010113          	addi	sp,sp,64
   114ac:	00008067          	ret

00000000000114b0 <b_string_memset>:
   114b0:	fd010113          	addi	sp,sp,-48
   114b4:	01213823          	sd	s2,16(sp)
   114b8:	0007a937          	lui	s2,0x7a
   114bc:	12090513          	addi	a0,s2,288 # 7a120 <__BSS_END__+0x4d1b0>
   114c0:	02813023          	sd	s0,32(sp)
   114c4:	00913c23          	sd	s1,24(sp)
   114c8:	01313423          	sd	s3,8(sp)
   114cc:	02113423          	sd	ra,40(sp)
   114d0:	3c4010ef          	jal	ra,12894 <malloc>
   114d4:	00050493          	mv	s1,a0
   114d8:	00000413          	li	s0,0
   114dc:	12090913          	addi	s2,s2,288
   114e0:	06400993          	li	s3,100
   114e4:	40890633          	sub	a2,s2,s0
   114e8:	0004059b          	sext.w	a1,s0
   114ec:	00848533          	add	a0,s1,s0
   114f0:	00140413          	addi	s0,s0,1
   114f4:	4ac0a0ef          	jal	ra,1b9a0 <memset>
   114f8:	ff3416e3          	bne	s0,s3,114e4 <b_string_memset+0x34>
   114fc:	00048513          	mv	a0,s1
   11500:	77c010ef          	jal	ra,12c7c <free>
   11504:	02813083          	ld	ra,40(sp)
   11508:	02013403          	ld	s0,32(sp)
   1150c:	01813483          	ld	s1,24(sp)
   11510:	01013903          	ld	s2,16(sp)
   11514:	00813983          	ld	s3,8(sp)
   11518:	00000513          	li	a0,0
   1151c:	03010113          	addi	sp,sp,48
   11520:	00008067          	ret

0000000000011524 <b_string_strchr>:
   11524:	fd010113          	addi	sp,sp,-48
   11528:	00913c23          	sd	s1,24(sp)
   1152c:	0007a4b7          	lui	s1,0x7a
   11530:	12048513          	addi	a0,s1,288 # 7a120 <__BSS_END__+0x4d1b0>
   11534:	02113423          	sd	ra,40(sp)
   11538:	02813023          	sd	s0,32(sp)
   1153c:	01213823          	sd	s2,16(sp)
   11540:	01313423          	sd	s3,8(sp)
   11544:	350010ef          	jal	ra,12894 <malloc>
   11548:	12048613          	addi	a2,s1,288
   1154c:	06100593          	li	a1,97
   11550:	00050413          	mv	s0,a0
   11554:	44c0a0ef          	jal	ra,1b9a0 <memset>
   11558:	009404b3          	add	s1,s0,s1
   1155c:	06200793          	li	a5,98
   11560:	10f49f23          	sh	a5,286(s1)
   11564:	00000913          	li	s2,0
   11568:	00000493          	li	s1,0
   1156c:	06400993          	li	s3,100
   11570:	0074f793          	andi	a5,s1,7
   11574:	00940733          	add	a4,s0,s1
   11578:	0307879b          	addiw	a5,a5,48
   1157c:	00f70023          	sb	a5,0(a4)
   11580:	06200593          	li	a1,98
   11584:	00040513          	mv	a0,s0
   11588:	5100a0ef          	jal	ra,1ba98 <strchr>
   1158c:	0005051b          	sext.w	a0,a0
   11590:	00148493          	addi	s1,s1,1
   11594:	00a90933          	add	s2,s2,a0
   11598:	fd349ce3          	bne	s1,s3,11570 <b_string_strchr+0x4c>
   1159c:	00040513          	mv	a0,s0
   115a0:	6dc010ef          	jal	ra,12c7c <free>
   115a4:	02813083          	ld	ra,40(sp)
   115a8:	02013403          	ld	s0,32(sp)
   115ac:	01813483          	ld	s1,24(sp)
   115b0:	00813983          	ld	s3,8(sp)
   115b4:	00090513          	mv	a0,s2
   115b8:	01013903          	ld	s2,16(sp)
   115bc:	03010113          	addi	sp,sp,48
   115c0:	00008067          	ret

00000000000115c4 <b_string_strlen>:
   115c4:	fd010113          	addi	sp,sp,-48
   115c8:	00913c23          	sd	s1,24(sp)
   115cc:	0007a4b7          	lui	s1,0x7a
   115d0:	12048513          	addi	a0,s1,288 # 7a120 <__BSS_END__+0x4d1b0>
   115d4:	02113423          	sd	ra,40(sp)
   115d8:	02813023          	sd	s0,32(sp)
   115dc:	01213823          	sd	s2,16(sp)
   115e0:	01313423          	sd	s3,8(sp)
   115e4:	2b0010ef          	jal	ra,12894 <malloc>
   115e8:	00050413          	mv	s0,a0
   115ec:	11f48613          	addi	a2,s1,287
   115f0:	06100593          	li	a1,97
   115f4:	009404b3          	add	s1,s0,s1
   115f8:	3a80a0ef          	jal	ra,1b9a0 <memset>
   115fc:	00000913          	li	s2,0
   11600:	10048fa3          	sb	zero,287(s1)
   11604:	06400993          	li	s3,100
   11608:	00000493          	li	s1,0
   1160c:	0074f793          	andi	a5,s1,7
   11610:	00940733          	add	a4,s0,s1
   11614:	0307879b          	addiw	a5,a5,48
   11618:	00f70023          	sb	a5,0(a4)
   1161c:	00040513          	mv	a0,s0
   11620:	5740a0ef          	jal	ra,1bb94 <strlen>
   11624:	00148493          	addi	s1,s1,1
   11628:	00a90933          	add	s2,s2,a0
   1162c:	ff3490e3          	bne	s1,s3,1160c <b_string_strlen+0x48>
   11630:	00040513          	mv	a0,s0
   11634:	648010ef          	jal	ra,12c7c <free>
   11638:	02813083          	ld	ra,40(sp)
   1163c:	02013403          	ld	s0,32(sp)
   11640:	01813483          	ld	s1,24(sp)
   11644:	00813983          	ld	s3,8(sp)
   11648:	00090513          	mv	a0,s2
   1164c:	01013903          	ld	s2,16(sp)
   11650:	03010113          	addi	sp,sp,48
   11654:	00008067          	ret

0000000000011658 <b_utf8_bigbuf>:
   11658:	000265b7          	lui	a1,0x26
   1165c:	fd010113          	addi	sp,sp,-48
   11660:	6b058593          	addi	a1,a1,1712 # 266b0 <__clzdi2+0x538>
   11664:	00000513          	li	a0,0
   11668:	02113423          	sd	ra,40(sp)
   1166c:	02813023          	sd	s0,32(sp)
   11670:	00913c23          	sd	s1,24(sp)
   11674:	01213823          	sd	s2,16(sp)
   11678:	01313423          	sd	s3,8(sp)
   1167c:	001000ef          	jal	ra,11e7c <setlocale>
   11680:	04051863          	bnez	a0,116d0 <b_utf8_bigbuf+0x78>
   11684:	000265b7          	lui	a1,0x26
   11688:	6b858593          	addi	a1,a1,1720 # 266b8 <__clzdi2+0x540>
   1168c:	7f0000ef          	jal	ra,11e7c <setlocale>
   11690:	04051063          	bnez	a0,116d0 <b_utf8_bigbuf+0x78>
   11694:	000265b7          	lui	a1,0x26
   11698:	6c858593          	addi	a1,a1,1736 # 266c8 <__clzdi2+0x550>
   1169c:	7e0000ef          	jal	ra,11e7c <setlocale>
   116a0:	02051863          	bnez	a0,116d0 <b_utf8_bigbuf+0x78>
   116a4:	000265b7          	lui	a1,0x26
   116a8:	6d858593          	addi	a1,a1,1752 # 266d8 <__clzdi2+0x560>
   116ac:	7d0000ef          	jal	ra,11e7c <setlocale>
   116b0:	02051063          	bnez	a0,116d0 <b_utf8_bigbuf+0x78>
   116b4:	000265b7          	lui	a1,0x26
   116b8:	6e858593          	addi	a1,a1,1768 # 266e8 <__clzdi2+0x570>
   116bc:	7c0000ef          	jal	ra,11e7c <setlocale>
   116c0:	00051863          	bnez	a0,116d0 <b_utf8_bigbuf+0x78>
   116c4:	000265b7          	lui	a1,0x26
   116c8:	6f058593          	addi	a1,a1,1776 # 266f0 <__clzdi2+0x578>
   116cc:	7b0000ef          	jal	ra,11e7c <setlocale>
   116d0:	00e00513          	li	a0,14
   116d4:	79c000ef          	jal	ra,11e70 <__nl_langinfo>
   116d8:	000265b7          	lui	a1,0x26
   116dc:	6f858593          	addi	a1,a1,1784 # 266f8 <__clzdi2+0x580>
   116e0:	4900a0ef          	jal	ra,1bb70 <strcmp>
   116e4:	16051263          	bnez	a0,11848 <b_utf8_bigbuf+0x1f0>
   116e8:	0007a537          	lui	a0,0x7a
   116ec:	12050513          	addi	a0,a0,288 # 7a120 <__BSS_END__+0x4d1b0>
   116f0:	1a4010ef          	jal	ra,12894 <malloc>
   116f4:	00050413          	mv	s0,a0
   116f8:	001e8537          	lui	a0,0x1e8
   116fc:	48050513          	addi	a0,a0,1152 # 1e8480 <__BSS_END__+0x1bb510>
   11700:	194010ef          	jal	ra,12894 <malloc>
   11704:	000015b7          	lui	a1,0x1
   11708:	00050493          	mv	s1,a0
   1170c:	00000693          	li	a3,0
   11710:	0c300613          	li	a2,195
   11714:	0c000513          	li	a0,192
   11718:	e8058593          	addi	a1,a1,-384 # e80 <exit-0xf2a0>
   1171c:	00d40733          	add	a4,s0,a3
   11720:	08000793          	li	a5,128
   11724:	00f700a3          	sb	a5,1(a4)
   11728:	00c70023          	sb	a2,0(a4)
   1172c:	00178793          	addi	a5,a5,1
   11730:	00270713          	addi	a4,a4,2
   11734:	fea798e3          	bne	a5,a0,11724 <b_utf8_bigbuf+0xcc>
   11738:	08068693          	addi	a3,a3,128
   1173c:	00160613          	addi	a2,a2,1
   11740:	fcb69ee3          	bne	a3,a1,1171c <b_utf8_bigbuf+0xc4>
   11744:	ffd5e537          	lui	a0,0xffd5e
   11748:	0e100713          	li	a4,225
   1174c:	00003837          	lui	a6,0x3
   11750:	e8050513          	addi	a0,a0,-384 # ffffffffffd5de80 <__BSS_END__+0xffffffffffd30f10>
   11754:	0c000893          	li	a7,192
   11758:	0ed00313          	li	t1,237
   1175c:	030707b3          	mul	a5,a4,a6
   11760:	08000593          	li	a1,128
   11764:	00a787b3          	add	a5,a5,a0
   11768:	0280006f          	j	11790 <b_utf8_bigbuf+0x138>
   1176c:	00d60123          	sb	a3,2(a2)
   11770:	00e60023          	sb	a4,0(a2)
   11774:	00b600a3          	sb	a1,1(a2)
   11778:	00168693          	addi	a3,a3,1
   1177c:	00360613          	addi	a2,a2,3
   11780:	ff1696e3          	bne	a3,a7,1176c <b_utf8_bigbuf+0x114>
   11784:	00158593          	addi	a1,a1,1
   11788:	0c078793          	addi	a5,a5,192
   1178c:	00d58863          	beq	a1,a3,1179c <b_utf8_bigbuf+0x144>
   11790:	00f40633          	add	a2,s0,a5
   11794:	08000693          	li	a3,128
   11798:	fd5ff06f          	j	1176c <b_utf8_bigbuf+0x114>
   1179c:	00170713          	addi	a4,a4,1
   117a0:	fa671ee3          	bne	a4,t1,1175c <b_utf8_bigbuf+0x104>
   117a4:	ffc61537          	lui	a0,0xffc61
   117a8:	0f100693          	li	a3,241
   117ac:	e8050513          	addi	a0,a0,-384 # ffffffffffc60e80 <__BSS_END__+0xffffffffffc33f10>
   117b0:	f8000813          	li	a6,-128
   117b4:	0c000893          	li	a7,192
   117b8:	0f400313          	li	t1,244
   117bc:	00e69713          	slli	a4,a3,0xe
   117c0:	00a70733          	add	a4,a4,a0
   117c4:	08000593          	li	a1,128
   117c8:	02c0006f          	j	117f4 <b_utf8_bigbuf+0x19c>
   117cc:	00c781a3          	sb	a2,3(a5)
   117d0:	00d78023          	sb	a3,0(a5)
   117d4:	00b780a3          	sb	a1,1(a5)
   117d8:	01078123          	sb	a6,2(a5)
   117dc:	00160613          	addi	a2,a2,1
   117e0:	00478793          	addi	a5,a5,4
   117e4:	ff1614e3          	bne	a2,a7,117cc <b_utf8_bigbuf+0x174>
   117e8:	00158593          	addi	a1,a1,1
   117ec:	10070713          	addi	a4,a4,256
   117f0:	00c58863          	beq	a1,a2,11800 <b_utf8_bigbuf+0x1a8>
   117f4:	00e407b3          	add	a5,s0,a4
   117f8:	08000613          	li	a2,128
   117fc:	fd1ff06f          	j	117cc <b_utf8_bigbuf+0x174>
   11800:	00168693          	addi	a3,a3,1
   11804:	fa669ce3          	bne	a3,t1,117bc <b_utf8_bigbuf+0x164>
   11808:	000317b7          	lui	a5,0x31
   1180c:	00f407b3          	add	a5,s0,a5
   11810:	0007a9b7          	lui	s3,0x7a
   11814:	e8078023          	sb	zero,-384(a5) # 30e80 <__BSS_END__+0x3f10>
   11818:	03200913          	li	s2,50
   1181c:	12098993          	addi	s3,s3,288 # 7a120 <__BSS_END__+0x4d1b0>
   11820:	00098613          	mv	a2,s3
   11824:	00040593          	mv	a1,s0
   11828:	00048513          	mv	a0,s1
   1182c:	fff90913          	addi	s2,s2,-1
   11830:	1ad010ef          	jal	ra,131dc <mbstowcs>
   11834:	fe0916e3          	bnez	s2,11820 <b_utf8_bigbuf+0x1c8>
   11838:	00048513          	mv	a0,s1
   1183c:	440010ef          	jal	ra,12c7c <free>
   11840:	00040513          	mv	a0,s0
   11844:	438010ef          	jal	ra,12c7c <free>
   11848:	02813083          	ld	ra,40(sp)
   1184c:	02013403          	ld	s0,32(sp)
   11850:	01813483          	ld	s1,24(sp)
   11854:	01013903          	ld	s2,16(sp)
   11858:	00813983          	ld	s3,8(sp)
   1185c:	fff00513          	li	a0,-1
   11860:	03010113          	addi	sp,sp,48
   11864:	00008067          	ret

0000000000011868 <b_utf8_onebyone>:
   11868:	000265b7          	lui	a1,0x26
   1186c:	fd010113          	addi	sp,sp,-48
   11870:	6b058593          	addi	a1,a1,1712 # 266b0 <__clzdi2+0x538>
   11874:	00000513          	li	a0,0
   11878:	02113423          	sd	ra,40(sp)
   1187c:	02813023          	sd	s0,32(sp)
   11880:	00913c23          	sd	s1,24(sp)
   11884:	01213823          	sd	s2,16(sp)
   11888:	00013423          	sd	zero,8(sp)
   1188c:	5f0000ef          	jal	ra,11e7c <setlocale>
   11890:	04051863          	bnez	a0,118e0 <b_utf8_onebyone+0x78>
   11894:	000265b7          	lui	a1,0x26
   11898:	6b858593          	addi	a1,a1,1720 # 266b8 <__clzdi2+0x540>
   1189c:	5e0000ef          	jal	ra,11e7c <setlocale>
   118a0:	04051063          	bnez	a0,118e0 <b_utf8_onebyone+0x78>
   118a4:	000265b7          	lui	a1,0x26
   118a8:	6c858593          	addi	a1,a1,1736 # 266c8 <__clzdi2+0x550>
   118ac:	5d0000ef          	jal	ra,11e7c <setlocale>
   118b0:	02051863          	bnez	a0,118e0 <b_utf8_onebyone+0x78>
   118b4:	000265b7          	lui	a1,0x26
   118b8:	6d858593          	addi	a1,a1,1752 # 266d8 <__clzdi2+0x560>
   118bc:	5c0000ef          	jal	ra,11e7c <setlocale>
   118c0:	02051063          	bnez	a0,118e0 <b_utf8_onebyone+0x78>
   118c4:	000265b7          	lui	a1,0x26
   118c8:	6e858593          	addi	a1,a1,1768 # 266e8 <__clzdi2+0x570>
   118cc:	5b0000ef          	jal	ra,11e7c <setlocale>
   118d0:	00051863          	bnez	a0,118e0 <b_utf8_onebyone+0x78>
   118d4:	000265b7          	lui	a1,0x26
   118d8:	6f058593          	addi	a1,a1,1776 # 266f0 <__clzdi2+0x578>
   118dc:	5a0000ef          	jal	ra,11e7c <setlocale>
   118e0:	00e00513          	li	a0,14
   118e4:	58c000ef          	jal	ra,11e70 <__nl_langinfo>
   118e8:	000265b7          	lui	a1,0x26
   118ec:	6f858593          	addi	a1,a1,1784 # 266f8 <__clzdi2+0x580>
   118f0:	2800a0ef          	jal	ra,1bb70 <strcmp>
   118f4:	14051e63          	bnez	a0,11a50 <b_utf8_onebyone+0x1e8>
   118f8:	0007a537          	lui	a0,0x7a
   118fc:	12050513          	addi	a0,a0,288 # 7a120 <__BSS_END__+0x4d1b0>
   11900:	795000ef          	jal	ra,12894 <malloc>
   11904:	000015b7          	lui	a1,0x1
   11908:	00050413          	mv	s0,a0
   1190c:	00000693          	li	a3,0
   11910:	0c300613          	li	a2,195
   11914:	0c000513          	li	a0,192
   11918:	e8058593          	addi	a1,a1,-384 # e80 <exit-0xf2a0>
   1191c:	00d40733          	add	a4,s0,a3
   11920:	08000793          	li	a5,128
   11924:	00f700a3          	sb	a5,1(a4)
   11928:	00c70023          	sb	a2,0(a4)
   1192c:	00178793          	addi	a5,a5,1
   11930:	00270713          	addi	a4,a4,2
   11934:	fea798e3          	bne	a5,a0,11924 <b_utf8_onebyone+0xbc>
   11938:	08068693          	addi	a3,a3,128
   1193c:	00160613          	addi	a2,a2,1
   11940:	fcb69ee3          	bne	a3,a1,1191c <b_utf8_onebyone+0xb4>
   11944:	ffd5e537          	lui	a0,0xffd5e
   11948:	0e100713          	li	a4,225
   1194c:	00003837          	lui	a6,0x3
   11950:	e8050513          	addi	a0,a0,-384 # ffffffffffd5de80 <__BSS_END__+0xffffffffffd30f10>
   11954:	0c000893          	li	a7,192
   11958:	0ed00313          	li	t1,237
   1195c:	030707b3          	mul	a5,a4,a6
   11960:	08000593          	li	a1,128
   11964:	00a787b3          	add	a5,a5,a0
   11968:	0280006f          	j	11990 <b_utf8_onebyone+0x128>
   1196c:	00d60123          	sb	a3,2(a2)
   11970:	00e60023          	sb	a4,0(a2)
   11974:	00b600a3          	sb	a1,1(a2)
   11978:	00168693          	addi	a3,a3,1
   1197c:	00360613          	addi	a2,a2,3
   11980:	ff1696e3          	bne	a3,a7,1196c <b_utf8_onebyone+0x104>
   11984:	00158593          	addi	a1,a1,1
   11988:	0c078793          	addi	a5,a5,192
   1198c:	00d58863          	beq	a1,a3,1199c <b_utf8_onebyone+0x134>
   11990:	00f40633          	add	a2,s0,a5
   11994:	08000693          	li	a3,128
   11998:	fd5ff06f          	j	1196c <b_utf8_onebyone+0x104>
   1199c:	00170713          	addi	a4,a4,1
   119a0:	fa671ee3          	bne	a4,t1,1195c <b_utf8_onebyone+0xf4>
   119a4:	ffc61537          	lui	a0,0xffc61
   119a8:	0f100693          	li	a3,241
   119ac:	e8050513          	addi	a0,a0,-384 # ffffffffffc60e80 <__BSS_END__+0xffffffffffc33f10>
   119b0:	f8000813          	li	a6,-128
   119b4:	0c000893          	li	a7,192
   119b8:	0f400313          	li	t1,244
   119bc:	00e69713          	slli	a4,a3,0xe
   119c0:	00a70733          	add	a4,a4,a0
   119c4:	08000593          	li	a1,128
   119c8:	02c0006f          	j	119f4 <b_utf8_onebyone+0x18c>
   119cc:	00c781a3          	sb	a2,3(a5)
   119d0:	00d78023          	sb	a3,0(a5)
   119d4:	00b780a3          	sb	a1,1(a5)
   119d8:	01078123          	sb	a6,2(a5)
   119dc:	00160613          	addi	a2,a2,1
   119e0:	00478793          	addi	a5,a5,4
   119e4:	ff1614e3          	bne	a2,a7,119cc <b_utf8_onebyone+0x164>
   119e8:	00158593          	addi	a1,a1,1
   119ec:	10070713          	addi	a4,a4,256
   119f0:	00c58863          	beq	a1,a2,11a00 <b_utf8_onebyone+0x198>
   119f4:	00e407b3          	add	a5,s0,a4
   119f8:	08000613          	li	a2,128
   119fc:	fd1ff06f          	j	119cc <b_utf8_onebyone+0x164>
   11a00:	00168693          	addi	a3,a3,1
   11a04:	fa669ce3          	bne	a3,t1,119bc <b_utf8_onebyone+0x154>
   11a08:	000317b7          	lui	a5,0x31
   11a0c:	00f407b3          	add	a5,s0,a5
   11a10:	e8078023          	sb	zero,-384(a5) # 30e80 <__BSS_END__+0x3f10>
   11a14:	03200913          	li	s2,50
   11a18:	00000493          	li	s1,0
   11a1c:	0180006f          	j	11a34 <b_utf8_onebyone+0x1cc>
   11a20:	00810693          	addi	a3,sp,8
   11a24:	00400613          	li	a2,4
   11a28:	00410513          	addi	a0,sp,4
   11a2c:	658010ef          	jal	ra,13084 <mbrtowc>
   11a30:	00a484b3          	add	s1,s1,a0
   11a34:	009405b3          	add	a1,s0,s1
   11a38:	0005c783          	lbu	a5,0(a1)
   11a3c:	fe0792e3          	bnez	a5,11a20 <b_utf8_onebyone+0x1b8>
   11a40:	fff90913          	addi	s2,s2,-1
   11a44:	fc091ae3          	bnez	s2,11a18 <b_utf8_onebyone+0x1b0>
   11a48:	00040513          	mv	a0,s0
   11a4c:	230010ef          	jal	ra,12c7c <free>
   11a50:	02813083          	ld	ra,40(sp)
   11a54:	02013403          	ld	s0,32(sp)
   11a58:	01813483          	ld	s1,24(sp)
   11a5c:	01013903          	ld	s2,16(sp)
   11a60:	fff00513          	li	a0,-1
   11a64:	03010113          	addi	sp,sp,48
   11a68:	00008067          	ret

0000000000011a6c <_init>:
   11a6c:	00008067          	ret

0000000000011a70 <__init_ssp>:
   11a70:	00008067          	ret

0000000000011a74 <__init_libc>:
   11a74:	e8010113          	addi	sp,sp,-384
   11a78:	17213023          	sd	s2,352(sp)
   11a7c:	03010913          	addi	s2,sp,48
   11a80:	16813823          	sd	s0,368(sp)
   11a84:	16913423          	sd	s1,360(sp)
   11a88:	00058413          	mv	s0,a1
   11a8c:	00050493          	mv	s1,a0
   11a90:	13000613          	li	a2,304
   11a94:	00000593          	li	a1,0
   11a98:	00090513          	mv	a0,s2
   11a9c:	16113c23          	sd	ra,376(sp)
   11aa0:	701090ef          	jal	ra,1b9a0 <memset>
   11aa4:	a491b823          	sd	s1,-1456(gp) # 2c250 <__environ>
   11aa8:	00000513          	li	a0,0
   11aac:	00351793          	slli	a5,a0,0x3
   11ab0:	00f487b3          	add	a5,s1,a5
   11ab4:	0007b783          	ld	a5,0(a5)
   11ab8:	00150513          	addi	a0,a0,1
   11abc:	fe0798e3          	bnez	a5,11aac <__init_libc+0x38>
   11ac0:	00351513          	slli	a0,a0,0x3
   11ac4:	00a48533          	add	a0,s1,a0
   11ac8:	ac018793          	addi	a5,gp,-1344 # 2c2c0 <__libc>
   11acc:	00a7b823          	sd	a0,16(a5)
   11ad0:	ac018493          	addi	s1,gp,-1344 # 2c2c0 <__libc>
   11ad4:	02500713          	li	a4,37
   11ad8:	00053783          	ld	a5,0(a0)
   11adc:	0e079e63          	bnez	a5,11bd8 <__init_libc+0x164>
   11ae0:	0b013703          	ld	a4,176(sp)
   11ae4:	9ce1b023          	sd	a4,-1600(gp) # 2c1c0 <__hwcap>
   11ae8:	13013783          	ld	a5,304(sp)
   11aec:	00078463          	beqz	a5,11af4 <__init_libc+0x80>
   11af0:	9af1bc23          	sd	a5,-1608(gp) # 2c1b8 <__sysinfo>
   11af4:	06013783          	ld	a5,96(sp)
   11af8:	02f4bc23          	sd	a5,56(s1)
   11afc:	00041a63          	bnez	s0,11b10 <__init_libc+0x9c>
   11b00:	12813403          	ld	s0,296(sp)
   11b04:	00041663          	bnez	s0,11b10 <__init_libc+0x9c>
   11b08:	00026437          	lui	s0,0x26
   11b0c:	56040413          	addi	s0,s0,1376 # 26560 <__clzdi2+0x3e8>
   11b10:	9c81b823          	sd	s0,-1584(gp) # 2c1d0 <__progname_full>
   11b14:	9c81b423          	sd	s0,-1592(gp) # 2c1c8 <__progname>
   11b18:	02f00693          	li	a3,47
   11b1c:	00140413          	addi	s0,s0,1
   11b20:	fff44703          	lbu	a4,-1(s0)
   11b24:	0c071a63          	bnez	a4,11bf8 <__init_libc+0x184>
   11b28:	00090513          	mv	a0,s2
   11b2c:	3080c0ef          	jal	ra,1de34 <__init_tls>
   11b30:	0f813503          	ld	a0,248(sp)
   11b34:	f3dff0ef          	jal	ra,11a70 <__init_ssp>
   11b38:	08813703          	ld	a4,136(sp)
   11b3c:	09013783          	ld	a5,144(sp)
   11b40:	00f71c63          	bne	a4,a5,11b58 <__init_libc+0xe4>
   11b44:	09813703          	ld	a4,152(sp)
   11b48:	0a013783          	ld	a5,160(sp)
   11b4c:	00f71663          	bne	a4,a5,11b58 <__init_libc+0xe4>
   11b50:	0e813783          	ld	a5,232(sp)
   11b54:	0c078263          	beqz	a5,11c18 <__init_libc+0x1a4>
   11b58:	02013023          	sd	zero,32(sp)
   11b5c:	00100793          	li	a5,1
   11b60:	02013423          	sd	zero,40(sp)
   11b64:	02f12023          	sw	a5,32(sp)
   11b68:	00200793          	li	a5,2
   11b6c:	00013c23          	sd	zero,24(sp)
   11b70:	02f12423          	sw	a5,40(sp)
   11b74:	00013423          	sd	zero,8(sp)
   11b78:	00013823          	sd	zero,16(sp)
   11b7c:	04900893          	li	a7,73
   11b80:	01810513          	addi	a0,sp,24
   11b84:	00300593          	li	a1,3
   11b88:	00810613          	addi	a2,sp,8
   11b8c:	00000693          	li	a3,0
   11b90:	00800713          	li	a4,8
   11b94:	00000073          	ecall
   11b98:	0005051b          	sext.w	a0,a0
   11b9c:	01810793          	addi	a5,sp,24
   11ba0:	02054863          	bltz	a0,11bd0 <__init_libc+0x15c>
   11ba4:	00008637          	lui	a2,0x8
   11ba8:	000266b7          	lui	a3,0x26
   11bac:	00260613          	addi	a2,a2,2 # 8002 <exit-0x811e>
   11bb0:	0067d703          	lhu	a4,6(a5)
   11bb4:	02077713          	andi	a4,a4,32
   11bb8:	04070863          	beqz	a4,11c08 <__init_libc+0x194>
   11bbc:	03800893          	li	a7,56
   11bc0:	f9c00513          	li	a0,-100
   11bc4:	70068593          	addi	a1,a3,1792 # 26700 <__clzdi2+0x588>
   11bc8:	00000073          	ecall
   11bcc:	02055e63          	bgez	a0,11c08 <__init_libc+0x194>
   11bd0:	00000023          	sb	zero,0(zero) # 0 <exit-0x10120>
   11bd4:	00100073          	ebreak
   11bd8:	00f76c63          	bltu	a4,a5,11bf0 <__init_libc+0x17c>
   11bdc:	16010693          	addi	a3,sp,352
   11be0:	00379793          	slli	a5,a5,0x3
   11be4:	00f687b3          	add	a5,a3,a5
   11be8:	00853683          	ld	a3,8(a0)
   11bec:	ecd7b823          	sd	a3,-304(a5)
   11bf0:	01050513          	addi	a0,a0,16
   11bf4:	ee5ff06f          	j	11ad8 <__init_libc+0x64>
   11bf8:	00d71463          	bne	a4,a3,11c00 <__init_libc+0x18c>
   11bfc:	9c81b423          	sd	s0,-1592(gp) # 2c1c8 <__progname>
   11c00:	00140413          	addi	s0,s0,1
   11c04:	f1dff06f          	j	11b20 <__init_libc+0xac>
   11c08:	00878793          	addi	a5,a5,8
   11c0c:	faf912e3          	bne	s2,a5,11bb0 <__init_libc+0x13c>
   11c10:	00100793          	li	a5,1
   11c14:	00f4a423          	sw	a5,8(s1)
   11c18:	17813083          	ld	ra,376(sp)
   11c1c:	17013403          	ld	s0,368(sp)
   11c20:	16813483          	ld	s1,360(sp)
   11c24:	16013903          	ld	s2,352(sp)
   11c28:	18010113          	addi	sp,sp,384
   11c2c:	00008067          	ret

0000000000011c30 <__libc_start_init>:
   11c30:	fe010113          	addi	sp,sp,-32
   11c34:	00813823          	sd	s0,16(sp)
   11c38:	00913423          	sd	s1,8(sp)
   11c3c:	0002c437          	lui	s0,0x2c
   11c40:	0002c4b7          	lui	s1,0x2c
   11c44:	00113c23          	sd	ra,24(sp)
   11c48:	ff040413          	addi	s0,s0,-16 # 2bff0 <__frame_dummy_init_array_entry>
   11c4c:	e21ff0ef          	jal	ra,11a6c <_init>
   11c50:	ff848493          	addi	s1,s1,-8 # 2bff8 <__do_global_dtors_aux_fini_array_entry>
   11c54:	00946c63          	bltu	s0,s1,11c6c <__libc_start_init+0x3c>
   11c58:	01813083          	ld	ra,24(sp)
   11c5c:	01013403          	ld	s0,16(sp)
   11c60:	00813483          	ld	s1,8(sp)
   11c64:	02010113          	addi	sp,sp,32
   11c68:	00008067          	ret
   11c6c:	00043783          	ld	a5,0(s0)
   11c70:	00840413          	addi	s0,s0,8
   11c74:	000780e7          	jalr	a5
   11c78:	fddff06f          	j	11c54 <__libc_start_init+0x24>

0000000000011c7c <libc_start_main_stage2>:
   11c7c:	fd010113          	addi	sp,sp,-48
   11c80:	02813023          	sd	s0,32(sp)
   11c84:	00158413          	addi	s0,a1,1
   11c88:	00341413          	slli	s0,s0,0x3
   11c8c:	02113423          	sd	ra,40(sp)
   11c90:	00913c23          	sd	s1,24(sp)
   11c94:	01213823          	sd	s2,16(sp)
   11c98:	00058493          	mv	s1,a1
   11c9c:	00050913          	mv	s2,a0
   11ca0:	00860433          	add	s0,a2,s0
   11ca4:	00c13423          	sd	a2,8(sp)
   11ca8:	f89ff0ef          	jal	ra,11c30 <__libc_start_init>
   11cac:	00813583          	ld	a1,8(sp)
   11cb0:	00040613          	mv	a2,s0
   11cb4:	00048513          	mv	a0,s1
   11cb8:	000900e7          	jalr	s2
   11cbc:	c64fe0ef          	jal	ra,10120 <exit>

0000000000011cc0 <__libc_start_main>:
   11cc0:	fd010113          	addi	sp,sp,-48
   11cc4:	02813023          	sd	s0,32(sp)
   11cc8:	00913c23          	sd	s1,24(sp)
   11ccc:	00058413          	mv	s0,a1
   11cd0:	00050493          	mv	s1,a0
   11cd4:	00158513          	addi	a0,a1,1
   11cd8:	00063583          	ld	a1,0(a2)
   11cdc:	00351513          	slli	a0,a0,0x3
   11ce0:	00a60533          	add	a0,a2,a0
   11ce4:	02113423          	sd	ra,40(sp)
   11ce8:	00c13423          	sd	a2,8(sp)
   11cec:	d89ff0ef          	jal	ra,11a74 <__init_libc>
   11cf0:	000127b7          	lui	a5,0x12
   11cf4:	c7c78793          	addi	a5,a5,-900 # 11c7c <libc_start_main_stage2>
   11cf8:	00040593          	mv	a1,s0
   11cfc:	02013403          	ld	s0,32(sp)
   11d00:	00813603          	ld	a2,8(sp)
   11d04:	02813083          	ld	ra,40(sp)
   11d08:	00048513          	mv	a0,s1
   11d0c:	01813483          	ld	s1,24(sp)
   11d10:	03010113          	addi	sp,sp,48
   11d14:	00078067          	jr	a5

0000000000011d18 <__funcs_on_exit>:
   11d18:	00008067          	ret

0000000000011d1c <__libc_exit_fini>:
   11d1c:	fe010113          	addi	sp,sp,-32
   11d20:	00813823          	sd	s0,16(sp)
   11d24:	00913423          	sd	s1,8(sp)
   11d28:	0002c437          	lui	s0,0x2c
   11d2c:	0002c4b7          	lui	s1,0x2c
   11d30:	00113c23          	sd	ra,24(sp)
   11d34:	00040413          	mv	s0,s0
   11d38:	ff848493          	addi	s1,s1,-8 # 2bff8 <__do_global_dtors_aux_fini_array_entry>
   11d3c:	0084ec63          	bltu	s1,s0,11d54 <__libc_exit_fini+0x38>
   11d40:	01013403          	ld	s0,16(sp)
   11d44:	01813083          	ld	ra,24(sp)
   11d48:	00813483          	ld	s1,8(sp)
   11d4c:	02010113          	addi	sp,sp,32
   11d50:	fc9ff06f          	j	11d18 <__funcs_on_exit>
   11d54:	ff843783          	ld	a5,-8(s0) # 2bff8 <__do_global_dtors_aux_fini_array_entry>
   11d58:	ff840413          	addi	s0,s0,-8
   11d5c:	000780e7          	jalr	a5
   11d60:	fddff06f          	j	11d3c <__libc_exit_fini+0x20>

0000000000011d64 <__nl_langinfo_l>:
   11d64:	00010737          	lui	a4,0x10
   11d68:	fff70613          	addi	a2,a4,-1 # ffff <exit-0x121>
   11d6c:	00e00813          	li	a6,14
   11d70:	41055793          	srai	a5,a0,0x10
   11d74:	00c576b3          	and	a3,a0,a2
   11d78:	01051c63          	bne	a0,a6,11d90 <__nl_langinfo_l+0x2c>
   11d7c:	0005b783          	ld	a5,0(a1)
   11d80:	0c079c63          	bnez	a5,11e58 <__nl_langinfo_l+0xf4>
   11d84:	00026537          	lui	a0,0x26
   11d88:	71850513          	addi	a0,a0,1816 # 26718 <__clzdi2+0x5a0>
   11d8c:	00008067          	ret
   11d90:	02c69263          	bne	a3,a2,11db4 <__nl_langinfo_l+0x50>
   11d94:	00500713          	li	a4,5
   11d98:	02f74863          	blt	a4,a5,11dc8 <__nl_langinfo_l+0x64>
   11d9c:	00379793          	slli	a5,a5,0x3
   11da0:	00f587b3          	add	a5,a1,a5
   11da4:	0007b503          	ld	a0,0(a5)
   11da8:	0a050e63          	beqz	a0,11e64 <__nl_langinfo_l+0x100>
   11dac:	01050513          	addi	a0,a0,16
   11db0:	00008067          	ret
   11db4:	00200613          	li	a2,2
   11db8:	06c78c63          	beq	a5,a2,11e30 <__nl_langinfo_l+0xcc>
   11dbc:	00f64c63          	blt	a2,a5,11dd4 <__nl_langinfo_l+0x70>
   11dc0:	00100613          	li	a2,1
   11dc4:	02c78c63          	beq	a5,a2,11dfc <__nl_langinfo_l+0x98>
   11dc8:	00026537          	lui	a0,0x26
   11dcc:	56050513          	addi	a0,a0,1376 # 26560 <__clzdi2+0x3e8>
   11dd0:	00008067          	ret
   11dd4:	00400613          	li	a2,4
   11dd8:	fec788e3          	beq	a5,a2,11dc8 <__nl_langinfo_l+0x64>
   11ddc:	00500613          	li	a2,5
   11de0:	fec794e3          	bne	a5,a2,11dc8 <__nl_langinfo_l+0x64>
   11de4:	ffc70713          	addi	a4,a4,-4
   11de8:	00e57533          	and	a0,a0,a4
   11dec:	fc051ee3          	bnez	a0,11dc8 <__nl_langinfo_l+0x64>
   11df0:	00026537          	lui	a0,0x26
   11df4:	72050513          	addi	a0,a0,1824 # 26720 <c_messages>
   11df8:	0140006f          	j	11e0c <__nl_langinfo_l+0xa8>
   11dfc:	ffe70713          	addi	a4,a4,-2
   11e00:	00e57533          	and	a0,a0,a4
   11e04:	fc0512e3          	bnez	a0,11dc8 <__nl_langinfo_l+0x64>
   11e08:	97018513          	addi	a0,gp,-1680 # 2c170 <c_numeric>
   11e0c:	02069c63          	bnez	a3,11e44 <__nl_langinfo_l+0xe0>
   11e10:	00100713          	li	a4,1
   11e14:	fae78ee3          	beq	a5,a4,11dd0 <__nl_langinfo_l+0x6c>
   11e18:	00054703          	lbu	a4,0(a0)
   11e1c:	fa070ae3          	beqz	a4,11dd0 <__nl_langinfo_l+0x6c>
   11e20:	00379793          	slli	a5,a5,0x3
   11e24:	00f587b3          	add	a5,a1,a5
   11e28:	0007b583          	ld	a1,0(a5)
   11e2c:	25c0c06f          	j	1e088 <__lctrans>
   11e30:	03100713          	li	a4,49
   11e34:	f8d74ae3          	blt	a4,a3,11dc8 <__nl_langinfo_l+0x64>
   11e38:	00026537          	lui	a0,0x26
   11e3c:	73850513          	addi	a0,a0,1848 # 26738 <c_time>
   11e40:	fcdff06f          	j	11e0c <__nl_langinfo_l+0xa8>
   11e44:	00054703          	lbu	a4,0(a0)
   11e48:	00150513          	addi	a0,a0,1
   11e4c:	fe071ce3          	bnez	a4,11e44 <__nl_langinfo_l+0xe0>
   11e50:	fff6869b          	addiw	a3,a3,-1
   11e54:	fb9ff06f          	j	11e0c <__nl_langinfo_l+0xa8>
   11e58:	00026537          	lui	a0,0x26
   11e5c:	6f850513          	addi	a0,a0,1784 # 266f8 <__clzdi2+0x580>
   11e60:	00008067          	ret
   11e64:	00026537          	lui	a0,0x26
   11e68:	71050513          	addi	a0,a0,1808 # 26710 <__clzdi2+0x598>
   11e6c:	00008067          	ret

0000000000011e70 <__nl_langinfo>:
   11e70:	00020793          	mv	a5,tp
   11e74:	fd07b583          	ld	a1,-48(a5)
   11e78:	eedff06f          	j	11d64 <__nl_langinfo_l>

0000000000011e7c <setlocale>:
   11e7c:	f5010113          	addi	sp,sp,-176
   11e80:	09413023          	sd	s4,128(sp)
   11e84:	0a113423          	sd	ra,168(sp)
   11e88:	0a813023          	sd	s0,160(sp)
   11e8c:	08913c23          	sd	s1,152(sp)
   11e90:	09213823          	sd	s2,144(sp)
   11e94:	09313423          	sd	s3,136(sp)
   11e98:	07513c23          	sd	s5,120(sp)
   11e9c:	07613823          	sd	s6,112(sp)
   11ea0:	07713423          	sd	s7,104(sp)
   11ea4:	07813023          	sd	s8,96(sp)
   11ea8:	05913c23          	sd	s9,88(sp)
   11eac:	05a13823          	sd	s10,80(sp)
   11eb0:	00600a13          	li	s4,6
   11eb4:	0aaa6263          	bltu	s4,a0,11f58 <setlocale+0xdc>
   11eb8:	00050413          	mv	s0,a0
   11ebc:	9d818513          	addi	a0,gp,-1576 # 2c1d8 <lock.0>
   11ec0:	00058493          	mv	s1,a1
   11ec4:	00098913          	mv	s2,s3
   11ec8:	3340a0ef          	jal	ra,1c1fc <__lock>
   11ecc:	17441e63          	bne	s0,s4,12048 <setlocale+0x1cc>
   11ed0:	0a048863          	beqz	s1,11f80 <setlocale+0x104>
   11ed4:	000277b7          	lui	a5,0x27
   11ed8:	8787b783          	ld	a5,-1928(a5) # 26878 <c_time+0x140>
   11edc:	02010a93          	addi	s5,sp,32
   11ee0:	00013823          	sd	zero,16(sp)
   11ee4:	00f13423          	sd	a5,8(sp)
   11ee8:	00013c23          	sd	zero,24(sp)
   11eec:	00000a13          	li	s4,0
   11ef0:	000a8b13          	mv	s6,s5
   11ef4:	01700c13          	li	s8,23
   11ef8:	fff00c93          	li	s9,-1
   11efc:	00600b93          	li	s7,6
   11f00:	03b00593          	li	a1,59
   11f04:	00048513          	mv	a0,s1
   11f08:	3c5090ef          	jal	ra,1bacc <__strchrnul>
   11f0c:	409509b3          	sub	s3,a0,s1
   11f10:	00050413          	mv	s0,a0
   11f14:	033c4663          	blt	s8,s3,11f40 <setlocale+0xc4>
   11f18:	00098613          	mv	a2,s3
   11f1c:	00048593          	mv	a1,s1
   11f20:	00810513          	addi	a0,sp,8
   11f24:	638090ef          	jal	ra,1b55c <memcpy>
   11f28:	05010793          	addi	a5,sp,80
   11f2c:	013789b3          	add	s3,a5,s3
   11f30:	fa098c23          	sb	zero,-72(s3)
   11f34:	00044783          	lbu	a5,0(s0)
   11f38:	00078463          	beqz	a5,11f40 <setlocale+0xc4>
   11f3c:	00140493          	addi	s1,s0,1
   11f40:	00810593          	addi	a1,sp,8
   11f44:	000a0513          	mv	a0,s4
   11f48:	1980c0ef          	jal	ra,1e0e0 <__get_locale>
   11f4c:	01951a63          	bne	a0,s9,11f60 <setlocale+0xe4>
   11f50:	9d818513          	addi	a0,gp,-1576 # 2c1d8 <lock.0>
   11f54:	3a00a0ef          	jal	ra,1c2f4 <__unlock>
   11f58:	00000413          	li	s0,0
   11f5c:	0b00006f          	j	1200c <setlocale+0x190>
   11f60:	00aab023          	sd	a0,0(s5) # 26000 <__trunctfdf2+0x184>
   11f64:	001a0a1b          	addiw	s4,s4,1
   11f68:	008a8a93          	addi	s5,s5,8
   11f6c:	f97a1ae3          	bne	s4,s7,11f00 <setlocale+0x84>
   11f70:	03000613          	li	a2,48
   11f74:	000b0593          	mv	a1,s6
   11f78:	b0018513          	addi	a0,gp,-1280 # 2c300 <__libc+0x40>
   11f7c:	5e0090ef          	jal	ra,1b55c <memcpy>
   11f80:	ac018a13          	addi	s4,gp,-1344 # 2c2c0 <__libc>
   11f84:	00026c37          	lui	s8,0x26
   11f88:	b3018993          	addi	s3,gp,-1232 # 2c330 <buf>
   11f8c:	030a0c93          	addi	s9,s4,48
   11f90:	00000b93          	li	s7,0
   11f94:	ac018b13          	addi	s6,gp,-1344 # 2c2c0 <__libc>
   11f98:	b3018a93          	addi	s5,gp,-1232 # 2c330 <buf>
   11f9c:	710c0c13          	addi	s8,s8,1808 # 26710 <__clzdi2+0x598>
   11fa0:	03b00d13          	li	s10,59
   11fa4:	040a3783          	ld	a5,64(s4)
   11fa8:	040b3703          	ld	a4,64(s6) # 26040 <__trunctfdf2+0x1c4>
   11fac:	00f71463          	bne	a4,a5,11fb4 <setlocale+0x138>
   11fb0:	001b8b9b          	addiw	s7,s7,1
   11fb4:	000c0413          	mv	s0,s8
   11fb8:	00078463          	beqz	a5,11fc0 <setlocale+0x144>
   11fbc:	01078413          	addi	s0,a5,16
   11fc0:	00040513          	mv	a0,s0
   11fc4:	3d1090ef          	jal	ra,1bb94 <strlen>
   11fc8:	00050493          	mv	s1,a0
   11fcc:	00050613          	mv	a2,a0
   11fd0:	00040593          	mv	a1,s0
   11fd4:	00098513          	mv	a0,s3
   11fd8:	584090ef          	jal	ra,1b55c <memcpy>
   11fdc:	009987b3          	add	a5,s3,s1
   11fe0:	01a78023          	sb	s10,0(a5)
   11fe4:	00148493          	addi	s1,s1,1
   11fe8:	008a0a13          	addi	s4,s4,8
   11fec:	009989b3          	add	s3,s3,s1
   11ff0:	fb4c9ae3          	bne	s9,s4,11fa4 <setlocale+0x128>
   11ff4:	fe098fa3          	sb	zero,-1(s3)
   11ff8:	9d818513          	addi	a0,gp,-1576 # 2c1d8 <lock.0>
   11ffc:	2f80a0ef          	jal	ra,1c2f4 <__unlock>
   12000:	00600793          	li	a5,6
   12004:	00fb8463          	beq	s7,a5,1200c <setlocale+0x190>
   12008:	000a8413          	mv	s0,s5
   1200c:	0a813083          	ld	ra,168(sp)
   12010:	00040513          	mv	a0,s0
   12014:	0a013403          	ld	s0,160(sp)
   12018:	09813483          	ld	s1,152(sp)
   1201c:	09013903          	ld	s2,144(sp)
   12020:	08813983          	ld	s3,136(sp)
   12024:	08013a03          	ld	s4,128(sp)
   12028:	07813a83          	ld	s5,120(sp)
   1202c:	07013b03          	ld	s6,112(sp)
   12030:	06813b83          	ld	s7,104(sp)
   12034:	06013c03          	ld	s8,96(sp)
   12038:	05813c83          	ld	s9,88(sp)
   1203c:	05013d03          	ld	s10,80(sp)
   12040:	0b010113          	addi	sp,sp,176
   12044:	00008067          	ret
   12048:	04048863          	beqz	s1,12098 <setlocale+0x21c>
   1204c:	00048593          	mv	a1,s1
   12050:	00040513          	mv	a0,s0
   12054:	08c0c0ef          	jal	ra,1e0e0 <__get_locale>
   12058:	fff00793          	li	a5,-1
   1205c:	00f51663          	bne	a0,a5,12068 <setlocale+0x1ec>
   12060:	9d818513          	addi	a0,gp,-1576 # 2c1d8 <lock.0>
   12064:	ef1ff06f          	j	11f54 <setlocale+0xd8>
   12068:	00840413          	addi	s0,s0,8
   1206c:	00341413          	slli	s0,s0,0x3
   12070:	ac018793          	addi	a5,gp,-1344 # 2c2c0 <__libc>
   12074:	00878433          	add	s0,a5,s0
   12078:	00a43023          	sd	a0,0(s0)
   1207c:	01050413          	addi	s0,a0,16
   12080:	00051663          	bnez	a0,1208c <setlocale+0x210>
   12084:	00026437          	lui	s0,0x26
   12088:	71040413          	addi	s0,s0,1808 # 26710 <__clzdi2+0x598>
   1208c:	9d818513          	addi	a0,gp,-1576 # 2c1d8 <lock.0>
   12090:	2640a0ef          	jal	ra,1c2f4 <__unlock>
   12094:	f79ff06f          	j	1200c <setlocale+0x190>
   12098:	00840413          	addi	s0,s0,8
   1209c:	00341413          	slli	s0,s0,0x3
   120a0:	ac018793          	addi	a5,gp,-1344 # 2c2c0 <__libc>
   120a4:	00878433          	add	s0,a5,s0
   120a8:	00043503          	ld	a0,0(s0)
   120ac:	fd1ff06f          	j	1207c <setlocale+0x200>

00000000000120b0 <__simple_malloc>:
   120b0:	fb010113          	addi	sp,sp,-80
   120b4:	02913c23          	sd	s1,56(sp)
   120b8:	01513c23          	sd	s5,24(sp)
   120bc:	04113423          	sd	ra,72(sp)
   120c0:	04813023          	sd	s0,64(sp)
   120c4:	03213823          	sd	s2,48(sp)
   120c8:	03313423          	sd	s3,40(sp)
   120cc:	03413023          	sd	s4,32(sp)
   120d0:	00050a93          	mv	s5,a0
   120d4:	00100493          	li	s1,1
   120d8:	00050463          	beqz	a0,120e0 <__simple_malloc+0x30>
   120dc:	00050493          	mv	s1,a0
   120e0:	00500793          	li	a5,5
   120e4:	00100413          	li	s0,1
   120e8:	08946263          	bltu	s0,s1,1216c <__simple_malloc+0xbc>
   120ec:	9f018513          	addi	a0,gp,-1552 # 2c1f0 <lock.0>
   120f0:	10c0a0ef          	jal	ra,1c1fc <__lock>
   120f4:	9e01b703          	ld	a4,-1568(gp) # 2c1e0 <cur.1>
   120f8:	fff00793          	li	a5,-1
   120fc:	03f79793          	slli	a5,a5,0x3f
   12100:	40e009b3          	neg	s3,a4
   12104:	fff40413          	addi	s0,s0,-1
   12108:	00f78793          	addi	a5,a5,15
   1210c:	0089f9b3          	and	s3,s3,s0
   12110:	9e018913          	addi	s2,gp,-1568 # 2c1e0 <cur.1>
   12114:	0757f463          	bgeu	a5,s5,1217c <__simple_malloc+0xcc>
   12118:	9e81b783          	ld	a5,-1560(gp) # 2c1e8 <end.2>
   1211c:	9e818a93          	addi	s5,gp,-1560 # 2c1e8 <end.2>
   12120:	40e787b3          	sub	a5,a5,a4
   12124:	0897f063          	bgeu	a5,s1,121a4 <__simple_malloc+0xf4>
   12128:	00810513          	addi	a0,sp,8
   1212c:	00913423          	sd	s1,8(sp)
   12130:	2dc0c0ef          	jal	ra,1e40c <__expand_heap>
   12134:	00050413          	mv	s0,a0
   12138:	04051663          	bnez	a0,12184 <__simple_malloc+0xd4>
   1213c:	9f018513          	addi	a0,gp,-1552 # 2c1f0 <lock.0>
   12140:	1b40a0ef          	jal	ra,1c2f4 <__unlock>
   12144:	04813083          	ld	ra,72(sp)
   12148:	00040513          	mv	a0,s0
   1214c:	04013403          	ld	s0,64(sp)
   12150:	03813483          	ld	s1,56(sp)
   12154:	03013903          	ld	s2,48(sp)
   12158:	02813983          	ld	s3,40(sp)
   1215c:	02013a03          	ld	s4,32(sp)
   12160:	01813a83          	ld	s5,24(sp)
   12164:	05010113          	addi	sp,sp,80
   12168:	00008067          	ret
   1216c:	fff7879b          	addiw	a5,a5,-1
   12170:	f6078ee3          	beqz	a5,120ec <__simple_malloc+0x3c>
   12174:	00141413          	slli	s0,s0,0x1
   12178:	f71ff06f          	j	120e8 <__simple_malloc+0x38>
   1217c:	013484b3          	add	s1,s1,s3
   12180:	f99ff06f          	j	12118 <__simple_malloc+0x68>
   12184:	000ab783          	ld	a5,0(s5)
   12188:	00a78863          	beq	a5,a0,12198 <__simple_malloc+0xe8>
   1218c:	413484b3          	sub	s1,s1,s3
   12190:	00a93023          	sd	a0,0(s2)
   12194:	00000993          	li	s3,0
   12198:	00813503          	ld	a0,8(sp)
   1219c:	00a40433          	add	s0,s0,a0
   121a0:	008ab023          	sd	s0,0(s5)
   121a4:	00093783          	ld	a5,0(s2)
   121a8:	01378433          	add	s0,a5,s3
   121ac:	009787b3          	add	a5,a5,s1
   121b0:	00f93023          	sd	a5,0(s2)
   121b4:	f89ff06f          	j	1213c <__simple_malloc+0x8c>

00000000000121b8 <__simple_calloc>:
   121b8:	00058663          	beqz	a1,121c4 <__simple_calloc+0xc>
   121bc:	02b537b3          	mulhu	a5,a0,a1
   121c0:	00079663          	bnez	a5,121cc <__simple_calloc+0x14>
   121c4:	02a58533          	mul	a0,a1,a0
   121c8:	ee9ff06f          	j	120b0 <__simple_malloc>
   121cc:	ff010113          	addi	sp,sp,-16
   121d0:	00113423          	sd	ra,8(sp)
   121d4:	5fd0b0ef          	jal	ra,1dfd0 <__errno_location>
   121d8:	00813083          	ld	ra,8(sp)
   121dc:	00c00793          	li	a5,12
   121e0:	00f52023          	sw	a5,0(a0)
   121e4:	00000513          	li	a0,0
   121e8:	01010113          	addi	sp,sp,16
   121ec:	00008067          	ret

00000000000121f0 <bin_index>:
   121f0:	00555793          	srli	a5,a0,0x5
   121f4:	fff78793          	addi	a5,a5,-1
   121f8:	02000713          	li	a4,32
   121fc:	00f76663          	bltu	a4,a5,12208 <bin_index+0x18>
   12200:	0007851b          	sext.w	a0,a5
   12204:	00008067          	ret
   12208:	1ff00713          	li	a4,511
   1220c:	00f76e63          	bltu	a4,a5,12228 <bin_index+0x38>
   12210:	00027737          	lui	a4,0x27
   12214:	89070713          	addi	a4,a4,-1904 # 26890 <bin_tab>
   12218:	0037d793          	srli	a5,a5,0x3
   1221c:	00f707b3          	add	a5,a4,a5
   12220:	ffc7c503          	lbu	a0,-4(a5)
   12224:	00008067          	ret
   12228:	00002737          	lui	a4,0x2
   1222c:	c0070713          	addi	a4,a4,-1024 # 1c00 <exit-0xe520>
   12230:	03f00513          	li	a0,63
   12234:	00f76e63          	bltu	a4,a5,12250 <bin_index+0x60>
   12238:	00027737          	lui	a4,0x27
   1223c:	0077d793          	srli	a5,a5,0x7
   12240:	89070713          	addi	a4,a4,-1904 # 26890 <bin_tab>
   12244:	00f707b3          	add	a5,a4,a5
   12248:	ffc7c503          	lbu	a0,-4(a5)
   1224c:	0105051b          	addiw	a0,a0,16
   12250:	00008067          	ret

0000000000012254 <adjust_size>:
   12254:	af81b603          	ld	a2,-1288(gp) # 2c2f8 <__libc+0x38>
   12258:	00053783          	ld	a5,0(a0)
   1225c:	fbf00713          	li	a4,-65
   12260:	00175713          	srli	a4,a4,0x1
   12264:	fff78693          	addi	a3,a5,-1
   12268:	40c70733          	sub	a4,a4,a2
   1226c:	02d77e63          	bgeu	a4,a3,122a8 <adjust_size+0x54>
   12270:	02078463          	beqz	a5,12298 <adjust_size+0x44>
   12274:	ff010113          	addi	sp,sp,-16
   12278:	00113423          	sd	ra,8(sp)
   1227c:	5550b0ef          	jal	ra,1dfd0 <__errno_location>
   12280:	00813083          	ld	ra,8(sp)
   12284:	00c00793          	li	a5,12
   12288:	00f52023          	sw	a5,0(a0)
   1228c:	fff00513          	li	a0,-1
   12290:	01010113          	addi	sp,sp,16
   12294:	00008067          	ret
   12298:	02000793          	li	a5,32
   1229c:	00f53023          	sd	a5,0(a0)
   122a0:	00000513          	li	a0,0
   122a4:	00008067          	ret
   122a8:	02f78793          	addi	a5,a5,47
   122ac:	fe07f793          	andi	a5,a5,-32
   122b0:	fedff06f          	j	1229c <adjust_size+0x48>

00000000000122b4 <lock>:
   122b4:	ac018793          	addi	a5,gp,-1344 # 2c2c0 <__libc>
   122b8:	00c7a783          	lw	a5,12(a5)
   122bc:	0007879b          	sext.w	a5,a5
   122c0:	06078c63          	beqz	a5,12338 <lock+0x84>
   122c4:	fe010113          	addi	sp,sp,-32
   122c8:	00813823          	sd	s0,16(sp)
   122cc:	00913423          	sd	s1,8(sp)
   122d0:	01213023          	sd	s2,0(sp)
   122d4:	00113c23          	sd	ra,24(sp)
   122d8:	00050413          	mv	s0,a0
   122dc:	00100493          	li	s1,1
   122e0:	00450913          	addi	s2,a0,4
   122e4:	00042783          	lw	a5,0(s0)
   122e8:	0007879b          	sext.w	a5,a5
   122ec:	1604272f          	lr.w.aqrl	a4,(s0)
   122f0:	00f71663          	bne	a4,a5,122fc <lock+0x48>
   122f4:	1e9426af          	sc.w.aqrl	a3,s1,(s0)
   122f8:	fe069ae3          	bnez	a3,122ec <lock+0x38>
   122fc:	0007071b          	sext.w	a4,a4
   12300:	fee792e3          	bne	a5,a4,122e4 <lock+0x30>
   12304:	00079e63          	bnez	a5,12320 <lock+0x6c>
   12308:	01813083          	ld	ra,24(sp)
   1230c:	01013403          	ld	s0,16(sp)
   12310:	00813483          	ld	s1,8(sp)
   12314:	00013903          	ld	s2,0(sp)
   12318:	02010113          	addi	sp,sp,32
   1231c:	00008067          	ret
   12320:	00100693          	li	a3,1
   12324:	00100613          	li	a2,1
   12328:	00090593          	mv	a1,s2
   1232c:	00040513          	mv	a0,s0
   12330:	0880a0ef          	jal	ra,1c3b8 <__wait>
   12334:	fb1ff06f          	j	122e4 <lock+0x30>
   12338:	00008067          	ret

000000000001233c <lock_bin>:
   1233c:	fe010113          	addi	sp,sp,-32
   12340:	00913423          	sd	s1,8(sp)
   12344:	01800493          	li	s1,24
   12348:	029504b3          	mul	s1,a0,s1
   1234c:	00813823          	sd	s0,16(sp)
   12350:	bc018413          	addi	s0,gp,-1088 # 2c3c0 <mal>
   12354:	00113c23          	sd	ra,24(sp)
   12358:	00848513          	addi	a0,s1,8
   1235c:	00a40533          	add	a0,s0,a0
   12360:	f55ff0ef          	jal	ra,122b4 <lock>
   12364:	00940533          	add	a0,s0,s1
   12368:	01053783          	ld	a5,16(a0)
   1236c:	00079663          	bnez	a5,12378 <lock_bin+0x3c>
   12370:	00a53c23          	sd	a0,24(a0)
   12374:	00a53823          	sd	a0,16(a0)
   12378:	01813083          	ld	ra,24(sp)
   1237c:	01013403          	ld	s0,16(sp)
   12380:	00813483          	ld	s1,8(sp)
   12384:	02010113          	addi	sp,sp,32
   12388:	00008067          	ret

000000000001238c <unlock>:
   1238c:	00052703          	lw	a4,0(a0)
   12390:	00050793          	mv	a5,a0
   12394:	0007071b          	sext.w	a4,a4
   12398:	04070063          	beqz	a4,123d8 <unlock+0x4c>
   1239c:	0330000f          	fence	rw,rw
   123a0:	00052023          	sw	zero,0(a0)
   123a4:	0330000f          	fence	rw,rw
   123a8:	00452703          	lw	a4,4(a0)
   123ac:	0007071b          	sext.w	a4,a4
   123b0:	02070463          	beqz	a4,123d8 <unlock+0x4c>
   123b4:	06200893          	li	a7,98
   123b8:	08100593          	li	a1,129
   123bc:	00100613          	li	a2,1
   123c0:	00000073          	ecall
   123c4:	fda00713          	li	a4,-38
   123c8:	00e51863          	bne	a0,a4,123d8 <unlock+0x4c>
   123cc:	00078513          	mv	a0,a5
   123d0:	00100593          	li	a1,1
   123d4:	00000073          	ecall
   123d8:	00008067          	ret

00000000000123dc <unbin>:
   123dc:	01853703          	ld	a4,24(a0)
   123e0:	01053783          	ld	a5,16(a0)
   123e4:	08f71063          	bne	a4,a5,12464 <unbin+0x88>
   123e8:	00100793          	li	a5,1
   123ec:	00b797b3          	sll	a5,a5,a1
   123f0:	fff7c793          	not	a5,a5
   123f4:	0007881b          	sext.w	a6,a5
   123f8:	fff00713          	li	a4,-1
   123fc:	02e80663          	beq	a6,a4,12428 <unbin+0x4c>
   12400:	bc018693          	addi	a3,gp,-1088 # 2c3c0 <mal>
   12404:	0006a703          	lw	a4,0(a3)
   12408:	0007071b          	sext.w	a4,a4
   1240c:	00e875b3          	and	a1,a6,a4
   12410:	1606a62f          	lr.w.aqrl	a2,(a3)
   12414:	00e61663          	bne	a2,a4,12420 <unbin+0x44>
   12418:	1eb6a8af          	sc.w.aqrl	a7,a1,(a3)
   1241c:	fe089ae3          	bnez	a7,12410 <unbin+0x34>
   12420:	0006061b          	sext.w	a2,a2
   12424:	fec710e3          	bne	a4,a2,12404 <unbin+0x28>
   12428:	4207d793          	srai	a5,a5,0x20
   1242c:	fff00713          	li	a4,-1
   12430:	02e78a63          	beq	a5,a4,12464 <unbin+0x88>
   12434:	bc018693          	addi	a3,gp,-1088 # 2c3c0 <mal>
   12438:	0007879b          	sext.w	a5,a5
   1243c:	00468593          	addi	a1,a3,4
   12440:	0046a703          	lw	a4,4(a3)
   12444:	0007071b          	sext.w	a4,a4
   12448:	00e7f833          	and	a6,a5,a4
   1244c:	1605a62f          	lr.w.aqrl	a2,(a1)
   12450:	00e61663          	bne	a2,a4,1245c <unbin+0x80>
   12454:	1f05a8af          	sc.w.aqrl	a7,a6,(a1)
   12458:	fe089ae3          	bnez	a7,1244c <unbin+0x70>
   1245c:	0006061b          	sext.w	a2,a2
   12460:	fec710e3          	bne	a4,a2,12440 <unbin+0x64>
   12464:	01853703          	ld	a4,24(a0)
   12468:	01053783          	ld	a5,16(a0)
   1246c:	00f73823          	sd	a5,16(a4)
   12470:	00e7bc23          	sd	a4,24(a5)
   12474:	00853783          	ld	a5,8(a0)
   12478:	0017e713          	ori	a4,a5,1
   1247c:	ffe7f793          	andi	a5,a5,-2
   12480:	00e53423          	sd	a4,8(a0)
   12484:	00f50533          	add	a0,a0,a5
   12488:	00053783          	ld	a5,0(a0)
   1248c:	0017e793          	ori	a5,a5,1
   12490:	00f53023          	sd	a5,0(a0)
   12494:	00008067          	ret

0000000000012498 <alloc_rev>:
   12498:	fc010113          	addi	sp,sp,-64
   1249c:	01313c23          	sd	s3,24(sp)
   124a0:	02913423          	sd	s1,40(sp)
   124a4:	01413823          	sd	s4,16(sp)
   124a8:	02113c23          	sd	ra,56(sp)
   124ac:	02813823          	sd	s0,48(sp)
   124b0:	03213023          	sd	s2,32(sp)
   124b4:	00050493          	mv	s1,a0
   124b8:	bc018993          	addi	s3,gp,-1088 # 2c3c0 <mal>
   124bc:	01800a13          	li	s4,24
   124c0:	0004b903          	ld	s2,0(s1)
   124c4:	00197793          	andi	a5,s2,1
   124c8:	00078663          	beqz	a5,124d4 <alloc_rev+0x3c>
   124cc:	00000513          	li	a0,0
   124d0:	0440006f          	j	12514 <alloc_rev+0x7c>
   124d4:	00090513          	mv	a0,s2
   124d8:	d19ff0ef          	jal	ra,121f0 <bin_index>
   124dc:	00a13423          	sd	a0,8(sp)
   124e0:	e5dff0ef          	jal	ra,1233c <lock_bin>
   124e4:	00813583          	ld	a1,8(sp)
   124e8:	0004b783          	ld	a5,0(s1)
   124ec:	03458433          	mul	s0,a1,s4
   124f0:	00840413          	addi	s0,s0,8
   124f4:	00898433          	add	s0,s3,s0
   124f8:	03279e63          	bne	a5,s2,12534 <alloc_rev+0x9c>
   124fc:	ffe7f793          	andi	a5,a5,-2
   12500:	40f48533          	sub	a0,s1,a5
   12504:	ed9ff0ef          	jal	ra,123dc <unbin>
   12508:	00040513          	mv	a0,s0
   1250c:	e81ff0ef          	jal	ra,1238c <unlock>
   12510:	00100513          	li	a0,1
   12514:	03813083          	ld	ra,56(sp)
   12518:	03013403          	ld	s0,48(sp)
   1251c:	02813483          	ld	s1,40(sp)
   12520:	02013903          	ld	s2,32(sp)
   12524:	01813983          	ld	s3,24(sp)
   12528:	01013a03          	ld	s4,16(sp)
   1252c:	04010113          	addi	sp,sp,64
   12530:	00008067          	ret
   12534:	00040513          	mv	a0,s0
   12538:	e55ff0ef          	jal	ra,1238c <unlock>
   1253c:	f85ff06f          	j	124c0 <alloc_rev+0x28>

0000000000012540 <alloc_fwd>:
   12540:	fc010113          	addi	sp,sp,-64
   12544:	01313c23          	sd	s3,24(sp)
   12548:	02913423          	sd	s1,40(sp)
   1254c:	01413823          	sd	s4,16(sp)
   12550:	02113c23          	sd	ra,56(sp)
   12554:	02813823          	sd	s0,48(sp)
   12558:	03213023          	sd	s2,32(sp)
   1255c:	00050493          	mv	s1,a0
   12560:	bc018993          	addi	s3,gp,-1088 # 2c3c0 <mal>
   12564:	01800a13          	li	s4,24
   12568:	0084b903          	ld	s2,8(s1)
   1256c:	00197793          	andi	a5,s2,1
   12570:	00078663          	beqz	a5,1257c <alloc_fwd+0x3c>
   12574:	00000513          	li	a0,0
   12578:	0400006f          	j	125b8 <alloc_fwd+0x78>
   1257c:	00090513          	mv	a0,s2
   12580:	c71ff0ef          	jal	ra,121f0 <bin_index>
   12584:	00a13423          	sd	a0,8(sp)
   12588:	db5ff0ef          	jal	ra,1233c <lock_bin>
   1258c:	00813583          	ld	a1,8(sp)
   12590:	0084b783          	ld	a5,8(s1)
   12594:	03458433          	mul	s0,a1,s4
   12598:	00840413          	addi	s0,s0,8
   1259c:	00898433          	add	s0,s3,s0
   125a0:	03279c63          	bne	a5,s2,125d8 <alloc_fwd+0x98>
   125a4:	00048513          	mv	a0,s1
   125a8:	e35ff0ef          	jal	ra,123dc <unbin>
   125ac:	00040513          	mv	a0,s0
   125b0:	dddff0ef          	jal	ra,1238c <unlock>
   125b4:	00100513          	li	a0,1
   125b8:	03813083          	ld	ra,56(sp)
   125bc:	03013403          	ld	s0,48(sp)
   125c0:	02813483          	ld	s1,40(sp)
   125c4:	02013903          	ld	s2,32(sp)
   125c8:	01813983          	ld	s3,24(sp)
   125cc:	01013a03          	ld	s4,16(sp)
   125d0:	04010113          	addi	sp,sp,64
   125d4:	00008067          	ret
   125d8:	00040513          	mv	a0,s0
   125dc:	db1ff0ef          	jal	ra,1238c <unlock>
   125e0:	f89ff06f          	j	12568 <alloc_fwd+0x28>

00000000000125e4 <__bin_chunk>:
   125e4:	00853783          	ld	a5,8(a0)
   125e8:	f8010113          	addi	sp,sp,-128
   125ec:	03713c23          	sd	s7,56(sp)
   125f0:	ffe7fb93          	andi	s7,a5,-2
   125f4:	06913423          	sd	s1,104(sp)
   125f8:	017504b3          	add	s1,a0,s7
   125fc:	0004b703          	ld	a4,0(s1)
   12600:	06113c23          	sd	ra,120(sp)
   12604:	06813823          	sd	s0,112(sp)
   12608:	07213023          	sd	s2,96(sp)
   1260c:	05313c23          	sd	s3,88(sp)
   12610:	05413823          	sd	s4,80(sp)
   12614:	05513423          	sd	s5,72(sp)
   12618:	05613023          	sd	s6,64(sp)
   1261c:	03813823          	sd	s8,48(sp)
   12620:	03913423          	sd	s9,40(sp)
   12624:	03a13023          	sd	s10,32(sp)
   12628:	01b13c23          	sd	s11,24(sp)
   1262c:	00e78663          	beq	a5,a4,12638 <__bin_chunk+0x54>
   12630:	00000023          	sb	zero,0(zero) # 0 <exit-0x10120>
   12634:	00100073          	ebreak
   12638:	bc018913          	addi	s2,gp,-1088 # 2c3c0 <mal>
   1263c:	00050413          	mv	s0,a0
   12640:	000b8a13          	mv	s4,s7
   12644:	00000a93          	li	s5,0
   12648:	60890c13          	addi	s8,s2,1544
   1264c:	01800d13          	li	s10,24
   12650:	00028cb7          	lui	s9,0x28
   12654:	00043783          	ld	a5,0(s0)
   12658:	0084b703          	ld	a4,8(s1)
   1265c:	00e7f7b3          	and	a5,a5,a4
   12660:	0017f793          	andi	a5,a5,1
   12664:	04078c63          	beqz	a5,126bc <__bin_chunk+0xd8>
   12668:	001a6793          	ori	a5,s4,1
   1266c:	00f43423          	sd	a5,8(s0)
   12670:	00f4b023          	sd	a5,0(s1)
   12674:	000a0513          	mv	a0,s4
   12678:	b79ff0ef          	jal	ra,121f0 <bin_index>
   1267c:	00050d93          	mv	s11,a0
   12680:	cbdff0ef          	jal	ra,1233c <lock_bin>
   12684:	000c0513          	mv	a0,s8
   12688:	c2dff0ef          	jal	ra,122b4 <lock>
   1268c:	03ad86b3          	mul	a3,s11,s10
   12690:	00043783          	ld	a5,0(s0)
   12694:	0084b703          	ld	a4,8(s1)
   12698:	00e7f7b3          	and	a5,a5,a4
   1269c:	0017f793          	andi	a5,a5,1
   126a0:	00868993          	addi	s3,a3,8
   126a4:	013909b3          	add	s3,s2,s3
   126a8:	08079063          	bnez	a5,12728 <__bin_chunk+0x144>
   126ac:	000c0513          	mv	a0,s8
   126b0:	cddff0ef          	jal	ra,1238c <unlock>
   126b4:	00098513          	mv	a0,s3
   126b8:	cd5ff0ef          	jal	ra,1238c <unlock>
   126bc:	00040513          	mv	a0,s0
   126c0:	dd9ff0ef          	jal	ra,12498 <alloc_rev>
   126c4:	02050863          	beqz	a0,126f4 <__bin_chunk+0x110>
   126c8:	00043783          	ld	a5,0(s0)
   126cc:	ffe7f793          	andi	a5,a5,-2
   126d0:	40f40433          	sub	s0,s0,a5
   126d4:	00843783          	ld	a5,8(s0)
   126d8:	ffe7f793          	andi	a5,a5,-2
   126dc:	00fb8733          	add	a4,s7,a5
   126e0:	00fa0a33          	add	s4,s4,a5
   126e4:	00ecf863          	bgeu	s9,a4,126f4 <__bin_chunk+0x110>
   126e8:	00f74733          	xor	a4,a4,a5
   126ec:	00e7f463          	bgeu	a5,a4,126f4 <__bin_chunk+0x110>
   126f0:	00100a93          	li	s5,1
   126f4:	00048513          	mv	a0,s1
   126f8:	e49ff0ef          	jal	ra,12540 <alloc_fwd>
   126fc:	f4050ce3          	beqz	a0,12654 <__bin_chunk+0x70>
   12700:	0084b783          	ld	a5,8(s1)
   12704:	ffe7f793          	andi	a5,a5,-2
   12708:	00fb8733          	add	a4,s7,a5
   1270c:	00fa0a33          	add	s4,s4,a5
   12710:	00ecf863          	bgeu	s9,a4,12720 <__bin_chunk+0x13c>
   12714:	00f74733          	xor	a4,a4,a5
   12718:	00e7f463          	bgeu	a5,a4,12720 <__bin_chunk+0x13c>
   1271c:	00100a93          	li	s5,1
   12720:	00f484b3          	add	s1,s1,a5
   12724:	f31ff06f          	j	12654 <__bin_chunk+0x70>
   12728:	00093783          	ld	a5,0(s2)
   1272c:	01b7d7b3          	srl	a5,a5,s11
   12730:	0017f793          	andi	a5,a5,1
   12734:	0a078863          	beqz	a5,127e4 <__bin_chunk+0x200>
   12738:	01443423          	sd	s4,8(s0)
   1273c:	1c818513          	addi	a0,gp,456 # 2c9c8 <__global_pointer$+0x1c8>
   12740:	0144b023          	sd	s4,0(s1)
   12744:	00d13423          	sd	a3,8(sp)
   12748:	c45ff0ef          	jal	ra,1238c <unlock>
   1274c:	01800513          	li	a0,24
   12750:	02ad8db3          	mul	s11,s11,a0
   12754:	00813683          	ld	a3,8(sp)
   12758:	00d906b3          	add	a3,s2,a3
   1275c:	00d43823          	sd	a3,16(s0)
   12760:	01b90933          	add	s2,s2,s11
   12764:	01893783          	ld	a5,24(s2)
   12768:	00f43c23          	sd	a5,24(s0)
   1276c:	0086bc23          	sd	s0,24(a3)
   12770:	01843783          	ld	a5,24(s0)
   12774:	0087b823          	sd	s0,16(a5)
   12778:	020a8663          	beqz	s5,127a4 <__bin_chunk+0x1c0>
   1277c:	af81b503          	ld	a0,-1288(gp) # 2c2f8 <__libc+0x38>
   12780:	fe048493          	addi	s1,s1,-32
   12784:	00400613          	li	a2,4
   12788:	40a005b3          	neg	a1,a0
   1278c:	01f50513          	addi	a0,a0,31
   12790:	00a40533          	add	a0,s0,a0
   12794:	00b57533          	and	a0,a0,a1
   12798:	00b4f5b3          	and	a1,s1,a1
   1279c:	40a585b3          	sub	a1,a1,a0
   127a0:	728000ef          	jal	ra,12ec8 <__madvise>
   127a4:	07013403          	ld	s0,112(sp)
   127a8:	07813083          	ld	ra,120(sp)
   127ac:	06813483          	ld	s1,104(sp)
   127b0:	06013903          	ld	s2,96(sp)
   127b4:	05013a03          	ld	s4,80(sp)
   127b8:	04813a83          	ld	s5,72(sp)
   127bc:	04013b03          	ld	s6,64(sp)
   127c0:	03813b83          	ld	s7,56(sp)
   127c4:	03013c03          	ld	s8,48(sp)
   127c8:	02813c83          	ld	s9,40(sp)
   127cc:	02013d03          	ld	s10,32(sp)
   127d0:	01813d83          	ld	s11,24(sp)
   127d4:	00098513          	mv	a0,s3
   127d8:	05813983          	ld	s3,88(sp)
   127dc:	08010113          	addi	sp,sp,128
   127e0:	badff06f          	j	1238c <unlock>
   127e4:	00100793          	li	a5,1
   127e8:	01b797b3          	sll	a5,a5,s11
   127ec:	0007851b          	sext.w	a0,a5
   127f0:	02051e63          	bnez	a0,1282c <__bin_chunk+0x248>
   127f4:	4207d793          	srai	a5,a5,0x20
   127f8:	f40780e3          	beqz	a5,12738 <__bin_chunk+0x154>
   127fc:	0007879b          	sext.w	a5,a5
   12800:	00490593          	addi	a1,s2,4
   12804:	00492703          	lw	a4,4(s2)
   12808:	0007071b          	sext.w	a4,a4
   1280c:	00e7e533          	or	a0,a5,a4
   12810:	1605a62f          	lr.w.aqrl	a2,(a1)
   12814:	00e61663          	bne	a2,a4,12820 <__bin_chunk+0x23c>
   12818:	1ea5a82f          	sc.w.aqrl	a6,a0,(a1)
   1281c:	fe081ae3          	bnez	a6,12810 <__bin_chunk+0x22c>
   12820:	0006061b          	sext.w	a2,a2
   12824:	fec710e3          	bne	a4,a2,12804 <__bin_chunk+0x220>
   12828:	f11ff06f          	j	12738 <__bin_chunk+0x154>
   1282c:	00092703          	lw	a4,0(s2)
   12830:	0007071b          	sext.w	a4,a4
   12834:	00e565b3          	or	a1,a0,a4
   12838:	1609262f          	lr.w.aqrl	a2,(s2)
   1283c:	00e61663          	bne	a2,a4,12848 <__bin_chunk+0x264>
   12840:	1eb9282f          	sc.w.aqrl	a6,a1,(s2)
   12844:	fe081ae3          	bnez	a6,12838 <__bin_chunk+0x254>
   12848:	0006061b          	sext.w	a2,a2
   1284c:	fec710e3          	bne	a4,a2,1282c <__bin_chunk+0x248>
   12850:	fa5ff06f          	j	127f4 <__bin_chunk+0x210>

0000000000012854 <trim>:
   12854:	00853783          	ld	a5,8(a0)
   12858:	00050713          	mv	a4,a0
   1285c:	ffe7f793          	andi	a5,a5,-2
   12860:	ff078693          	addi	a3,a5,-16
   12864:	02d5f663          	bgeu	a1,a3,12890 <trim+0x3c>
   12868:	00b50533          	add	a0,a0,a1
   1286c:	0015e693          	ori	a3,a1,1
   12870:	40b785b3          	sub	a1,a5,a1
   12874:	0015e593          	ori	a1,a1,1
   12878:	00d53023          	sd	a3,0(a0)
   1287c:	00b53423          	sd	a1,8(a0)
   12880:	00f707b3          	add	a5,a4,a5
   12884:	00b7b023          	sd	a1,0(a5)
   12888:	00d73423          	sd	a3,8(a4)
   1288c:	d59ff06f          	j	125e4 <__bin_chunk>
   12890:	00008067          	ret

0000000000012894 <malloc>:
   12894:	f9010113          	addi	sp,sp,-112
   12898:	00a13423          	sd	a0,8(sp)
   1289c:	00810513          	addi	a0,sp,8
   128a0:	06113423          	sd	ra,104(sp)
   128a4:	06813023          	sd	s0,96(sp)
   128a8:	04913c23          	sd	s1,88(sp)
   128ac:	05213823          	sd	s2,80(sp)
   128b0:	05313423          	sd	s3,72(sp)
   128b4:	05413023          	sd	s4,64(sp)
   128b8:	03513c23          	sd	s5,56(sp)
   128bc:	03613823          	sd	s6,48(sp)
   128c0:	03713423          	sd	s7,40(sp)
   128c4:	03813023          	sd	s8,32(sp)
   128c8:	98dff0ef          	jal	ra,12254 <adjust_size>
   128cc:	02055e63          	bgez	a0,12908 <malloc+0x74>
   128d0:	00000413          	li	s0,0
   128d4:	06813083          	ld	ra,104(sp)
   128d8:	00040513          	mv	a0,s0
   128dc:	06013403          	ld	s0,96(sp)
   128e0:	05813483          	ld	s1,88(sp)
   128e4:	05013903          	ld	s2,80(sp)
   128e8:	04813983          	ld	s3,72(sp)
   128ec:	04013a03          	ld	s4,64(sp)
   128f0:	03813a83          	ld	s5,56(sp)
   128f4:	03013b03          	ld	s6,48(sp)
   128f8:	02813b83          	ld	s7,40(sp)
   128fc:	02013c03          	ld	s8,32(sp)
   12900:	07010113          	addi	sp,sp,112
   12904:	00008067          	ret
   12908:	00813783          	ld	a5,8(sp)
   1290c:	00038737          	lui	a4,0x38
   12910:	04f77a63          	bgeu	a4,a5,12964 <malloc+0xd0>
   12914:	af81b583          	ld	a1,-1288(gp) # 2c2f8 <__libc+0x38>
   12918:	02200693          	li	a3,34
   1291c:	fff00713          	li	a4,-1
   12920:	00b78433          	add	s0,a5,a1
   12924:	00f40413          	addi	s0,s0,15
   12928:	40b005b3          	neg	a1,a1
   1292c:	00b47433          	and	s0,s0,a1
   12930:	00000793          	li	a5,0
   12934:	00300613          	li	a2,3
   12938:	00040593          	mv	a1,s0
   1293c:	00000513          	li	a0,0
   12940:	5b0000ef          	jal	ra,12ef0 <__mmap>
   12944:	fff00793          	li	a5,-1
   12948:	f8f504e3          	beq	a0,a5,128d0 <malloc+0x3c>
   1294c:	ff040413          	addi	s0,s0,-16
   12950:	01000793          	li	a5,16
   12954:	00853c23          	sd	s0,24(a0)
   12958:	00f53823          	sd	a5,16(a0)
   1295c:	02050413          	addi	s0,a0,32
   12960:	f75ff06f          	j	128d4 <malloc+0x40>
   12964:	0057d793          	srli	a5,a5,0x5
   12968:	fff78493          	addi	s1,a5,-1
   1296c:	02000713          	li	a4,32
   12970:	06976263          	bltu	a4,s1,129d4 <malloc+0x140>
   12974:	0004849b          	sext.w	s1,s1
   12978:	9081bb03          	ld	s6,-1784(gp) # 2c108 <__SDATA_BEGIN__>
   1297c:	fff00993          	li	s3,-1
   12980:	00027a37          	lui	s4,0x27
   12984:	009999b3          	sll	s3,s3,s1
   12988:	bc018c13          	addi	s8,gp,-1088 # 2c3c0 <mal>
   1298c:	8d0a0a13          	addi	s4,s4,-1840 # 268d0 <debruijn64.0>
   12990:	01800a93          	li	s5,24
   12994:	000c3783          	ld	a5,0(s8)
   12998:	0137f733          	and	a4,a5,s3
   1299c:	10071c63          	bnez	a4,12ab4 <malloc+0x220>
   129a0:	00813783          	ld	a5,8(sp)
   129a4:	a0018513          	addi	a0,gp,-1536 # 2c200 <heap_lock.2>
   129a8:	02078793          	addi	a5,a5,32
   129ac:	00f13c23          	sd	a5,24(sp)
   129b0:	905ff0ef          	jal	ra,122b4 <lock>
   129b4:	01810513          	addi	a0,sp,24
   129b8:	2550b0ef          	jal	ra,1e40c <__expand_heap>
   129bc:	00050413          	mv	s0,a0
   129c0:	00048513          	mv	a0,s1
   129c4:	04041663          	bnez	s0,12a10 <malloc+0x17c>
   129c8:	a0018513          	addi	a0,gp,-1536 # 2c200 <heap_lock.2>
   129cc:	9c1ff0ef          	jal	ra,1238c <unlock>
   129d0:	f05ff06f          	j	128d4 <malloc+0x40>
   129d4:	00027737          	lui	a4,0x27
   129d8:	ffe78793          	addi	a5,a5,-2
   129dc:	1ff00693          	li	a3,511
   129e0:	89070713          	addi	a4,a4,-1904 # 26890 <bin_tab>
   129e4:	00f6ec63          	bltu	a3,a5,129fc <malloc+0x168>
   129e8:	0037d793          	srli	a5,a5,0x3
   129ec:	00f707b3          	add	a5,a4,a5
   129f0:	ffc7c483          	lbu	s1,-4(a5)
   129f4:	0014849b          	addiw	s1,s1,1
   129f8:	f81ff06f          	j	12978 <malloc+0xe4>
   129fc:	0077d793          	srli	a5,a5,0x7
   12a00:	00f707b3          	add	a5,a4,a5
   12a04:	ffc7c483          	lbu	s1,-4(a5)
   12a08:	0114849b          	addiw	s1,s1,17
   12a0c:	f6dff06f          	j	12978 <malloc+0xe4>
   12a10:	9f81b483          	ld	s1,-1544(gp) # 2c1f8 <end.1>
   12a14:	9f818713          	addi	a4,gp,-1544 # 2c1f8 <end.1>
   12a18:	00940e63          	beq	s0,s1,12a34 <malloc+0x1a0>
   12a1c:	01813783          	ld	a5,24(sp)
   12a20:	02040493          	addi	s1,s0,32
   12a24:	fe078793          	addi	a5,a5,-32
   12a28:	00f13c23          	sd	a5,24(sp)
   12a2c:	00100793          	li	a5,1
   12a30:	00f43823          	sd	a5,16(s0)
   12a34:	01813783          	ld	a5,24(sp)
   12a38:	a0018513          	addi	a0,gp,-1536 # 2c200 <heap_lock.2>
   12a3c:	ff048413          	addi	s0,s1,-16
   12a40:	00f486b3          	add	a3,s1,a5
   12a44:	00d73023          	sd	a3,0(a4)
   12a48:	0017e793          	ori	a5,a5,1
   12a4c:	00100713          	li	a4,1
   12a50:	fef6b823          	sd	a5,-16(a3)
   12a54:	fee6bc23          	sd	a4,-8(a3)
   12a58:	fef4bc23          	sd	a5,-8(s1)
   12a5c:	931ff0ef          	jal	ra,1238c <unlock>
   12a60:	00040513          	mv	a0,s0
   12a64:	a35ff0ef          	jal	ra,12498 <alloc_rev>
   12a68:	02050c63          	beqz	a0,12aa0 <malloc+0x20c>
   12a6c:	ff04b783          	ld	a5,-16(s1)
   12a70:	ff84b683          	ld	a3,-8(s1)
   12a74:	ffe7f793          	andi	a5,a5,-2
   12a78:	40f407b3          	sub	a5,s0,a5
   12a7c:	0087b703          	ld	a4,8(a5)
   12a80:	ffe77713          	andi	a4,a4,-2
   12a84:	00d70733          	add	a4,a4,a3
   12a88:	00e7b423          	sd	a4,8(a5)
   12a8c:	ff84b503          	ld	a0,-8(s1)
   12a90:	ffe57513          	andi	a0,a0,-2
   12a94:	00a40433          	add	s0,s0,a0
   12a98:	00e43023          	sd	a4,0(s0)
   12a9c:	00078413          	mv	s0,a5
   12aa0:	00813583          	ld	a1,8(sp)
   12aa4:	00040513          	mv	a0,s0
   12aa8:	01040413          	addi	s0,s0,16
   12aac:	da9ff0ef          	jal	ra,12854 <trim>
   12ab0:	e25ff06f          	j	128d4 <malloc+0x40>
   12ab4:	40e007b3          	neg	a5,a4
   12ab8:	00e7f7b3          	and	a5,a5,a4
   12abc:	036787b3          	mul	a5,a5,s6
   12ac0:	03a7d793          	srli	a5,a5,0x3a
   12ac4:	00fa07b3          	add	a5,s4,a5
   12ac8:	0007cb83          	lbu	s7,0(a5)
   12acc:	000b891b          	sext.w	s2,s7
   12ad0:	00090513          	mv	a0,s2
   12ad4:	869ff0ef          	jal	ra,1233c <lock_bin>
   12ad8:	035907b3          	mul	a5,s2,s5
   12adc:	00fc07b3          	add	a5,s8,a5
   12ae0:	0107b403          	ld	s0,16(a5)
   12ae4:	035b87b3          	mul	a5,s7,s5
   12ae8:	00878b93          	addi	s7,a5,8
   12aec:	00fc07b3          	add	a5,s8,a5
   12af0:	017c0bb3          	add	s7,s8,s7
   12af4:	0af40063          	beq	s0,a5,12b94 <malloc+0x300>
   12af8:	02700793          	li	a5,39
   12afc:	0327d663          	bge	a5,s2,12b28 <malloc+0x294>
   12b00:	0024849b          	addiw	s1,s1,2
   12b04:	00813983          	ld	s3,8(sp)
   12b08:	0324c863          	blt	s1,s2,12b38 <malloc+0x2a4>
   12b0c:	03f00793          	li	a5,63
   12b10:	00f91c63          	bne	s2,a5,12b28 <malloc+0x294>
   12b14:	00843483          	ld	s1,8(s0)
   12b18:	000387b7          	lui	a5,0x38
   12b1c:	ffe4f493          	andi	s1,s1,-2
   12b20:	41348733          	sub	a4,s1,s3
   12b24:	00e7ee63          	bltu	a5,a4,12b40 <malloc+0x2ac>
   12b28:	00090593          	mv	a1,s2
   12b2c:	00040513          	mv	a0,s0
   12b30:	8adff0ef          	jal	ra,123dc <unbin>
   12b34:	0540006f          	j	12b88 <malloc+0x2f4>
   12b38:	00843483          	ld	s1,8(s0)
   12b3c:	ffe4f493          	andi	s1,s1,-2
   12b40:	41348a33          	sub	s4,s1,s3
   12b44:	000a0513          	mv	a0,s4
   12b48:	ea8ff0ef          	jal	ra,121f0 <bin_index>
   12b4c:	fca91ee3          	bne	s2,a0,12b28 <malloc+0x294>
   12b50:	01843703          	ld	a4,24(s0)
   12b54:	01043683          	ld	a3,16(s0)
   12b58:	013407b3          	add	a5,s0,s3
   12b5c:	00e7bc23          	sd	a4,24(a5) # 38018 <__BSS_END__+0xb0a8>
   12b60:	00d7b823          	sd	a3,16(a5)
   12b64:	00f73823          	sd	a5,16(a4)
   12b68:	0107b703          	ld	a4,16(a5)
   12b6c:	0019e993          	ori	s3,s3,1
   12b70:	009404b3          	add	s1,s0,s1
   12b74:	00f73c23          	sd	a5,24(a4)
   12b78:	0137b023          	sd	s3,0(a5)
   12b7c:	0147b423          	sd	s4,8(a5)
   12b80:	0144b023          	sd	s4,0(s1)
   12b84:	01343423          	sd	s3,8(s0)
   12b88:	000b8513          	mv	a0,s7
   12b8c:	801ff0ef          	jal	ra,1238c <unlock>
   12b90:	f11ff06f          	j	12aa0 <malloc+0x20c>
   12b94:	000b8513          	mv	a0,s7
   12b98:	ff4ff0ef          	jal	ra,1238c <unlock>
   12b9c:	df9ff06f          	j	12994 <malloc+0x100>

0000000000012ba0 <calloc>:
   12ba0:	fd010113          	addi	sp,sp,-48
   12ba4:	02113423          	sd	ra,40(sp)
   12ba8:	02813023          	sd	s0,32(sp)
   12bac:	00913c23          	sd	s1,24(sp)
   12bb0:	02058a63          	beqz	a1,12be4 <calloc+0x44>
   12bb4:	02b537b3          	mulhu	a5,a0,a1
   12bb8:	02078663          	beqz	a5,12be4 <calloc+0x44>
   12bbc:	4140b0ef          	jal	ra,1dfd0 <__errno_location>
   12bc0:	00c00793          	li	a5,12
   12bc4:	00f52023          	sw	a5,0(a0)
   12bc8:	00000413          	li	s0,0
   12bcc:	02813083          	ld	ra,40(sp)
   12bd0:	00040513          	mv	a0,s0
   12bd4:	02013403          	ld	s0,32(sp)
   12bd8:	01813483          	ld	s1,24(sp)
   12bdc:	03010113          	addi	sp,sp,48
   12be0:	00008067          	ret
   12be4:	02a58633          	mul	a2,a1,a0
   12be8:	00060513          	mv	a0,a2
   12bec:	00c13423          	sd	a2,8(sp)
   12bf0:	ca5ff0ef          	jal	ra,12894 <malloc>
   12bf4:	00050413          	mv	s0,a0
   12bf8:	fc050ae3          	beqz	a0,12bcc <calloc+0x2c>
   12bfc:	9f41a783          	lw	a5,-1548(gp) # 2c1f4 <__malloc_replaced>
   12c00:	00813603          	ld	a2,8(sp)
   12c04:	04079e63          	bnez	a5,12c60 <calloc+0xc0>
   12c08:	ff853783          	ld	a5,-8(a0)
   12c0c:	0017f793          	andi	a5,a5,1
   12c10:	fa078ee3          	beqz	a5,12bcc <calloc+0x2c>
   12c14:	af81b483          	ld	s1,-1288(gp) # 2c2f8 <__libc+0x38>
   12c18:	04966463          	bltu	a2,s1,12c60 <calloc+0xc0>
   12c1c:	00c50533          	add	a0,a0,a2
   12c20:	fff48613          	addi	a2,s1,-1
   12c24:	00c57633          	and	a2,a0,a2
   12c28:	40c50533          	sub	a0,a0,a2
   12c2c:	00000593          	li	a1,0
   12c30:	571080ef          	jal	ra,1b9a0 <memset>
   12c34:	40850633          	sub	a2,a0,s0
   12c38:	02966463          	bltu	a2,s1,12c60 <calloc+0xc0>
   12c3c:	00048613          	mv	a2,s1
   12c40:	fe0604e3          	beqz	a2,12c28 <calloc+0x88>
   12c44:	ff853783          	ld	a5,-8(a0)
   12c48:	ff053703          	ld	a4,-16(a0)
   12c4c:	00e7e7b3          	or	a5,a5,a4
   12c50:	fc079ce3          	bnez	a5,12c28 <calloc+0x88>
   12c54:	ff060613          	addi	a2,a2,-16
   12c58:	ff050513          	addi	a0,a0,-16
   12c5c:	fe5ff06f          	j	12c40 <calloc+0xa0>
   12c60:	00040513          	mv	a0,s0
   12c64:	02013403          	ld	s0,32(sp)
   12c68:	02813083          	ld	ra,40(sp)
   12c6c:	01813483          	ld	s1,24(sp)
   12c70:	00000593          	li	a1,0
   12c74:	03010113          	addi	sp,sp,48
   12c78:	5290806f          	j	1b9a0 <memset>

0000000000012c7c <free>:
   12c7c:	00050793          	mv	a5,a0
   12c80:	02050e63          	beqz	a0,12cbc <free+0x40>
   12c84:	ff87b583          	ld	a1,-8(a5)
   12c88:	ff050513          	addi	a0,a0,-16
   12c8c:	0015f713          	andi	a4,a1,1
   12c90:	02071463          	bnez	a4,12cb8 <free+0x3c>
   12c94:	ff07b783          	ld	a5,-16(a5)
   12c98:	ffe5f593          	andi	a1,a1,-2
   12c9c:	40f50533          	sub	a0,a0,a5
   12ca0:	00f585b3          	add	a1,a1,a5
   12ca4:	0017f793          	andi	a5,a5,1
   12ca8:	00078663          	beqz	a5,12cb4 <free+0x38>
   12cac:	00000023          	sb	zero,0(zero) # 0 <exit-0x10120>
   12cb0:	00100073          	ebreak
   12cb4:	3980006f          	j	1304c <__munmap>
   12cb8:	92dff06f          	j	125e4 <__bin_chunk>
   12cbc:	00008067          	ret

0000000000012cc0 <realloc>:
   12cc0:	fa010113          	addi	sp,sp,-96
   12cc4:	04113c23          	sd	ra,88(sp)
   12cc8:	04813823          	sd	s0,80(sp)
   12ccc:	04913423          	sd	s1,72(sp)
   12cd0:	05213023          	sd	s2,64(sp)
   12cd4:	03313c23          	sd	s3,56(sp)
   12cd8:	03413823          	sd	s4,48(sp)
   12cdc:	03513423          	sd	s5,40(sp)
   12ce0:	03613023          	sd	s6,32(sp)
   12ce4:	01713c23          	sd	s7,24(sp)
   12ce8:	00b13423          	sd	a1,8(sp)
   12cec:	04051063          	bnez	a0,12d2c <realloc+0x6c>
   12cf0:	00058513          	mv	a0,a1
   12cf4:	ba1ff0ef          	jal	ra,12894 <malloc>
   12cf8:	00050413          	mv	s0,a0
   12cfc:	05813083          	ld	ra,88(sp)
   12d00:	00040513          	mv	a0,s0
   12d04:	05013403          	ld	s0,80(sp)
   12d08:	04813483          	ld	s1,72(sp)
   12d0c:	04013903          	ld	s2,64(sp)
   12d10:	03813983          	ld	s3,56(sp)
   12d14:	03013a03          	ld	s4,48(sp)
   12d18:	02813a83          	ld	s5,40(sp)
   12d1c:	02013b03          	ld	s6,32(sp)
   12d20:	01813b83          	ld	s7,24(sp)
   12d24:	06010113          	addi	sp,sp,96
   12d28:	00008067          	ret
   12d2c:	00050413          	mv	s0,a0
   12d30:	00810513          	addi	a0,sp,8
   12d34:	d20ff0ef          	jal	ra,12254 <adjust_size>
   12d38:	00055663          	bgez	a0,12d44 <realloc+0x84>
   12d3c:	00000413          	li	s0,0
   12d40:	fbdff06f          	j	12cfc <realloc+0x3c>
   12d44:	ff843783          	ld	a5,-8(s0)
   12d48:	ff040b13          	addi	s6,s0,-16
   12d4c:	0017f713          	andi	a4,a5,1
   12d50:	ffe7f993          	andi	s3,a5,-2
   12d54:	0a071a63          	bnez	a4,12e08 <realloc+0x148>
   12d58:	ff043a03          	ld	s4,-16(s0)
   12d5c:	00813503          	ld	a0,8(sp)
   12d60:	001a7793          	andi	a5,s4,1
   12d64:	014985b3          	add	a1,s3,s4
   12d68:	01450bb3          	add	s7,a0,s4
   12d6c:	00078663          	beqz	a5,12d78 <realloc+0xb8>
   12d70:	00000023          	sb	zero,0(zero) # 0 <exit-0x10120>
   12d74:	00100073          	ebreak
   12d78:	ac018713          	addi	a4,gp,-1344 # 2c2c0 <__libc>
   12d7c:	03873703          	ld	a4,56(a4)
   12d80:	ac018a93          	addi	s5,gp,-1344 # 2c2c0 <__libc>
   12d84:	04ebf063          	bgeu	s7,a4,12dc4 <realloc+0x104>
   12d88:	ff050513          	addi	a0,a0,-16
   12d8c:	00b13023          	sd	a1,0(sp)
   12d90:	b05ff0ef          	jal	ra,12894 <malloc>
   12d94:	00013583          	ld	a1,0(sp)
   12d98:	00050913          	mv	s2,a0
   12d9c:	02050463          	beqz	a0,12dc4 <realloc+0x104>
   12da0:	00813983          	ld	s3,8(sp)
   12da4:	00040593          	mv	a1,s0
   12da8:	ff098613          	addi	a2,s3,-16
   12dac:	00090513          	mv	a0,s2
   12db0:	7ac080ef          	jal	ra,1b55c <memcpy>
   12db4:	00040513          	mv	a0,s0
   12db8:	ec5ff0ef          	jal	ra,12c7c <free>
   12dbc:	00090413          	mv	s0,s2
   12dc0:	f3dff06f          	j	12cfc <realloc+0x3c>
   12dc4:	038ab603          	ld	a2,56(s5)
   12dc8:	fff60493          	addi	s1,a2,-1
   12dcc:	017484b3          	add	s1,s1,s7
   12dd0:	40c00633          	neg	a2,a2
   12dd4:	009674b3          	and	s1,a2,s1
   12dd8:	f29582e3          	beq	a1,s1,12cfc <realloc+0x3c>
   12ddc:	00100693          	li	a3,1
   12de0:	00048613          	mv	a2,s1
   12de4:	414b0533          	sub	a0,s6,s4
   12de8:	1d4000ef          	jal	ra,12fbc <__mremap>
   12dec:	fff00793          	li	a5,-1
   12df0:	06f50663          	beq	a0,a5,12e5c <realloc+0x19c>
   12df4:	01450433          	add	s0,a0,s4
   12df8:	414484b3          	sub	s1,s1,s4
   12dfc:	00943423          	sd	s1,8(s0)
   12e00:	01040413          	addi	s0,s0,16
   12e04:	ef9ff06f          	j	12cfc <realloc+0x3c>
   12e08:	013b04b3          	add	s1,s6,s3
   12e0c:	0004b703          	ld	a4,0(s1)
   12e10:	f6e790e3          	bne	a5,a4,12d70 <realloc+0xb0>
   12e14:	00813783          	ld	a5,8(sp)
   12e18:	00098913          	mv	s2,s3
   12e1c:	02f9f063          	bgeu	s3,a5,12e3c <realloc+0x17c>
   12e20:	00048513          	mv	a0,s1
   12e24:	f1cff0ef          	jal	ra,12540 <alloc_fwd>
   12e28:	00050a63          	beqz	a0,12e3c <realloc+0x17c>
   12e2c:	0084b783          	ld	a5,8(s1)
   12e30:	ffe7f793          	andi	a5,a5,-2
   12e34:	01378933          	add	s2,a5,s3
   12e38:	00f484b3          	add	s1,s1,a5
   12e3c:	00196793          	ori	a5,s2,1
   12e40:	00813583          	ld	a1,8(sp)
   12e44:	fef43c23          	sd	a5,-8(s0)
   12e48:	00f4b023          	sd	a5,0(s1)
   12e4c:	00b96863          	bltu	s2,a1,12e5c <realloc+0x19c>
   12e50:	000b0513          	mv	a0,s6
   12e54:	a01ff0ef          	jal	ra,12854 <trim>
   12e58:	ea5ff06f          	j	12cfc <realloc+0x3c>
   12e5c:	00813503          	ld	a0,8(sp)
   12e60:	ff050513          	addi	a0,a0,-16
   12e64:	a31ff0ef          	jal	ra,12894 <malloc>
   12e68:	00050913          	mv	s2,a0
   12e6c:	f2051ce3          	bnez	a0,12da4 <realloc+0xe4>
   12e70:	ecdff06f          	j	12d3c <realloc+0x7c>

0000000000012e74 <__malloc_donate>:
   12e74:	ff000793          	li	a5,-16
   12e78:	40a787b3          	sub	a5,a5,a0
   12e7c:	01f5f713          	andi	a4,a1,31
   12e80:	01f7f793          	andi	a5,a5,31
   12e84:	01070713          	addi	a4,a4,16
   12e88:	40a586b3          	sub	a3,a1,a0
   12e8c:	00f70733          	add	a4,a4,a5
   12e90:	02d77a63          	bgeu	a4,a3,12ec4 <__malloc_donate+0x50>
   12e94:	fe05f593          	andi	a1,a1,-32
   12e98:	00100693          	li	a3,1
   12e9c:	01078713          	addi	a4,a5,16
   12ea0:	00e50733          	add	a4,a0,a4
   12ea4:	fed5bc23          	sd	a3,-8(a1)
   12ea8:	fed73823          	sd	a3,-16(a4)
   12eac:	40e586b3          	sub	a3,a1,a4
   12eb0:	0016e693          	ori	a3,a3,1
   12eb4:	fed5b823          	sd	a3,-16(a1)
   12eb8:	fed73c23          	sd	a3,-8(a4)
   12ebc:	00f50533          	add	a0,a0,a5
   12ec0:	f24ff06f          	j	125e4 <__bin_chunk>
   12ec4:	00008067          	ret

0000000000012ec8 <__madvise>:
   12ec8:	ff010113          	addi	sp,sp,-16
   12ecc:	00113423          	sd	ra,8(sp)
   12ed0:	0e900893          	li	a7,233
   12ed4:	00000073          	ecall
   12ed8:	1740b0ef          	jal	ra,1e04c <__syscall_ret>
   12edc:	00813083          	ld	ra,8(sp)
   12ee0:	0005051b          	sext.w	a0,a0
   12ee4:	01010113          	addi	sp,sp,16
   12ee8:	00008067          	ret

0000000000012eec <dummy>:
   12eec:	00008067          	ret

0000000000012ef0 <__mmap>:
   12ef0:	fc010113          	addi	sp,sp,-64
   12ef4:	02813823          	sd	s0,48(sp)
   12ef8:	02113c23          	sd	ra,56(sp)
   12efc:	00068413          	mv	s0,a3
   12f00:	02913423          	sd	s1,40(sp)
   12f04:	03479693          	slli	a3,a5,0x34
   12f08:	02068463          	beqz	a3,12f30 <__mmap+0x40>
   12f0c:	0c40b0ef          	jal	ra,1dfd0 <__errno_location>
   12f10:	01600793          	li	a5,22
   12f14:	03813083          	ld	ra,56(sp)
   12f18:	03013403          	ld	s0,48(sp)
   12f1c:	00f52023          	sw	a5,0(a0)
   12f20:	02813483          	ld	s1,40(sp)
   12f24:	fff00513          	li	a0,-1
   12f28:	04010113          	addi	sp,sp,64
   12f2c:	00008067          	ret
   12f30:	ffd00693          	li	a3,-3
   12f34:	0016d693          	srli	a3,a3,0x1
   12f38:	00b6f863          	bgeu	a3,a1,12f48 <__mmap+0x58>
   12f3c:	0940b0ef          	jal	ra,1dfd0 <__errno_location>
   12f40:	00c00793          	li	a5,12
   12f44:	fd1ff06f          	j	12f14 <__mmap+0x24>
   12f48:	01047693          	andi	a3,s0,16
   12f4c:	00050493          	mv	s1,a0
   12f50:	02068463          	beqz	a3,12f78 <__mmap+0x88>
   12f54:	00f13c23          	sd	a5,24(sp)
   12f58:	00e13823          	sd	a4,16(sp)
   12f5c:	00c13423          	sd	a2,8(sp)
   12f60:	00b13023          	sd	a1,0(sp)
   12f64:	7300a0ef          	jal	ra,1d694 <__vm_wait>
   12f68:	01813783          	ld	a5,24(sp)
   12f6c:	01013703          	ld	a4,16(sp)
   12f70:	00813603          	ld	a2,8(sp)
   12f74:	00013583          	ld	a1,0(sp)
   12f78:	0de00893          	li	a7,222
   12f7c:	00048513          	mv	a0,s1
   12f80:	00040693          	mv	a3,s0
   12f84:	00000073          	ecall
   12f88:	fff00793          	li	a5,-1
   12f8c:	00f51c63          	bne	a0,a5,12fa4 <__mmap+0xb4>
   12f90:	00049a63          	bnez	s1,12fa4 <__mmap+0xb4>
   12f94:	03047413          	andi	s0,s0,48
   12f98:	02000793          	li	a5,32
   12f9c:	00f41463          	bne	s0,a5,12fa4 <__mmap+0xb4>
   12fa0:	ff400513          	li	a0,-12
   12fa4:	03013403          	ld	s0,48(sp)
   12fa8:	03813083          	ld	ra,56(sp)
   12fac:	02813483          	ld	s1,40(sp)
   12fb0:	04010113          	addi	sp,sp,64
   12fb4:	0980b06f          	j	1e04c <__syscall_ret>

0000000000012fb8 <dummy>:
   12fb8:	00008067          	ret

0000000000012fbc <__mremap>:
   12fbc:	fa010113          	addi	sp,sp,-96
   12fc0:	04f13423          	sd	a5,72(sp)
   12fc4:	ffd00793          	li	a5,-3
   12fc8:	02113c23          	sd	ra,56(sp)
   12fcc:	04e13023          	sd	a4,64(sp)
   12fd0:	05013823          	sd	a6,80(sp)
   12fd4:	05113c23          	sd	a7,88(sp)
   12fd8:	0017d793          	srli	a5,a5,0x1
   12fdc:	02c7f063          	bgeu	a5,a2,12ffc <__mremap+0x40>
   12fe0:	7f10a0ef          	jal	ra,1dfd0 <__errno_location>
   12fe4:	00c00793          	li	a5,12
   12fe8:	00f52023          	sw	a5,0(a0)
   12fec:	fff00513          	li	a0,-1
   12ff0:	03813083          	ld	ra,56(sp)
   12ff4:	06010113          	addi	sp,sp,96
   12ff8:	00008067          	ret
   12ffc:	0026f793          	andi	a5,a3,2
   13000:	00000713          	li	a4,0
   13004:	02078a63          	beqz	a5,13038 <__mremap+0x7c>
   13008:	00d13c23          	sd	a3,24(sp)
   1300c:	00c13823          	sd	a2,16(sp)
   13010:	00b13423          	sd	a1,8(sp)
   13014:	00a13023          	sd	a0,0(sp)
   13018:	67c0a0ef          	jal	ra,1d694 <__vm_wait>
   1301c:	04013703          	ld	a4,64(sp)
   13020:	01813683          	ld	a3,24(sp)
   13024:	01013603          	ld	a2,16(sp)
   13028:	00813583          	ld	a1,8(sp)
   1302c:	00013503          	ld	a0,0(sp)
   13030:	04010793          	addi	a5,sp,64
   13034:	02f13423          	sd	a5,40(sp)
   13038:	0d800893          	li	a7,216
   1303c:	00000073          	ecall
   13040:	00c0b0ef          	jal	ra,1e04c <__syscall_ret>
   13044:	fadff06f          	j	12ff0 <__mremap+0x34>

0000000000013048 <dummy>:
   13048:	00008067          	ret

000000000001304c <__munmap>:
   1304c:	fe010113          	addi	sp,sp,-32
   13050:	00113c23          	sd	ra,24(sp)
   13054:	00a13423          	sd	a0,8(sp)
   13058:	00b13023          	sd	a1,0(sp)
   1305c:	6380a0ef          	jal	ra,1d694 <__vm_wait>
   13060:	00813503          	ld	a0,8(sp)
   13064:	00013583          	ld	a1,0(sp)
   13068:	0d700893          	li	a7,215
   1306c:	00000073          	ecall
   13070:	7dd0a0ef          	jal	ra,1e04c <__syscall_ret>
   13074:	01813083          	ld	ra,24(sp)
   13078:	0005051b          	sext.w	a0,a0
   1307c:	02010113          	addi	sp,sp,32
   13080:	00008067          	ret

0000000000013084 <mbrtowc>:
   13084:	fe010113          	addi	sp,sp,-32
   13088:	00113c23          	sd	ra,24(sp)
   1308c:	00050813          	mv	a6,a0
   13090:	00069463          	bnez	a3,13098 <mbrtowc+0x14>
   13094:	a0818693          	addi	a3,gp,-1528 # 2c208 <internal_state.0>
   13098:	0006a783          	lw	a5,0(a3)
   1309c:	02059263          	bnez	a1,130c0 <mbrtowc+0x3c>
   130a0:	00000513          	li	a0,0
   130a4:	04078663          	beqz	a5,130f0 <mbrtowc+0x6c>
   130a8:	0006a023          	sw	zero,0(a3)
   130ac:	7250a0ef          	jal	ra,1dfd0 <__errno_location>
   130b0:	05400793          	li	a5,84
   130b4:	00f52023          	sw	a5,0(a0)
   130b8:	fff00513          	li	a0,-1
   130bc:	0340006f          	j	130f0 <mbrtowc+0x6c>
   130c0:	00081463          	bnez	a6,130c8 <mbrtowc+0x44>
   130c4:	00c10813          	addi	a6,sp,12
   130c8:	ffe00513          	li	a0,-2
   130cc:	02060263          	beqz	a2,130f0 <mbrtowc+0x6c>
   130d0:	08079a63          	bnez	a5,13164 <mbrtowc+0xe0>
   130d4:	0005c783          	lbu	a5,0(a1)
   130d8:	0187971b          	slliw	a4,a5,0x18
   130dc:	4187571b          	sraiw	a4,a4,0x18
   130e0:	00074e63          	bltz	a4,130fc <mbrtowc+0x78>
   130e4:	0007879b          	sext.w	a5,a5
   130e8:	00f82023          	sw	a5,0(a6) # 3000 <exit-0xd120>
   130ec:	00f03533          	snez	a0,a5
   130f0:	01813083          	ld	ra,24(sp)
   130f4:	02010113          	addi	sp,sp,32
   130f8:	00008067          	ret
   130fc:	00020513          	mv	a0,tp
   13100:	fd053503          	ld	a0,-48(a0)
   13104:	00053503          	ld	a0,0(a0)
   13108:	00051e63          	bnez	a0,13124 <mbrtowc+0xa0>
   1310c:	0000e7b7          	lui	a5,0xe
   13110:	fff78793          	addi	a5,a5,-1 # dfff <exit-0x2121>
   13114:	00f77733          	and	a4,a4,a5
   13118:	00e82023          	sw	a4,0(a6)
   1311c:	00100513          	li	a0,1
   13120:	fd1ff06f          	j	130f0 <mbrtowc+0x6c>
   13124:	f3e7879b          	addiw	a5,a5,-194
   13128:	0007851b          	sext.w	a0,a5
   1312c:	03200713          	li	a4,50
   13130:	f6a76ce3          	bltu	a4,a0,130a8 <mbrtowc+0x24>
   13134:	0002b737          	lui	a4,0x2b
   13138:	02079793          	slli	a5,a5,0x20
   1313c:	01e7d793          	srli	a5,a5,0x1e
   13140:	89070713          	addi	a4,a4,-1904 # 2a890 <__fsmu8>
   13144:	00f707b3          	add	a5,a4,a5
   13148:	fff60893          	addi	a7,a2,-1
   1314c:	0007a783          	lw	a5,0(a5)
   13150:	00158593          	addi	a1,a1,1
   13154:	00089a63          	bnez	a7,13168 <mbrtowc+0xe4>
   13158:	00f6a023          	sw	a5,0(a3)
   1315c:	ffe00513          	li	a0,-2
   13160:	f91ff06f          	j	130f0 <mbrtowc+0x6c>
   13164:	00060893          	mv	a7,a2
   13168:	0005c503          	lbu	a0,0(a1)
   1316c:	41a7d71b          	sraiw	a4,a5,0x1a
   13170:	0035551b          	srliw	a0,a0,0x3
   13174:	00a7073b          	addw	a4,a4,a0
   13178:	ff05051b          	addiw	a0,a0,-16
   1317c:	00a76733          	or	a4,a4,a0
   13180:	ff877713          	andi	a4,a4,-8
   13184:	0007071b          	sext.w	a4,a4
   13188:	f20710e3          	bnez	a4,130a8 <mbrtowc+0x24>
   1318c:	03f00513          	li	a0,63
   13190:	0005c703          	lbu	a4,0(a1)
   13194:	0067979b          	slliw	a5,a5,0x6
   13198:	00158593          	addi	a1,a1,1
   1319c:	f807071b          	addiw	a4,a4,-128
   131a0:	00f76733          	or	a4,a4,a5
   131a4:	0007079b          	sext.w	a5,a4
   131a8:	fff88893          	addi	a7,a7,-1
   131ac:	0007ce63          	bltz	a5,131c8 <mbrtowc+0x144>
   131b0:	02061513          	slli	a0,a2,0x20
   131b4:	02055513          	srli	a0,a0,0x20
   131b8:	0006a023          	sw	zero,0(a3)
   131bc:	00f82023          	sw	a5,0(a6)
   131c0:	41150533          	sub	a0,a0,a7
   131c4:	f2dff06f          	j	130f0 <mbrtowc+0x6c>
   131c8:	f80888e3          	beqz	a7,13158 <mbrtowc+0xd4>
   131cc:	0005c703          	lbu	a4,0(a1)
   131d0:	f807071b          	addiw	a4,a4,-128
   131d4:	fae57ee3          	bgeu	a0,a4,13190 <mbrtowc+0x10c>
   131d8:	ed1ff06f          	j	130a8 <mbrtowc+0x24>

00000000000131dc <mbstowcs>:
   131dc:	fe010113          	addi	sp,sp,-32
   131e0:	00b13423          	sd	a1,8(sp)
   131e4:	00000693          	li	a3,0
   131e8:	00810593          	addi	a1,sp,8
   131ec:	00113c23          	sd	ra,24(sp)
   131f0:	4fc0b0ef          	jal	ra,1e6ec <mbsrtowcs>
   131f4:	01813083          	ld	ra,24(sp)
   131f8:	02010113          	addi	sp,sp,32
   131fc:	00008067          	ret

0000000000013200 <__fork_handler>:
   13200:	00008067          	ret

0000000000013204 <fork>:
   13204:	f7010113          	addi	sp,sp,-144
   13208:	fff00513          	li	a0,-1
   1320c:	08113423          	sd	ra,136(sp)
   13210:	08813023          	sd	s0,128(sp)
   13214:	fedff0ef          	jal	ra,13200 <__fork_handler>
   13218:	00010513          	mv	a0,sp
   1321c:	260050ef          	jal	ra,1847c <__block_all_sigs>
   13220:	0dc00893          	li	a7,220
   13224:	01100513          	li	a0,17
   13228:	00000593          	li	a1,0
   1322c:	00000073          	ecall
   13230:	0005041b          	sext.w	s0,a0
   13234:	02041a63          	bnez	s0,13268 <fork+0x64>
   13238:	00020793          	mv	a5,tp
   1323c:	0b200893          	li	a7,178
   13240:	f2078713          	addi	a4,a5,-224
   13244:	00000073          	ecall
   13248:	fc07b023          	sd	zero,-64(a5)
   1324c:	f4a7ac23          	sw	a0,-168(a5)
   13250:	fa07bc23          	sd	zero,-72(a5)
   13254:	f2e7b823          	sd	a4,-208(a5)
   13258:	f2e7bc23          	sd	a4,-200(a5)
   1325c:	a401ac23          	sw	zero,-1448(gp) # 2c258 <__thread_list_lock>
   13260:	ac018793          	addi	a5,gp,-1344 # 2c2c0 <__libc>
   13264:	0007a623          	sw	zero,12(a5)
   13268:	00010513          	mv	a0,sp
   1326c:	248050ef          	jal	ra,184b4 <__restore_sigs>
   13270:	00143513          	seqz	a0,s0
   13274:	f8dff0ef          	jal	ra,13200 <__fork_handler>
   13278:	00040513          	mv	a0,s0
   1327c:	5d10a0ef          	jal	ra,1e04c <__syscall_ret>
   13280:	08813083          	ld	ra,136(sp)
   13284:	08013403          	ld	s0,128(sp)
   13288:	0005051b          	sext.w	a0,a0
   1328c:	09010113          	addi	sp,sp,144
   13290:	00008067          	ret

0000000000013294 <wait>:
   13294:	00050593          	mv	a1,a0
   13298:	00000613          	li	a2,0
   1329c:	fff00513          	li	a0,-1
   132a0:	0040006f          	j	132a4 <waitpid>

00000000000132a4 <waitpid>:
   132a4:	ff010113          	addi	sp,sp,-16
   132a8:	00060693          	mv	a3,a2
   132ac:	00000813          	li	a6,0
   132b0:	00058613          	mv	a2,a1
   132b4:	00000793          	li	a5,0
   132b8:	00050593          	mv	a1,a0
   132bc:	00000713          	li	a4,0
   132c0:	10400513          	li	a0,260
   132c4:	00113423          	sd	ra,8(sp)
   132c8:	0c4090ef          	jal	ra,1c38c <__syscall_cp>
   132cc:	5810a0ef          	jal	ra,1e04c <__syscall_ret>
   132d0:	00813083          	ld	ra,8(sp)
   132d4:	0005051b          	sext.w	a0,a0
   132d8:	01010113          	addi	sp,sp,16
   132dc:	00008067          	ret

00000000000132e0 <tre_stack_pop_int>:
   132e0:	00c52783          	lw	a5,12(a0)
   132e4:	01053703          	ld	a4,16(a0)
   132e8:	fff7869b          	addiw	a3,a5,-1
   132ec:	00369793          	slli	a5,a3,0x3
   132f0:	00f707b3          	add	a5,a4,a5
   132f4:	00d52623          	sw	a3,12(a0)
   132f8:	0007a503          	lw	a0,0(a5)
   132fc:	00008067          	ret

0000000000013300 <tre_stack_pop_voidptr>:
   13300:	00c52783          	lw	a5,12(a0)
   13304:	01053703          	ld	a4,16(a0)
   13308:	fff7869b          	addiw	a3,a5,-1
   1330c:	00369793          	slli	a5,a3,0x3
   13310:	00f707b3          	add	a5,a4,a5
   13314:	00d52623          	sw	a3,12(a0)
   13318:	0007b503          	ld	a0,0(a5)
   1331c:	00008067          	ret

0000000000013320 <tre_compare_lit>:
   13320:	00053783          	ld	a5,0(a0)
   13324:	0007b503          	ld	a0,0(a5)
   13328:	0005b783          	ld	a5,0(a1)
   1332c:	0007b783          	ld	a5,0(a5)
   13330:	40f5053b          	subw	a0,a0,a5
   13334:	00008067          	ret

0000000000013338 <tre_purge_regset>:
   13338:	00050693          	mv	a3,a0
   1333c:	0006a783          	lw	a5,0(a3)
   13340:	0007d863          	bgez	a5,13350 <tre_purge_regset+0x18>
   13344:	fff00793          	li	a5,-1
   13348:	00f52023          	sw	a5,0(a0)
   1334c:	00008067          	ret
   13350:	4017d713          	srai	a4,a5,0x1
   13354:	00471813          	slli	a6,a4,0x4
   13358:	0205b703          	ld	a4,32(a1)
   1335c:	0017f793          	andi	a5,a5,1
   13360:	01070733          	add	a4,a4,a6
   13364:	00079863          	bnez	a5,13374 <tre_purge_regset+0x3c>
   13368:	00c72023          	sw	a2,0(a4)
   1336c:	00468693          	addi	a3,a3,4
   13370:	fcdff06f          	j	1333c <tre_purge_regset+0x4>
   13374:	00c72223          	sw	a2,4(a4)
   13378:	ff5ff06f          	j	1336c <tre_purge_regset+0x34>

000000000001337c <tre_stack_destroy>:
   1337c:	ff010113          	addi	sp,sp,-16
   13380:	00813023          	sd	s0,0(sp)
   13384:	00050413          	mv	s0,a0
   13388:	01053503          	ld	a0,16(a0)
   1338c:	00113423          	sd	ra,8(sp)
   13390:	8edff0ef          	jal	ra,12c7c <free>
   13394:	00040513          	mv	a0,s0
   13398:	00013403          	ld	s0,0(sp)
   1339c:	00813083          	ld	ra,8(sp)
   133a0:	01010113          	addi	sp,sp,16
   133a4:	8d9ff06f          	j	12c7c <free>

00000000000133a8 <tre_stack_push>:
   133a8:	00c52783          	lw	a5,12(a0)
   133ac:	00052683          	lw	a3,0(a0)
   133b0:	fe010113          	addi	sp,sp,-32
   133b4:	00813823          	sd	s0,16(sp)
   133b8:	00913423          	sd	s1,8(sp)
   133bc:	00113c23          	sd	ra,24(sp)
   133c0:	01213023          	sd	s2,0(sp)
   133c4:	00050413          	mv	s0,a0
   133c8:	00058493          	mv	s1,a1
   133cc:	02d7d263          	bge	a5,a3,133f0 <tre_stack_push+0x48>
   133d0:	01053703          	ld	a4,16(a0)
   133d4:	00379693          	slli	a3,a5,0x3
   133d8:	0017879b          	addiw	a5,a5,1
   133dc:	00d70733          	add	a4,a4,a3
   133e0:	00b73023          	sd	a1,0(a4)
   133e4:	00f52623          	sw	a5,12(a0)
   133e8:	00000513          	li	a0,0
   133ec:	0100006f          	j	133fc <tre_stack_push+0x54>
   133f0:	00452703          	lw	a4,4(a0)
   133f4:	02e6c063          	blt	a3,a4,13414 <tre_stack_push+0x6c>
   133f8:	00c00513          	li	a0,12
   133fc:	01813083          	ld	ra,24(sp)
   13400:	01013403          	ld	s0,16(sp)
   13404:	00813483          	ld	s1,8(sp)
   13408:	00013903          	ld	s2,0(sp)
   1340c:	02010113          	addi	sp,sp,32
   13410:	00008067          	ret
   13414:	00852783          	lw	a5,8(a0)
   13418:	00070913          	mv	s2,a4
   1341c:	00d786bb          	addw	a3,a5,a3
   13420:	00e6d463          	bge	a3,a4,13428 <tre_stack_push+0x80>
   13424:	00068913          	mv	s2,a3
   13428:	01043503          	ld	a0,16(s0)
   1342c:	0009059b          	sext.w	a1,s2
   13430:	00359593          	slli	a1,a1,0x3
   13434:	88dff0ef          	jal	ra,12cc0 <realloc>
   13438:	fc0500e3          	beqz	a0,133f8 <tre_stack_push+0x50>
   1343c:	00a43823          	sd	a0,16(s0)
   13440:	01242023          	sw	s2,0(s0)
   13444:	00048593          	mv	a1,s1
   13448:	00040513          	mv	a0,s0
   1344c:	f5dff0ef          	jal	ra,133a8 <tre_stack_push>
   13450:	f99ff06f          	j	133e8 <tre_stack_push+0x40>

0000000000013454 <tre_stack_push_voidptr>:
   13454:	f55ff06f          	j	133a8 <tre_stack_push>

0000000000013458 <tre_match_empty>:
   13458:	f9010113          	addi	sp,sp,-112
   1345c:	04913c23          	sd	s1,88(sp)
   13460:	05213823          	sd	s2,80(sp)
   13464:	05313423          	sd	s3,72(sp)
   13468:	05413023          	sd	s4,64(sp)
   1346c:	03613823          	sd	s6,48(sp)
   13470:	06113423          	sd	ra,104(sp)
   13474:	06813023          	sd	s0,96(sp)
   13478:	03513c23          	sd	s5,56(sp)
   1347c:	03713423          	sd	s7,40(sp)
   13480:	03813023          	sd	s8,32(sp)
   13484:	01913c23          	sd	s9,24(sp)
   13488:	01a13823          	sd	s10,16(sp)
   1348c:	01b13423          	sd	s11,8(sp)
   13490:	00c52b03          	lw	s6,12(a0)
   13494:	00050493          	mv	s1,a0
   13498:	00060993          	mv	s3,a2
   1349c:	00068a13          	mv	s4,a3
   134a0:	00070913          	mv	s2,a4
   134a4:	00070463          	beqz	a4,134ac <tre_match_empty+0x54>
   134a8:	00072023          	sw	zero,0(a4)
   134ac:	00048513          	mv	a0,s1
   134b0:	fa5ff0ef          	jal	ra,13454 <tre_stack_push_voidptr>
   134b4:	00050413          	mv	s0,a0
   134b8:	00200a93          	li	s5,2
   134bc:	00300b93          	li	s7,3
   134c0:	ffd00c13          	li	s8,-3
   134c4:	04041e63          	bnez	s0,13520 <tre_match_empty+0xc8>
   134c8:	fff00d13          	li	s10,-1
   134cc:	ffe00d93          	li	s11,-2
   134d0:	0480006f          	j	13518 <tre_match_empty+0xc0>
   134d4:	00048513          	mv	a0,s1
   134d8:	e29ff0ef          	jal	ra,13300 <tre_stack_pop_voidptr>
   134dc:	00052783          	lw	a5,0(a0)
   134e0:	11578e63          	beq	a5,s5,135fc <tre_match_empty+0x1a4>
   134e4:	02fae863          	bltu	s5,a5,13514 <tre_match_empty+0xbc>
   134e8:	00853c83          	ld	s9,8(a0)
   134ec:	0e079a63          	bnez	a5,135e0 <tre_match_empty+0x188>
   134f0:	000cb783          	ld	a5,0(s9) # 28000 <table+0x140>
   134f4:	07878663          	beq	a5,s8,13560 <tre_match_empty+0x108>
   134f8:	03b79063          	bne	a5,s11,13518 <tre_match_empty+0xc0>
   134fc:	000a0e63          	beqz	s4,13518 <tre_match_empty+0xc0>
   13500:	008cb783          	ld	a5,8(s9)
   13504:	000a2703          	lw	a4,0(s4)
   13508:	00e7e7b3          	or	a5,a5,a4
   1350c:	00fa2023          	sw	a5,0(s4)
   13510:	0080006f          	j	13518 <tre_match_empty+0xc0>
   13514:	09778e63          	beq	a5,s7,135b0 <tre_match_empty+0x158>
   13518:	00c4a783          	lw	a5,12(s1)
   1351c:	fafb4ce3          	blt	s6,a5,134d4 <tre_match_empty+0x7c>
   13520:	06813083          	ld	ra,104(sp)
   13524:	00040513          	mv	a0,s0
   13528:	06013403          	ld	s0,96(sp)
   1352c:	05813483          	ld	s1,88(sp)
   13530:	05013903          	ld	s2,80(sp)
   13534:	04813983          	ld	s3,72(sp)
   13538:	04013a03          	ld	s4,64(sp)
   1353c:	03813a83          	ld	s5,56(sp)
   13540:	03013b03          	ld	s6,48(sp)
   13544:	02813b83          	ld	s7,40(sp)
   13548:	02013c03          	ld	s8,32(sp)
   1354c:	01813c83          	ld	s9,24(sp)
   13550:	01013d03          	ld	s10,16(sp)
   13554:	00813d83          	ld	s11,8(sp)
   13558:	07010113          	addi	sp,sp,112
   1355c:	00008067          	ret
   13560:	008cb683          	ld	a3,8(s9)
   13564:	fa06cae3          	bltz	a3,13518 <tre_match_empty+0xc0>
   13568:	02098a63          	beqz	s3,1359c <tre_match_empty+0x144>
   1356c:	00098713          	mv	a4,s3
   13570:	00000793          	li	a5,0
   13574:	00072603          	lw	a2,0(a4)
   13578:	00178793          	addi	a5,a5,1
   1357c:	00065c63          	bgez	a2,13594 <tre_match_empty+0x13c>
   13580:	00279793          	slli	a5,a5,0x2
   13584:	00d72023          	sw	a3,0(a4)
   13588:	00f987b3          	add	a5,s3,a5
   1358c:	01a7a023          	sw	s10,0(a5)
   13590:	00c0006f          	j	1359c <tre_match_empty+0x144>
   13594:	00470713          	addi	a4,a4,4
   13598:	fcc69ee3          	bne	a3,a2,13574 <tre_match_empty+0x11c>
   1359c:	f6090ee3          	beqz	s2,13518 <tre_match_empty+0xc0>
   135a0:	00092783          	lw	a5,0(s2)
   135a4:	0017879b          	addiw	a5,a5,1
   135a8:	00f92023          	sw	a5,0(s2)
   135ac:	f6dff06f          	j	13518 <tre_match_empty+0xc0>
   135b0:	00853783          	ld	a5,8(a0)
   135b4:	0007b583          	ld	a1,0(a5)
   135b8:	0105a703          	lw	a4,16(a1)
   135bc:	00070a63          	beqz	a4,135d0 <tre_match_empty+0x178>
   135c0:	00048513          	mv	a0,s1
   135c4:	e91ff0ef          	jal	ra,13454 <tre_stack_push_voidptr>
   135c8:	00050413          	mv	s0,a0
   135cc:	ef9ff06f          	j	134c4 <tre_match_empty+0x6c>
   135d0:	0087b583          	ld	a1,8(a5)
   135d4:	0105a783          	lw	a5,16(a1)
   135d8:	f40780e3          	beqz	a5,13518 <tre_match_empty+0xc0>
   135dc:	fe5ff06f          	j	135c0 <tre_match_empty+0x168>
   135e0:	000cb583          	ld	a1,0(s9)
   135e4:	00048513          	mv	a0,s1
   135e8:	e6dff0ef          	jal	ra,13454 <tre_stack_push_voidptr>
   135ec:	00050413          	mv	s0,a0
   135f0:	f20518e3          	bnez	a0,13520 <tre_match_empty+0xc8>
   135f4:	008cb583          	ld	a1,8(s9)
   135f8:	fc9ff06f          	j	135c0 <tre_match_empty+0x168>
   135fc:	00853783          	ld	a5,8(a0)
   13600:	0007b583          	ld	a1,0(a5)
   13604:	fd1ff06f          	j	135d4 <tre_match_empty+0x17c>

0000000000013608 <tre_stack_push_int>:
   13608:	02059593          	slli	a1,a1,0x20
   1360c:	0205d593          	srli	a1,a1,0x20
   13610:	d99ff06f          	j	133a8 <tre_stack_push>

0000000000013614 <tre_new_lit>:
   13614:	01452783          	lw	a5,20(a0)
   13618:	01052703          	lw	a4,16(a0)
   1361c:	fe010113          	addi	sp,sp,-32
   13620:	00813823          	sd	s0,16(sp)
   13624:	00113c23          	sd	ra,24(sp)
   13628:	00913423          	sd	s1,8(sp)
   1362c:	00050413          	mv	s0,a0
   13630:	04f74063          	blt	a4,a5,13670 <tre_new_lit+0x5c>
   13634:	00008737          	lui	a4,0x8
   13638:	00e7ce63          	blt	a5,a4,13654 <tre_new_lit+0x40>
   1363c:	00000513          	li	a0,0
   13640:	01813083          	ld	ra,24(sp)
   13644:	01013403          	ld	s0,16(sp)
   13648:	00813483          	ld	s1,8(sp)
   1364c:	02010113          	addi	sp,sp,32
   13650:	00008067          	ret
   13654:	00853503          	ld	a0,8(a0)
   13658:	0017959b          	slliw	a1,a5,0x1
   1365c:	00b42a23          	sw	a1,20(s0)
   13660:	00359593          	slli	a1,a1,0x3
   13664:	e5cff0ef          	jal	ra,12cc0 <realloc>
   13668:	fc050ae3          	beqz	a0,1363c <tre_new_lit+0x28>
   1366c:	00a43423          	sd	a0,8(s0)
   13670:	01042783          	lw	a5,16(s0)
   13674:	00843483          	ld	s1,8(s0)
   13678:	00043503          	ld	a0,0(s0)
   1367c:	0017871b          	addiw	a4,a5,1
   13680:	00e42823          	sw	a4,16(s0)
   13684:	00379793          	slli	a5,a5,0x3
   13688:	02800713          	li	a4,40
   1368c:	00100693          	li	a3,1
   13690:	00000613          	li	a2,0
   13694:	00000593          	li	a1,0
   13698:	00f484b3          	add	s1,s1,a5
   1369c:	4a5040ef          	jal	ra,18340 <__tre_mem_alloc_impl>
   136a0:	00a4b023          	sd	a0,0(s1)
   136a4:	f9dff06f          	j	13640 <tre_new_lit+0x2c>

00000000000136a8 <tre_ast_new_node>:
   136a8:	fe010113          	addi	sp,sp,-32
   136ac:	00813823          	sd	s0,16(sp)
   136b0:	00913423          	sd	s1,8(sp)
   136b4:	00060413          	mv	s0,a2
   136b8:	00058493          	mv	s1,a1
   136bc:	03000713          	li	a4,48
   136c0:	00100693          	li	a3,1
   136c4:	00000613          	li	a2,0
   136c8:	00000593          	li	a1,0
   136cc:	00113c23          	sd	ra,24(sp)
   136d0:	471040ef          	jal	ra,18340 <__tre_mem_alloc_impl>
   136d4:	00050c63          	beqz	a0,136ec <tre_ast_new_node+0x44>
   136d8:	02040463          	beqz	s0,13700 <tre_ast_new_node+0x58>
   136dc:	fff00793          	li	a5,-1
   136e0:	00853423          	sd	s0,8(a0)
   136e4:	00952023          	sw	s1,0(a0)
   136e8:	00f53823          	sd	a5,16(a0)
   136ec:	01813083          	ld	ra,24(sp)
   136f0:	01013403          	ld	s0,16(sp)
   136f4:	00813483          	ld	s1,8(sp)
   136f8:	02010113          	addi	sp,sp,32
   136fc:	00008067          	ret
   13700:	00000513          	li	a0,0
   13704:	fe9ff06f          	j	136ec <tre_ast_new_node+0x44>

0000000000013708 <tre_ast_new_iter>:
   13708:	fc010113          	addi	sp,sp,-64
   1370c:	02913423          	sd	s1,40(sp)
   13710:	03213023          	sd	s2,32(sp)
   13714:	01313c23          	sd	s3,24(sp)
   13718:	01413823          	sd	s4,16(sp)
   1371c:	00058913          	mv	s2,a1
   13720:	00060a13          	mv	s4,a2
   13724:	00000593          	li	a1,0
   13728:	00000613          	li	a2,0
   1372c:	00068993          	mv	s3,a3
   13730:	00070493          	mv	s1,a4
   13734:	00100693          	li	a3,1
   13738:	01800713          	li	a4,24
   1373c:	02813823          	sd	s0,48(sp)
   13740:	01513423          	sd	s5,8(sp)
   13744:	02113c23          	sd	ra,56(sp)
   13748:	00050a93          	mv	s5,a0
   1374c:	3f5040ef          	jal	ra,18340 <__tre_mem_alloc_impl>
   13750:	00050413          	mv	s0,a0
   13754:	00050613          	mv	a2,a0
   13758:	00200593          	li	a1,2
   1375c:	000a8513          	mv	a0,s5
   13760:	f49ff0ef          	jal	ra,136a8 <tre_ast_new_node>
   13764:	02050663          	beqz	a0,13790 <tre_ast_new_iter+0x88>
   13768:	01044703          	lbu	a4,16(s0)
   1376c:	0014f493          	andi	s1,s1,1
   13770:	01243023          	sd	s2,0(s0)
   13774:	ffe77713          	andi	a4,a4,-2
   13778:	00976733          	or	a4,a4,s1
   1377c:	00e40823          	sb	a4,16(s0)
   13780:	01892783          	lw	a5,24(s2)
   13784:	01442423          	sw	s4,8(s0)
   13788:	01342623          	sw	s3,12(s0)
   1378c:	00f52c23          	sw	a5,24(a0)
   13790:	03813083          	ld	ra,56(sp)
   13794:	03013403          	ld	s0,48(sp)
   13798:	02813483          	ld	s1,40(sp)
   1379c:	02013903          	ld	s2,32(sp)
   137a0:	01813983          	ld	s3,24(sp)
   137a4:	01013a03          	ld	s4,16(sp)
   137a8:	00813a83          	ld	s5,8(sp)
   137ac:	04010113          	addi	sp,sp,64
   137b0:	00008067          	ret

00000000000137b4 <tre_ast_new_literal>:
   137b4:	fd010113          	addi	sp,sp,-48
   137b8:	00913c23          	sd	s1,24(sp)
   137bc:	01213823          	sd	s2,16(sp)
   137c0:	01313423          	sd	s3,8(sp)
   137c4:	00060913          	mv	s2,a2
   137c8:	00058993          	mv	s3,a1
   137cc:	00000613          	li	a2,0
   137d0:	00000593          	li	a1,0
   137d4:	00068493          	mv	s1,a3
   137d8:	02800713          	li	a4,40
   137dc:	00100693          	li	a3,1
   137e0:	02813023          	sd	s0,32(sp)
   137e4:	01413023          	sd	s4,0(sp)
   137e8:	02113423          	sd	ra,40(sp)
   137ec:	00050a13          	mv	s4,a0
   137f0:	351040ef          	jal	ra,18340 <__tre_mem_alloc_impl>
   137f4:	00050413          	mv	s0,a0
   137f8:	00050613          	mv	a2,a0
   137fc:	00000593          	li	a1,0
   13800:	000a0513          	mv	a0,s4
   13804:	ea5ff0ef          	jal	ra,136a8 <tre_ast_new_node>
   13808:	00050863          	beqz	a0,13818 <tre_ast_new_literal+0x64>
   1380c:	01343023          	sd	s3,0(s0)
   13810:	01243423          	sd	s2,8(s0)
   13814:	00942823          	sw	s1,16(s0)
   13818:	02813083          	ld	ra,40(sp)
   1381c:	02013403          	ld	s0,32(sp)
   13820:	01813483          	ld	s1,24(sp)
   13824:	01013903          	ld	s2,16(sp)
   13828:	00813983          	ld	s3,8(sp)
   1382c:	00013a03          	ld	s4,0(sp)
   13830:	03010113          	addi	sp,sp,48
   13834:	00008067          	ret

0000000000013838 <tre_add_tag_left>:
   13838:	fd010113          	addi	sp,sp,-48
   1383c:	02813023          	sd	s0,32(sp)
   13840:	01313423          	sd	s3,8(sp)
   13844:	00058413          	mv	s0,a1
   13848:	00060993          	mv	s3,a2
   1384c:	01000713          	li	a4,16
   13850:	00000693          	li	a3,0
   13854:	00000613          	li	a2,0
   13858:	00000593          	li	a1,0
   1385c:	01213823          	sd	s2,16(sp)
   13860:	02113423          	sd	ra,40(sp)
   13864:	00913c23          	sd	s1,24(sp)
   13868:	00050913          	mv	s2,a0
   1386c:	2d5040ef          	jal	ra,18340 <__tre_mem_alloc_impl>
   13870:	02051263          	bnez	a0,13894 <tre_add_tag_left+0x5c>
   13874:	00c00513          	li	a0,12
   13878:	02813083          	ld	ra,40(sp)
   1387c:	02013403          	ld	s0,32(sp)
   13880:	01813483          	ld	s1,24(sp)
   13884:	01013903          	ld	s2,16(sp)
   13888:	00813983          	ld	s3,8(sp)
   1388c:	03010113          	addi	sp,sp,48
   13890:	00008067          	ret
   13894:	00050493          	mv	s1,a0
   13898:	fff00693          	li	a3,-1
   1389c:	00098613          	mv	a2,s3
   138a0:	ffd00593          	li	a1,-3
   138a4:	00090513          	mv	a0,s2
   138a8:	f0dff0ef          	jal	ra,137b4 <tre_ast_new_literal>
   138ac:	00a4b023          	sd	a0,0(s1)
   138b0:	fc0502e3          	beqz	a0,13874 <tre_add_tag_left+0x3c>
   138b4:	03000713          	li	a4,48
   138b8:	00000693          	li	a3,0
   138bc:	00000613          	li	a2,0
   138c0:	00000593          	li	a1,0
   138c4:	00090513          	mv	a0,s2
   138c8:	279040ef          	jal	ra,18340 <__tre_mem_alloc_impl>
   138cc:	00a4b423          	sd	a0,8(s1)
   138d0:	fa0502e3          	beqz	a0,13874 <tre_add_tag_left+0x3c>
   138d4:	00843783          	ld	a5,8(s0)
   138d8:	00f53423          	sd	a5,8(a0)
   138dc:	00042783          	lw	a5,0(s0)
   138e0:	00053c23          	sd	zero,24(a0)
   138e4:	02053023          	sd	zero,32(a0)
   138e8:	00f52023          	sw	a5,0(a0)
   138ec:	fff00793          	li	a5,-1
   138f0:	00f53823          	sd	a5,16(a0)
   138f4:	02053423          	sd	zero,40(a0)
   138f8:	00100793          	li	a5,1
   138fc:	00943423          	sd	s1,8(s0)
   13900:	00f42023          	sw	a5,0(s0)
   13904:	00000513          	li	a0,0
   13908:	f71ff06f          	j	13878 <tre_add_tag_left+0x40>

000000000001390c <tre_add_tag_right>:
   1390c:	fd010113          	addi	sp,sp,-48
   13910:	02813023          	sd	s0,32(sp)
   13914:	01313423          	sd	s3,8(sp)
   13918:	00058413          	mv	s0,a1
   1391c:	00060993          	mv	s3,a2
   13920:	01000713          	li	a4,16
   13924:	00000693          	li	a3,0
   13928:	00000613          	li	a2,0
   1392c:	00000593          	li	a1,0
   13930:	01213823          	sd	s2,16(sp)
   13934:	02113423          	sd	ra,40(sp)
   13938:	00913c23          	sd	s1,24(sp)
   1393c:	00050913          	mv	s2,a0
   13940:	201040ef          	jal	ra,18340 <__tre_mem_alloc_impl>
   13944:	02051263          	bnez	a0,13968 <tre_add_tag_right+0x5c>
   13948:	00c00513          	li	a0,12
   1394c:	02813083          	ld	ra,40(sp)
   13950:	02013403          	ld	s0,32(sp)
   13954:	01813483          	ld	s1,24(sp)
   13958:	01013903          	ld	s2,16(sp)
   1395c:	00813983          	ld	s3,8(sp)
   13960:	03010113          	addi	sp,sp,48
   13964:	00008067          	ret
   13968:	00050493          	mv	s1,a0
   1396c:	fff00693          	li	a3,-1
   13970:	00098613          	mv	a2,s3
   13974:	ffd00593          	li	a1,-3
   13978:	00090513          	mv	a0,s2
   1397c:	e39ff0ef          	jal	ra,137b4 <tre_ast_new_literal>
   13980:	00a4b423          	sd	a0,8(s1)
   13984:	fc0502e3          	beqz	a0,13948 <tre_add_tag_right+0x3c>
   13988:	03000713          	li	a4,48
   1398c:	00000693          	li	a3,0
   13990:	00000613          	li	a2,0
   13994:	00000593          	li	a1,0
   13998:	00090513          	mv	a0,s2
   1399c:	1a5040ef          	jal	ra,18340 <__tre_mem_alloc_impl>
   139a0:	00a4b023          	sd	a0,0(s1)
   139a4:	fa0502e3          	beqz	a0,13948 <tre_add_tag_right+0x3c>
   139a8:	00843783          	ld	a5,8(s0)
   139ac:	00f53423          	sd	a5,8(a0)
   139b0:	00042783          	lw	a5,0(s0)
   139b4:	00053c23          	sd	zero,24(a0)
   139b8:	02053023          	sd	zero,32(a0)
   139bc:	00f52023          	sw	a5,0(a0)
   139c0:	fff00793          	li	a5,-1
   139c4:	00f53823          	sd	a5,16(a0)
   139c8:	02053423          	sd	zero,40(a0)
   139cc:	00100793          	li	a5,1
   139d0:	00943423          	sd	s1,8(s0)
   139d4:	00f42023          	sw	a5,0(s0)
   139d8:	00000513          	li	a0,0
   139dc:	f71ff06f          	j	1394c <tre_add_tag_right+0x40>

00000000000139e0 <tre_add_tags>:
   139e0:	00c5a783          	lw	a5,12(a1)
   139e4:	f3010113          	addi	sp,sp,-208
   139e8:	0c813023          	sd	s0,192(sp)
   139ec:	0b213823          	sd	s2,176(sp)
   139f0:	0b313423          	sd	s3,168(sp)
   139f4:	09813023          	sd	s8,128(sp)
   139f8:	0c113423          	sd	ra,200(sp)
   139fc:	0a913c23          	sd	s1,184(sp)
   13a00:	0b413023          	sd	s4,160(sp)
   13a04:	09513c23          	sd	s5,152(sp)
   13a08:	09613823          	sd	s6,144(sp)
   13a0c:	09713423          	sd	s7,136(sp)
   13a10:	07913c23          	sd	s9,120(sp)
   13a14:	07a13823          	sd	s10,112(sp)
   13a18:	07b13423          	sd	s11,104(sp)
   13a1c:	02a13423          	sd	a0,40(sp)
   13a20:	04f13023          	sd	a5,64(sp)
   13a24:	00058413          	mv	s0,a1
   13a28:	00060993          	mv	s3,a2
   13a2c:	00068913          	mv	s2,a3
   13a30:	00100c13          	li	s8,1
   13a34:	00050e63          	beqz	a0,13a50 <tre_add_tags+0x70>
   13a38:	00068c63          	beqz	a3,13a50 <tre_add_tags+0x70>
   13a3c:	0406b783          	ld	a5,64(a3)
   13a40:	0406a823          	sw	zero,80(a3)
   13a44:	fff00713          	li	a4,-1
   13a48:	00e7a023          	sw	a4,0(a5)
   13a4c:	00000c13          	li	s8,0
   13a50:	03492503          	lw	a0,52(s2)
   13a54:	00c00493          	li	s1,12
   13a58:	0015051b          	addiw	a0,a0,1
   13a5c:	0015151b          	slliw	a0,a0,0x1
   13a60:	02051513          	slli	a0,a0,0x20
   13a64:	01e55513          	srli	a0,a0,0x1e
   13a68:	e2dfe0ef          	jal	ra,12894 <malloc>
   13a6c:	02a13023          	sd	a0,32(sp)
   13a70:	02050a63          	beqz	a0,13aa4 <tre_add_tags+0xc4>
   13a74:	fff00493          	li	s1,-1
   13a78:	00952023          	sw	s1,0(a0)
   13a7c:	03492503          	lw	a0,52(s2)
   13a80:	0015051b          	addiw	a0,a0,1
   13a84:	02051513          	slli	a0,a0,0x20
   13a88:	01e55513          	srli	a0,a0,0x1e
   13a8c:	e09fe0ef          	jal	ra,12894 <malloc>
   13a90:	00a13423          	sd	a0,8(sp)
   13a94:	04051863          	bnez	a0,13ae4 <tre_add_tags+0x104>
   13a98:	02013503          	ld	a0,32(sp)
   13a9c:	9e0ff0ef          	jal	ra,12c7c <free>
   13aa0:	00c00493          	li	s1,12
   13aa4:	0c813083          	ld	ra,200(sp)
   13aa8:	0c013403          	ld	s0,192(sp)
   13aac:	0b013903          	ld	s2,176(sp)
   13ab0:	0a813983          	ld	s3,168(sp)
   13ab4:	0a013a03          	ld	s4,160(sp)
   13ab8:	09813a83          	ld	s5,152(sp)
   13abc:	09013b03          	ld	s6,144(sp)
   13ac0:	08813b83          	ld	s7,136(sp)
   13ac4:	08013c03          	ld	s8,128(sp)
   13ac8:	07813c83          	ld	s9,120(sp)
   13acc:	07013d03          	ld	s10,112(sp)
   13ad0:	06813d83          	ld	s11,104(sp)
   13ad4:	00048513          	mv	a0,s1
   13ad8:	0b813483          	ld	s1,184(sp)
   13adc:	0d010113          	addi	sp,sp,208
   13ae0:	00008067          	ret
   13ae4:	00813783          	ld	a5,8(sp)
   13ae8:	0097a023          	sw	s1,0(a5)
   13aec:	03492503          	lw	a0,52(s2)
   13af0:	0015051b          	addiw	a0,a0,1
   13af4:	02051513          	slli	a0,a0,0x20
   13af8:	01d55513          	srli	a0,a0,0x1d
   13afc:	d99fe0ef          	jal	ra,12894 <malloc>
   13b00:	02a13823          	sd	a0,48(sp)
   13b04:	00051a63          	bnez	a0,13b18 <tre_add_tags+0x138>
   13b08:	02013503          	ld	a0,32(sp)
   13b0c:	970ff0ef          	jal	ra,12c7c <free>
   13b10:	00813503          	ld	a0,8(sp)
   13b14:	f89ff06f          	j	13a9c <tre_add_tags+0xbc>
   13b18:	03492683          	lw	a3,52(s2)
   13b1c:	00000713          	li	a4,0
   13b20:	fff00613          	li	a2,-1
   13b24:	03013583          	ld	a1,48(sp)
   13b28:	02071793          	slli	a5,a4,0x20
   13b2c:	01d7d793          	srli	a5,a5,0x1d
   13b30:	00f587b3          	add	a5,a1,a5
   13b34:	00c7a023          	sw	a2,0(a5)
   13b38:	0017071b          	addiw	a4,a4,1
   13b3c:	fee6f4e3          	bgeu	a3,a4,13b24 <tre_add_tags+0x144>
   13b40:	00098593          	mv	a1,s3
   13b44:	00040513          	mv	a0,s0
   13b48:	90dff0ef          	jal	ra,13454 <tre_stack_push_voidptr>
   13b4c:	00000593          	li	a1,0
   13b50:	00040513          	mv	a0,s0
   13b54:	ab5ff0ef          	jal	ra,13608 <tre_stack_push_int>
   13b58:	000277b7          	lui	a5,0x27
   13b5c:	02013983          	ld	s3,32(sp)
   13b60:	91078793          	addi	a5,a5,-1776 # 26910 <debruijn64.0+0x40>
   13b64:	00050493          	mv	s1,a0
   13b68:	00013c23          	sd	zero,24(sp)
   13b6c:	fff00b93          	li	s7,-1
   13b70:	00100a13          	li	s4,1
   13b74:	00000a93          	li	s5,0
   13b78:	00013823          	sd	zero,16(sp)
   13b7c:	00000d93          	li	s11,0
   13b80:	04f13423          	sd	a5,72(sp)
   13b84:	fff00d13          	li	s10,-1
   13b88:	00c42783          	lw	a5,12(s0)
   13b8c:	04013703          	ld	a4,64(sp)
   13b90:	08f74663          	blt	a4,a5,13c1c <tre_add_tags+0x23c>
   13b94:	040c1e63          	bnez	s8,13bf0 <tre_add_tags+0x210>
   13b98:	000a8613          	mv	a2,s5
   13b9c:	00090593          	mv	a1,s2
   13ba0:	00098513          	mv	a0,s3
   13ba4:	f94ff0ef          	jal	ra,13338 <tre_purge_regset>
   13ba8:	040bc463          	bltz	s7,13bf0 <tre_add_tags+0x210>
   13bac:	04093783          	ld	a5,64(s2)
   13bb0:	00000713          	li	a4,0
   13bb4:	00078693          	mv	a3,a5
   13bb8:	00068613          	mv	a2,a3
   13bbc:	00062583          	lw	a1,0(a2)
   13bc0:	00170713          	addi	a4,a4,1 # 8001 <exit-0x811f>
   13bc4:	00468693          	addi	a3,a3,4
   13bc8:	fe05d8e3          	bgez	a1,13bb8 <tre_add_tags+0x1d8>
   13bcc:	00271713          	slli	a4,a4,0x2
   13bd0:	00e787b3          	add	a5,a5,a4
   13bd4:	01562023          	sw	s5,0(a2)
   13bd8:	fff00713          	li	a4,-1
   13bdc:	0177a023          	sw	s7,0(a5)
   13be0:	00e7a223          	sw	a4,4(a5)
   13be4:	01013783          	ld	a5,16(sp)
   13be8:	0017879b          	addiw	a5,a5,1
   13bec:	00f13823          	sd	a5,16(sp)
   13bf0:	01013783          	ld	a5,16(sp)
   13bf4:	02013503          	ld	a0,32(sp)
   13bf8:	05b92823          	sw	s11,80(s2)
   13bfc:	04f92623          	sw	a5,76(s2)
   13c00:	05b92423          	sw	s11,72(s2)
   13c04:	878ff0ef          	jal	ra,12c7c <free>
   13c08:	00813503          	ld	a0,8(sp)
   13c0c:	870ff0ef          	jal	ra,12c7c <free>
   13c10:	03013503          	ld	a0,48(sp)
   13c14:	868ff0ef          	jal	ra,12c7c <free>
   13c18:	e8dff06f          	j	13aa4 <tre_add_tags+0xc4>
   13c1c:	f6049ce3          	bnez	s1,13b94 <tre_add_tags+0x1b4>
   13c20:	00040513          	mv	a0,s0
   13c24:	ebcff0ef          	jal	ra,132e0 <tre_stack_pop_int>
   13c28:	00600793          	li	a5,6
   13c2c:	00050c93          	mv	s9,a0
   13c30:	f4a7ece3          	bltu	a5,a0,13b88 <tre_add_tags+0x1a8>
   13c34:	04813783          	ld	a5,72(sp)
   13c38:	00251713          	slli	a4,a0,0x2
   13c3c:	00f70733          	add	a4,a4,a5
   13c40:	00072703          	lw	a4,0(a4)
   13c44:	00070067          	jr	a4
   13c48:	00040513          	mv	a0,s0
   13c4c:	e94ff0ef          	jal	ra,132e0 <tre_stack_pop_int>
   13c50:	00098713          	mv	a4,s3
   13c54:	00000793          	li	a5,0
   13c58:	00070693          	mv	a3,a4
   13c5c:	0006a603          	lw	a2,0(a3)
   13c60:	00178793          	addi	a5,a5,1
   13c64:	00470713          	addi	a4,a4,4
   13c68:	fe0658e3          	bgez	a2,13c58 <tre_add_tags+0x278>
   13c6c:	0015151b          	slliw	a0,a0,0x1
   13c70:	0015051b          	addiw	a0,a0,1
   13c74:	00279793          	slli	a5,a5,0x2
   13c78:	00f987b3          	add	a5,s3,a5
   13c7c:	00a6a023          	sw	a0,0(a3)
   13c80:	01a7a023          	sw	s10,0(a5)
   13c84:	00000793          	li	a5,0
   13c88:	00813683          	ld	a3,8(sp)
   13c8c:	00078713          	mv	a4,a5
   13c90:	00478793          	addi	a5,a5,4
   13c94:	00f686b3          	add	a3,a3,a5
   13c98:	ffc6a683          	lw	a3,-4(a3)
   13c9c:	fe06d6e3          	bgez	a3,13c88 <tre_add_tags+0x2a8>
   13ca0:	00813783          	ld	a5,8(sp)
   13ca4:	00e787b3          	add	a5,a5,a4
   13ca8:	ffa7ae23          	sw	s10,-4(a5)
   13cac:	eddff06f          	j	13b88 <tre_add_tags+0x1a8>
   13cb0:	00040513          	mv	a0,s0
   13cb4:	e4cff0ef          	jal	ra,13300 <tre_stack_pop_voidptr>
   13cb8:	01452683          	lw	a3,20(a0)
   13cbc:	00050b13          	mv	s6,a0
   13cc0:	0c06c863          	bltz	a3,13d90 <tre_add_tags+0x3b0>
   13cc4:	00098613          	mv	a2,s3
   13cc8:	00000713          	li	a4,0
   13ccc:	00060593          	mv	a1,a2
   13cd0:	0005a503          	lw	a0,0(a1)
   13cd4:	00170713          	addi	a4,a4,1
   13cd8:	00460613          	addi	a2,a2,4
   13cdc:	fe0558e3          	bgez	a0,13ccc <tre_add_tags+0x2ec>
   13ce0:	0016961b          	slliw	a2,a3,0x1
   13ce4:	00271713          	slli	a4,a4,0x2
   13ce8:	00c5a023          	sw	a2,0(a1)
   13cec:	00e98733          	add	a4,s3,a4
   13cf0:	01a72023          	sw	s10,0(a4)
   13cf4:	060c1a63          	bnez	s8,13d68 <tre_add_tags+0x388>
   13cf8:	00000713          	li	a4,0
   13cfc:	00813783          	ld	a5,8(sp)
   13d00:	0007051b          	sext.w	a0,a4
   13d04:	00170713          	addi	a4,a4,1
   13d08:	00271613          	slli	a2,a4,0x2
   13d0c:	00c78633          	add	a2,a5,a2
   13d10:	ffc62603          	lw	a2,-4(a2)
   13d14:	fe0654e3          	bgez	a2,13cfc <tre_add_tags+0x31c>
   13d18:	02093703          	ld	a4,32(s2)
   13d1c:	00469693          	slli	a3,a3,0x4
   13d20:	00d70733          	add	a4,a4,a3
   13d24:	00073423          	sd	zero,8(a4)
   13d28:	04050063          	beqz	a0,13d68 <tre_add_tags+0x388>
   13d2c:	0015051b          	addiw	a0,a0,1
   13d30:	00251513          	slli	a0,a0,0x2
   13d34:	02d13c23          	sd	a3,56(sp)
   13d38:	b5dfe0ef          	jal	ra,12894 <malloc>
   13d3c:	00c00493          	li	s1,12
   13d40:	e40504e3          	beqz	a0,13b88 <tre_add_tags+0x1a8>
   13d44:	02093703          	ld	a4,32(s2)
   13d48:	03813683          	ld	a3,56(sp)
   13d4c:	00d706b3          	add	a3,a4,a3
   13d50:	00813703          	ld	a4,8(sp)
   13d54:	00a6b423          	sd	a0,8(a3)
   13d58:	00072683          	lw	a3,0(a4)
   13d5c:	00470713          	addi	a4,a4,4
   13d60:	1406d263          	bgez	a3,13ea4 <tre_add_tags+0x4c4>
   13d64:	01a52023          	sw	s10,0(a0)
   13d68:	014b2583          	lw	a1,20(s6)
   13d6c:	00040513          	mv	a0,s0
   13d70:	899ff0ef          	jal	ra,13608 <tre_stack_push_int>
   13d74:	00050493          	mv	s1,a0
   13d78:	e00518e3          	bnez	a0,13b88 <tre_add_tags+0x1a8>
   13d7c:	00600593          	li	a1,6
   13d80:	00040513          	mv	a0,s0
   13d84:	885ff0ef          	jal	ra,13608 <tre_stack_push_int>
   13d88:	00050493          	mv	s1,a0
   13d8c:	de051ee3          	bnez	a0,13b88 <tre_add_tags+0x1a8>
   13d90:	000b2703          	lw	a4,0(s6)
   13d94:	00200793          	li	a5,2
   13d98:	20f70263          	beq	a4,a5,13f9c <tre_add_tags+0x5bc>
   13d9c:	0ae7ee63          	bltu	a5,a4,13e58 <tre_add_tags+0x478>
   13da0:	008b3683          	ld	a3,8(s6)
   13da4:	10071c63          	bnez	a4,13ebc <tre_add_tags+0x4dc>
   13da8:	0006b703          	ld	a4,0(a3)
   13dac:	00075663          	bgez	a4,13db8 <tre_add_tags+0x3d8>
   13db0:	ffc00693          	li	a3,-4
   13db4:	0ad71663          	bne	a4,a3,13e60 <tre_add_tags+0x480>
   13db8:	0009a703          	lw	a4,0(s3)
   13dbc:	0a074263          	bltz	a4,13e60 <tre_add_tags+0x480>
   13dc0:	0e0c1863          	bnez	s8,13eb0 <tre_add_tags+0x4d0>
   13dc4:	02813503          	ld	a0,40(sp)
   13dc8:	000a8613          	mv	a2,s5
   13dcc:	000b0593          	mv	a1,s6
   13dd0:	a69ff0ef          	jal	ra,13838 <tre_add_tag_left>
   13dd4:	03893703          	ld	a4,56(s2)
   13dd8:	01813783          	ld	a5,24(sp)
   13ddc:	002a9693          	slli	a3,s5,0x2
   13de0:	00d70733          	add	a4,a4,a3
   13de4:	00f72023          	sw	a5,0(a4)
   13de8:	00050c93          	mv	s9,a0
   13dec:	040bc463          	bltz	s7,13e34 <tre_add_tags+0x454>
   13df0:	04093703          	ld	a4,64(s2)
   13df4:	00000693          	li	a3,0
   13df8:	00070613          	mv	a2,a4
   13dfc:	00060593          	mv	a1,a2
   13e00:	0005a503          	lw	a0,0(a1)
   13e04:	00168693          	addi	a3,a3,1
   13e08:	00460613          	addi	a2,a2,4
   13e0c:	fe0558e3          	bgez	a0,13dfc <tre_add_tags+0x41c>
   13e10:	01013783          	ld	a5,16(sp)
   13e14:	00269693          	slli	a3,a3,0x2
   13e18:	0155a023          	sw	s5,0(a1)
   13e1c:	00d70733          	add	a4,a4,a3
   13e20:	0017879b          	addiw	a5,a5,1
   13e24:	01772023          	sw	s7,0(a4)
   13e28:	01a72223          	sw	s10,4(a4)
   13e2c:	00f13823          	sd	a5,16(sp)
   13e30:	fff00b93          	li	s7,-1
   13e34:	000a8613          	mv	a2,s5
   13e38:	00090593          	mv	a1,s2
   13e3c:	00098513          	mv	a0,s3
   13e40:	cf8ff0ef          	jal	ra,13338 <tre_purge_regset>
   13e44:	000a0a93          	mv	s5,s4
   13e48:	01a9a023          	sw	s10,0(s3)
   13e4c:	001d8d9b          	addiw	s11,s11,1
   13e50:	001a0a1b          	addiw	s4,s4,1
   13e54:	00c0006f          	j	13e60 <tre_add_tags+0x480>
   13e58:	00300693          	li	a3,3
   13e5c:	28d70c63          	beq	a4,a3,140f4 <tre_add_tags+0x714>
   13e60:	014b2583          	lw	a1,20(s6)
   13e64:	000c8493          	mv	s1,s9
   13e68:	d205c0e3          	bltz	a1,13b88 <tre_add_tags+0x1a8>
   13e6c:	00813683          	ld	a3,8(sp)
   13e70:	00000713          	li	a4,0
   13e74:	00068613          	mv	a2,a3
   13e78:	00062503          	lw	a0,0(a2)
   13e7c:	00170713          	addi	a4,a4,1
   13e80:	00468693          	addi	a3,a3,4
   13e84:	fe0558e3          	bgez	a0,13e74 <tre_add_tags+0x494>
   13e88:	00813783          	ld	a5,8(sp)
   13e8c:	00271713          	slli	a4,a4,0x2
   13e90:	00b62023          	sw	a1,0(a2)
   13e94:	00e78733          	add	a4,a5,a4
   13e98:	01a72023          	sw	s10,0(a4)
   13e9c:	000c8493          	mv	s1,s9
   13ea0:	ce9ff06f          	j	13b88 <tre_add_tags+0x1a8>
   13ea4:	00d52023          	sw	a3,0(a0)
   13ea8:	00450513          	addi	a0,a0,4
   13eac:	eadff06f          	j	13d58 <tre_add_tags+0x378>
   13eb0:	00100793          	li	a5,1
   13eb4:	00fb2e23          	sw	a5,28(s6)
   13eb8:	f8dff06f          	j	13e44 <tre_add_tags+0x464>
   13ebc:	0086b783          	ld	a5,8(a3)
   13ec0:	000b0593          	mv	a1,s6
   13ec4:	00040513          	mv	a0,s0
   13ec8:	0006b483          	ld	s1,0(a3)
   13ecc:	02f13c23          	sd	a5,56(sp)
   13ed0:	d84ff0ef          	jal	ra,13454 <tre_stack_push_voidptr>
   13ed4:	00050c93          	mv	s9,a0
   13ed8:	f80514e3          	bnez	a0,13e60 <tre_add_tags+0x480>
   13edc:	00500593          	li	a1,5
   13ee0:	00040513          	mv	a0,s0
   13ee4:	f24ff0ef          	jal	ra,13608 <tre_stack_push_int>
   13ee8:	00050c93          	mv	s9,a0
   13eec:	f6051ae3          	bnez	a0,13e60 <tre_add_tags+0x480>
   13ef0:	03813583          	ld	a1,56(sp)
   13ef4:	00040513          	mv	a0,s0
   13ef8:	d5cff0ef          	jal	ra,13454 <tre_stack_push_voidptr>
   13efc:	00050c93          	mv	s9,a0
   13f00:	f60510e3          	bnez	a0,13e60 <tre_add_tags+0x480>
   13f04:	00000593          	li	a1,0
   13f08:	00040513          	mv	a0,s0
   13f0c:	efcff0ef          	jal	ra,13608 <tre_stack_push_int>
   13f10:	00050c93          	mv	s9,a0
   13f14:	f40516e3          	bnez	a0,13e60 <tre_add_tags+0x480>
   13f18:	01c4a583          	lw	a1,28(s1)
   13f1c:	00040513          	mv	a0,s0
   13f20:	014585bb          	addw	a1,a1,s4
   13f24:	ee4ff0ef          	jal	ra,13608 <tre_stack_push_int>
   13f28:	00050c93          	mv	s9,a0
   13f2c:	f2051ae3          	bnez	a0,13e60 <tre_add_tags+0x480>
   13f30:	01c4a783          	lw	a5,28(s1)
   13f34:	fff00593          	li	a1,-1
   13f38:	00f05c63          	blez	a5,13f50 <tre_add_tags+0x570>
   13f3c:	03813783          	ld	a5,56(sp)
   13f40:	01c7a783          	lw	a5,28(a5)
   13f44:	00f05663          	blez	a5,13f50 <tre_add_tags+0x570>
   13f48:	000a0593          	mv	a1,s4
   13f4c:	001a0a1b          	addiw	s4,s4,1
   13f50:	00040513          	mv	a0,s0
   13f54:	eb4ff0ef          	jal	ra,13608 <tre_stack_push_int>
   13f58:	00050c93          	mv	s9,a0
   13f5c:	f00512e3          	bnez	a0,13e60 <tre_add_tags+0x480>
   13f60:	00400593          	li	a1,4
   13f64:	00040513          	mv	a0,s0
   13f68:	ea0ff0ef          	jal	ra,13608 <tre_stack_push_int>
   13f6c:	00050c93          	mv	s9,a0
   13f70:	ee0518e3          	bnez	a0,13e60 <tre_add_tags+0x480>
   13f74:	00048593          	mv	a1,s1
   13f78:	00040513          	mv	a0,s0
   13f7c:	cd8ff0ef          	jal	ra,13454 <tre_stack_push_voidptr>
   13f80:	00050c93          	mv	s9,a0
   13f84:	ec051ee3          	bnez	a0,13e60 <tre_add_tags+0x480>
   13f88:	00000593          	li	a1,0
   13f8c:	00040513          	mv	a0,s0
   13f90:	e78ff0ef          	jal	ra,13608 <tre_stack_push_int>
   13f94:	00050c93          	mv	s9,a0
   13f98:	ec9ff06f          	j	13e60 <tre_add_tags+0x480>
   13f9c:	008b3483          	ld	s1,8(s6)
   13fa0:	120c0c63          	beqz	s8,140d8 <tre_add_tags+0x6f8>
   13fa4:	0009a783          	lw	a5,0(s3)
   13fa8:	000c0593          	mv	a1,s8
   13fac:	0007d663          	bgez	a5,13fb8 <tre_add_tags+0x5d8>
   13fb0:	0104c583          	lbu	a1,16(s1)
   13fb4:	0015f593          	andi	a1,a1,1
   13fb8:	00040513          	mv	a0,s0
   13fbc:	e4cff0ef          	jal	ra,13608 <tre_stack_push_int>
   13fc0:	00050c93          	mv	s9,a0
   13fc4:	e8051ee3          	bnez	a0,13e60 <tre_add_tags+0x480>
   13fc8:	000b0593          	mv	a1,s6
   13fcc:	00040513          	mv	a0,s0
   13fd0:	c84ff0ef          	jal	ra,13454 <tre_stack_push_voidptr>
   13fd4:	00050c93          	mv	s9,a0
   13fd8:	e80514e3          	bnez	a0,13e60 <tre_add_tags+0x480>
   13fdc:	00100593          	li	a1,1
   13fe0:	00040513          	mv	a0,s0
   13fe4:	e24ff0ef          	jal	ra,13608 <tre_stack_push_int>
   13fe8:	00050c93          	mv	s9,a0
   13fec:	e6051ae3          	bnez	a0,13e60 <tre_add_tags+0x480>
   13ff0:	0004b583          	ld	a1,0(s1)
   13ff4:	00040513          	mv	a0,s0
   13ff8:	c5cff0ef          	jal	ra,13454 <tre_stack_push_voidptr>
   13ffc:	00050c93          	mv	s9,a0
   14000:	e60510e3          	bnez	a0,13e60 <tre_add_tags+0x480>
   14004:	00000593          	li	a1,0
   14008:	00040513          	mv	a0,s0
   1400c:	dfcff0ef          	jal	ra,13608 <tre_stack_push_int>
   14010:	00050c93          	mv	s9,a0
   14014:	e40516e3          	bnez	a0,13e60 <tre_add_tags+0x480>
   14018:	0009a703          	lw	a4,0(s3)
   1401c:	00075863          	bgez	a4,1402c <tre_add_tags+0x64c>
   14020:	0104c703          	lbu	a4,16(s1)
   14024:	00177713          	andi	a4,a4,1
   14028:	0a070463          	beqz	a4,140d0 <tre_add_tags+0x6f0>
   1402c:	080c1a63          	bnez	s8,140c0 <tre_add_tags+0x6e0>
   14030:	02813503          	ld	a0,40(sp)
   14034:	000a8613          	mv	a2,s5
   14038:	000b0593          	mv	a1,s6
   1403c:	ffcff0ef          	jal	ra,13838 <tre_add_tag_left>
   14040:	0104c683          	lbu	a3,16(s1)
   14044:	03893703          	ld	a4,56(s2)
   14048:	002a9613          	slli	a2,s5,0x2
   1404c:	0016f693          	andi	a3,a3,1
   14050:	00050c93          	mv	s9,a0
   14054:	00c70733          	add	a4,a4,a2
   14058:	00100793          	li	a5,1
   1405c:	00069463          	bnez	a3,14064 <tre_add_tags+0x684>
   14060:	01813783          	ld	a5,24(sp)
   14064:	00f72023          	sw	a5,0(a4)
   14068:	040bc463          	bltz	s7,140b0 <tre_add_tags+0x6d0>
   1406c:	04093703          	ld	a4,64(s2)
   14070:	00000693          	li	a3,0
   14074:	00070613          	mv	a2,a4
   14078:	00060593          	mv	a1,a2
   1407c:	0005a503          	lw	a0,0(a1)
   14080:	00168693          	addi	a3,a3,1
   14084:	00460613          	addi	a2,a2,4
   14088:	fe0558e3          	bgez	a0,14078 <tre_add_tags+0x698>
   1408c:	01013783          	ld	a5,16(sp)
   14090:	00269693          	slli	a3,a3,0x2
   14094:	0155a023          	sw	s5,0(a1)
   14098:	00d70733          	add	a4,a4,a3
   1409c:	0017879b          	addiw	a5,a5,1
   140a0:	01772023          	sw	s7,0(a4)
   140a4:	01a72223          	sw	s10,4(a4)
   140a8:	00f13823          	sd	a5,16(sp)
   140ac:	fff00b93          	li	s7,-1
   140b0:	000a8613          	mv	a2,s5
   140b4:	00090593          	mv	a1,s2
   140b8:	00098513          	mv	a0,s3
   140bc:	a7cff0ef          	jal	ra,13338 <tre_purge_regset>
   140c0:	000a0a93          	mv	s5,s4
   140c4:	01a9a023          	sw	s10,0(s3)
   140c8:	001d8d9b          	addiw	s11,s11,1
   140cc:	001a0a1b          	addiw	s4,s4,1
   140d0:	00013c23          	sd	zero,24(sp)
   140d4:	d8dff06f          	j	13e60 <tre_add_tags+0x480>
   140d8:	000a8593          	mv	a1,s5
   140dc:	00040513          	mv	a0,s0
   140e0:	d28ff0ef          	jal	ra,13608 <tre_stack_push_int>
   140e4:	00050c93          	mv	s9,a0
   140e8:	d6051ce3          	bnez	a0,13e60 <tre_add_tags+0x480>
   140ec:	0104b583          	ld	a1,16(s1)
   140f0:	ec5ff06f          	j	13fb4 <tre_add_tags+0x5d4>
   140f4:	008b3783          	ld	a5,8(s6)
   140f8:	0007b703          	ld	a4,0(a5)
   140fc:	0087b483          	ld	s1,8(a5)
   14100:	0009a783          	lw	a5,0(s3)
   14104:	02e13c23          	sd	a4,56(sp)
   14108:	1c07c663          	bltz	a5,142d4 <tre_add_tags+0x8f4>
   1410c:	001a059b          	addiw	a1,s4,1
   14110:	000a0713          	mv	a4,s4
   14114:	00040513          	mv	a0,s0
   14118:	04e13823          	sd	a4,80(sp)
   1411c:	cecff0ef          	jal	ra,13608 <tre_stack_push_int>
   14120:	05013703          	ld	a4,80(sp)
   14124:	00050c93          	mv	s9,a0
   14128:	d2051ce3          	bnez	a0,13e60 <tre_add_tags+0x480>
   1412c:	00070593          	mv	a1,a4
   14130:	00040513          	mv	a0,s0
   14134:	cd4ff0ef          	jal	ra,13608 <tre_stack_push_int>
   14138:	00050c93          	mv	s9,a0
   1413c:	d20512e3          	bnez	a0,13e60 <tre_add_tags+0x480>
   14140:	00098593          	mv	a1,s3
   14144:	00040513          	mv	a0,s0
   14148:	b0cff0ef          	jal	ra,13454 <tre_stack_push_voidptr>
   1414c:	00050c93          	mv	s9,a0
   14150:	d00518e3          	bnez	a0,13e60 <tre_add_tags+0x480>
   14154:	0009a583          	lw	a1,0(s3)
   14158:	00040513          	mv	a0,s0
   1415c:	fff5c593          	not	a1,a1
   14160:	01f5d59b          	srliw	a1,a1,0x1f
   14164:	ca4ff0ef          	jal	ra,13608 <tre_stack_push_int>
   14168:	00050c93          	mv	s9,a0
   1416c:	ce051ae3          	bnez	a0,13e60 <tre_add_tags+0x480>
   14170:	000b0593          	mv	a1,s6
   14174:	00040513          	mv	a0,s0
   14178:	adcff0ef          	jal	ra,13454 <tre_stack_push_voidptr>
   1417c:	00050c93          	mv	s9,a0
   14180:	ce0510e3          	bnez	a0,13e60 <tre_add_tags+0x480>
   14184:	00048593          	mv	a1,s1
   14188:	00040513          	mv	a0,s0
   1418c:	ac8ff0ef          	jal	ra,13454 <tre_stack_push_voidptr>
   14190:	00050c93          	mv	s9,a0
   14194:	cc0516e3          	bnez	a0,13e60 <tre_add_tags+0x480>
   14198:	03813583          	ld	a1,56(sp)
   1419c:	00040513          	mv	a0,s0
   141a0:	ab4ff0ef          	jal	ra,13454 <tre_stack_push_voidptr>
   141a4:	00050c93          	mv	s9,a0
   141a8:	ca051ce3          	bnez	a0,13e60 <tre_add_tags+0x480>
   141ac:	00300593          	li	a1,3
   141b0:	00040513          	mv	a0,s0
   141b4:	c54ff0ef          	jal	ra,13608 <tre_stack_push_int>
   141b8:	00050c93          	mv	s9,a0
   141bc:	ca0512e3          	bnez	a0,13e60 <tre_add_tags+0x480>
   141c0:	00048593          	mv	a1,s1
   141c4:	00040513          	mv	a0,s0
   141c8:	a8cff0ef          	jal	ra,13454 <tre_stack_push_voidptr>
   141cc:	00050c93          	mv	s9,a0
   141d0:	c80518e3          	bnez	a0,13e60 <tre_add_tags+0x480>
   141d4:	00000593          	li	a1,0
   141d8:	00040513          	mv	a0,s0
   141dc:	c2cff0ef          	jal	ra,13608 <tre_stack_push_int>
   141e0:	00050c93          	mv	s9,a0
   141e4:	c6051ee3          	bnez	a0,13e60 <tre_add_tags+0x480>
   141e8:	00200593          	li	a1,2
   141ec:	00040513          	mv	a0,s0
   141f0:	c18ff0ef          	jal	ra,13608 <tre_stack_push_int>
   141f4:	00050c93          	mv	s9,a0
   141f8:	c60514e3          	bnez	a0,13e60 <tre_add_tags+0x480>
   141fc:	03813583          	ld	a1,56(sp)
   14200:	00040513          	mv	a0,s0
   14204:	a50ff0ef          	jal	ra,13454 <tre_stack_push_voidptr>
   14208:	00050c93          	mv	s9,a0
   1420c:	c4051ae3          	bnez	a0,13e60 <tre_add_tags+0x480>
   14210:	00000593          	li	a1,0
   14214:	00040513          	mv	a0,s0
   14218:	bf0ff0ef          	jal	ra,13608 <tre_stack_push_int>
   1421c:	00050c93          	mv	s9,a0
   14220:	c40510e3          	bnez	a0,13e60 <tre_add_tags+0x480>
   14224:	0009a703          	lw	a4,0(s3)
   14228:	08074c63          	bltz	a4,142c0 <tre_add_tags+0x8e0>
   1422c:	080c1263          	bnez	s8,142b0 <tre_add_tags+0x8d0>
   14230:	02813503          	ld	a0,40(sp)
   14234:	000a8613          	mv	a2,s5
   14238:	000b0593          	mv	a1,s6
   1423c:	dfcff0ef          	jal	ra,13838 <tre_add_tag_left>
   14240:	03893703          	ld	a4,56(s2)
   14244:	01813783          	ld	a5,24(sp)
   14248:	002a9693          	slli	a3,s5,0x2
   1424c:	00d70733          	add	a4,a4,a3
   14250:	00f72023          	sw	a5,0(a4)
   14254:	00050c93          	mv	s9,a0
   14258:	040bc463          	bltz	s7,142a0 <tre_add_tags+0x8c0>
   1425c:	04093703          	ld	a4,64(s2)
   14260:	00000693          	li	a3,0
   14264:	00070613          	mv	a2,a4
   14268:	00060593          	mv	a1,a2
   1426c:	0005a503          	lw	a0,0(a1)
   14270:	00168693          	addi	a3,a3,1
   14274:	00460613          	addi	a2,a2,4
   14278:	fe0558e3          	bgez	a0,14268 <tre_add_tags+0x888>
   1427c:	01013783          	ld	a5,16(sp)
   14280:	00269693          	slli	a3,a3,0x2
   14284:	0155a023          	sw	s5,0(a1)
   14288:	00d70733          	add	a4,a4,a3
   1428c:	0017879b          	addiw	a5,a5,1
   14290:	01772023          	sw	s7,0(a4)
   14294:	01a72223          	sw	s10,4(a4)
   14298:	00f13823          	sd	a5,16(sp)
   1429c:	fff00b93          	li	s7,-1
   142a0:	000a8613          	mv	a2,s5
   142a4:	00090593          	mv	a1,s2
   142a8:	00098513          	mv	a0,s3
   142ac:	88cff0ef          	jal	ra,13338 <tre_purge_regset>
   142b0:	000a0a93          	mv	s5,s4
   142b4:	01a9a023          	sw	s10,0(s3)
   142b8:	001d8d9b          	addiw	s11,s11,1
   142bc:	001a0a1b          	addiw	s4,s4,1
   142c0:	018b2703          	lw	a4,24(s6)
   142c4:	b8e05ee3          	blez	a4,13e60 <tre_add_tags+0x480>
   142c8:	001a0a9b          	addiw	s5,s4,1
   142cc:	002a0a1b          	addiw	s4,s4,2
   142d0:	b91ff06f          	j	13e60 <tre_add_tags+0x480>
   142d4:	000a0593          	mv	a1,s4
   142d8:	000a8713          	mv	a4,s5
   142dc:	e39ff06f          	j	14114 <tre_add_tags+0x734>
   142e0:	00040513          	mv	a0,s0
   142e4:	81cff0ef          	jal	ra,13300 <tre_stack_pop_voidptr>
   142e8:	00050b13          	mv	s6,a0
   142ec:	020c0463          	beqz	s8,14314 <tre_add_tags+0x934>
   142f0:	00853783          	ld	a5,8(a0)
   142f4:	00040513          	mv	a0,s0
   142f8:	0007b783          	ld	a5,0(a5)
   142fc:	01c7ab83          	lw	s7,28(a5)
   14300:	fe1fe0ef          	jal	ra,132e0 <tre_stack_pop_int>
   14304:	00ab8bbb          	addw	s7,s7,a0
   14308:	017b2e23          	sw	s7,28(s6)
   1430c:	fff00b93          	li	s7,-1
   14310:	879ff06f          	j	13b88 <tre_add_tags+0x1a8>
   14314:	00040513          	mv	a0,s0
   14318:	fc9fe0ef          	jal	ra,132e0 <tre_stack_pop_int>
   1431c:	00050493          	mv	s1,a0
   14320:	00040513          	mv	a0,s0
   14324:	fbdfe0ef          	jal	ra,132e0 <tre_stack_pop_int>
   14328:	16049a63          	bnez	s1,1449c <tre_add_tags+0xabc>
   1432c:	00100793          	li	a5,1
   14330:	00f13c23          	sd	a5,24(sp)
   14334:	855ff06f          	j	13b88 <tre_add_tags+0x1a8>
   14338:	00040513          	mv	a0,s0
   1433c:	fa5fe0ef          	jal	ra,132e0 <tre_stack_pop_int>
   14340:	00050b13          	mv	s6,a0
   14344:	00040513          	mv	a0,s0
   14348:	f99fe0ef          	jal	ra,132e0 <tre_stack_pop_int>
   1434c:	00050a13          	mv	s4,a0
   14350:	820b4ce3          	bltz	s6,13b88 <tre_add_tags+0x1a8>
   14354:	000b0a93          	mv	s5,s6
   14358:	831ff06f          	j	13b88 <tre_add_tags+0x1a8>
   1435c:	00040513          	mv	a0,s0
   14360:	fa1fe0ef          	jal	ra,13300 <tre_stack_pop_voidptr>
   14364:	140c0463          	beqz	s8,144ac <tre_add_tags+0xacc>
   14368:	00853783          	ld	a5,8(a0)
   1436c:	0087b703          	ld	a4,8(a5)
   14370:	0007b683          	ld	a3,0(a5)
   14374:	01c72703          	lw	a4,28(a4)
   14378:	01c6a783          	lw	a5,28(a3)
   1437c:	00e787bb          	addw	a5,a5,a4
   14380:	00f52e23          	sw	a5,28(a0)
   14384:	805ff06f          	j	13b88 <tre_add_tags+0x1a8>
   14388:	00498993          	addi	s3,s3,4
   1438c:	0009a783          	lw	a5,0(s3)
   14390:	fe07dce3          	bgez	a5,14388 <tre_add_tags+0x9a8>
   14394:	ff4ff06f          	j	13b88 <tre_add_tags+0x1a8>
   14398:	00040513          	mv	a0,s0
   1439c:	f65fe0ef          	jal	ra,13300 <tre_stack_pop_voidptr>
   143a0:	00a13c23          	sd	a0,24(sp)
   143a4:	00040513          	mv	a0,s0
   143a8:	f59fe0ef          	jal	ra,13300 <tre_stack_pop_voidptr>
   143ac:	02a13c23          	sd	a0,56(sp)
   143b0:	00040513          	mv	a0,s0
   143b4:	f4dfe0ef          	jal	ra,13300 <tre_stack_pop_voidptr>
   143b8:	00050b13          	mv	s6,a0
   143bc:	00040513          	mv	a0,s0
   143c0:	f21fe0ef          	jal	ra,132e0 <tre_stack_pop_int>
   143c4:	01813583          	ld	a1,24(sp)
   143c8:	020c0a63          	beqz	s8,143fc <tre_add_tags+0xa1c>
   143cc:	008b3783          	ld	a5,8(s6)
   143d0:	0087b683          	ld	a3,8(a5)
   143d4:	0007b603          	ld	a2,0(a5)
   143d8:	01c6a683          	lw	a3,28(a3)
   143dc:	01c62783          	lw	a5,28(a2)
   143e0:	00d787bb          	addw	a5,a5,a3
   143e4:	00a787bb          	addw	a5,a5,a0
   143e8:	018b2503          	lw	a0,24(s6)
   143ec:	00a02533          	sgtz	a0,a0
   143f0:	00151513          	slli	a0,a0,0x1
   143f4:	00a787bb          	addw	a5,a5,a0
   143f8:	00fb2e23          	sw	a5,28(s6)
   143fc:	00040513          	mv	a0,s0
   14400:	04b13c23          	sd	a1,88(sp)
   14404:	efdfe0ef          	jal	ra,13300 <tre_stack_pop_voidptr>
   14408:	00050993          	mv	s3,a0
   1440c:	00040513          	mv	a0,s0
   14410:	ed1fe0ef          	jal	ra,132e0 <tre_stack_pop_int>
   14414:	04a13823          	sd	a0,80(sp)
   14418:	00040513          	mv	a0,s0
   1441c:	ec5fe0ef          	jal	ra,132e0 <tre_stack_pop_int>
   14420:	018b2783          	lw	a5,24(s6)
   14424:	00100713          	li	a4,1
   14428:	00e13c23          	sd	a4,24(sp)
   1442c:	00050c93          	mv	s9,a0
   14430:	f4f05c63          	blez	a5,13b88 <tre_add_tags+0x1a8>
   14434:	05013603          	ld	a2,80(sp)
   14438:	05813583          	ld	a1,88(sp)
   1443c:	040c1c63          	bnez	s8,14494 <tre_add_tags+0xab4>
   14440:	02813503          	ld	a0,40(sp)
   14444:	00c13c23          	sd	a2,24(sp)
   14448:	cc4ff0ef          	jal	ra,1390c <tre_add_tag_right>
   1444c:	01813603          	ld	a2,24(sp)
   14450:	03893783          	ld	a5,56(s2)
   14454:	00050493          	mv	s1,a0
   14458:	00261613          	slli	a2,a2,0x2
   1445c:	00c78633          	add	a2,a5,a2
   14460:	00100793          	li	a5,1
   14464:	00f62023          	sw	a5,0(a2)
   14468:	00051c63          	bnez	a0,14480 <tre_add_tags+0xaa0>
   1446c:	03813583          	ld	a1,56(sp)
   14470:	02813503          	ld	a0,40(sp)
   14474:	000c8613          	mv	a2,s9
   14478:	c94ff0ef          	jal	ra,1390c <tre_add_tag_right>
   1447c:	00050493          	mv	s1,a0
   14480:	03893783          	ld	a5,56(s2)
   14484:	002c9513          	slli	a0,s9,0x2
   14488:	00a78533          	add	a0,a5,a0
   1448c:	00100793          	li	a5,1
   14490:	00f52023          	sw	a5,0(a0)
   14494:	002d8d9b          	addiw	s11,s11,2
   14498:	e95ff06f          	j	1432c <tre_add_tags+0x94c>
   1449c:	00050b93          	mv	s7,a0
   144a0:	00000493          	li	s1,0
   144a4:	00013c23          	sd	zero,24(sp)
   144a8:	ee0ff06f          	j	13b88 <tre_add_tags+0x1a8>
   144ac:	00000493          	li	s1,0
   144b0:	ed8ff06f          	j	13b88 <tre_add_tags+0x1a8>

00000000000144b4 <tre_set_empty>:
   144b4:	ff010113          	addi	sp,sp,-16
   144b8:	03800713          	li	a4,56
   144bc:	00100693          	li	a3,1
   144c0:	00000613          	li	a2,0
   144c4:	00000593          	li	a1,0
   144c8:	00113423          	sd	ra,8(sp)
   144cc:	675030ef          	jal	ra,18340 <__tre_mem_alloc_impl>
   144d0:	00050863          	beqz	a0,144e0 <tre_set_empty+0x2c>
   144d4:	fff00793          	li	a5,-1
   144d8:	00f53023          	sd	a5,0(a0)
   144dc:	00f52423          	sw	a5,8(a0)
   144e0:	00813083          	ld	ra,8(sp)
   144e4:	01010113          	addi	sp,sp,16
   144e8:	00008067          	ret

00000000000144ec <tre_set_one>:
   144ec:	fc010113          	addi	sp,sp,-64
   144f0:	03213023          	sd	s2,32(sp)
   144f4:	01313c23          	sd	s3,24(sp)
   144f8:	01413823          	sd	s4,16(sp)
   144fc:	01513423          	sd	s5,8(sp)
   14500:	00060a13          	mv	s4,a2
   14504:	00058a93          	mv	s5,a1
   14508:	00068993          	mv	s3,a3
   1450c:	00070913          	mv	s2,a4
   14510:	00100693          	li	a3,1
   14514:	07000713          	li	a4,112
   14518:	00000613          	li	a2,0
   1451c:	00000593          	li	a1,0
   14520:	02813823          	sd	s0,48(sp)
   14524:	02913423          	sd	s1,40(sp)
   14528:	02113c23          	sd	ra,56(sp)
   1452c:	00078493          	mv	s1,a5
   14530:	00080413          	mv	s0,a6
   14534:	60d030ef          	jal	ra,18340 <__tre_mem_alloc_impl>
   14538:	02050463          	beqz	a0,14560 <tre_set_one+0x74>
   1453c:	fff00793          	li	a5,-1
   14540:	01552023          	sw	s5,0(a0)
   14544:	01452223          	sw	s4,4(a0)
   14548:	01352423          	sw	s3,8(a0)
   1454c:	03253023          	sd	s2,32(a0)
   14550:	02953423          	sd	s1,40(a0)
   14554:	02852823          	sw	s0,48(a0)
   14558:	02f53c23          	sd	a5,56(a0)
   1455c:	04f52023          	sw	a5,64(a0)
   14560:	03813083          	ld	ra,56(sp)
   14564:	03013403          	ld	s0,48(sp)
   14568:	02813483          	ld	s1,40(sp)
   1456c:	02013903          	ld	s2,32(sp)
   14570:	01813983          	ld	s3,24(sp)
   14574:	01013a03          	ld	s4,16(sp)
   14578:	00813a83          	ld	s5,8(sp)
   1457c:	04010113          	addi	sp,sp,64
   14580:	00008067          	ret

0000000000014584 <tre_set_union>:
   14584:	f9010113          	addi	sp,sp,-112
   14588:	04913c23          	sd	s1,88(sp)
   1458c:	05213823          	sd	s2,80(sp)
   14590:	05313423          	sd	s3,72(sp)
   14594:	03613823          	sd	s6,48(sp)
   14598:	01913c23          	sd	s9,24(sp)
   1459c:	01a13823          	sd	s10,16(sp)
   145a0:	06113423          	sd	ra,104(sp)
   145a4:	06813023          	sd	s0,96(sp)
   145a8:	05413023          	sd	s4,64(sp)
   145ac:	03513c23          	sd	s5,56(sp)
   145b0:	03713423          	sd	s7,40(sp)
   145b4:	03813023          	sd	s8,32(sp)
   145b8:	01b13423          	sd	s11,8(sp)
   145bc:	00050993          	mv	s3,a0
   145c0:	00058913          	mv	s2,a1
   145c4:	00060493          	mv	s1,a2
   145c8:	00068c93          	mv	s9,a3
   145cc:	00070b13          	mv	s6,a4
   145d0:	00000d13          	li	s10,0
   145d4:	000d0b9b          	sext.w	s7,s10
   145d8:	000c8c63          	beqz	s9,145f0 <tre_set_union+0x6c>
   145dc:	001d0713          	addi	a4,s10,1 # 26001 <__trunctfdf2+0x185>
   145e0:	00271793          	slli	a5,a4,0x2
   145e4:	00fc87b3          	add	a5,s9,a5
   145e8:	ffc7a783          	lw	a5,-4(a5)
   145ec:	0a07d263          	bgez	a5,14690 <tre_set_union+0x10c>
   145f0:	00000713          	li	a4,0
   145f4:	03800613          	li	a2,56
   145f8:	0007079b          	sext.w	a5,a4
   145fc:	00170713          	addi	a4,a4,1
   14600:	02c706b3          	mul	a3,a4,a2
   14604:	00d906b3          	add	a3,s2,a3
   14608:	fc86a683          	lw	a3,-56(a3)
   1460c:	fe06d6e3          	bgez	a3,145f8 <tre_set_union+0x74>
   14610:	00000693          	li	a3,0
   14614:	03800713          	li	a4,56
   14618:	0006859b          	sext.w	a1,a3
   1461c:	00168693          	addi	a3,a3,1
   14620:	02e68633          	mul	a2,a3,a4
   14624:	00c48633          	add	a2,s1,a2
   14628:	fc862603          	lw	a2,-56(a2)
   1462c:	fe0656e3          	bgez	a2,14618 <tre_set_union+0x94>
   14630:	00b787bb          	addw	a5,a5,a1
   14634:	0017879b          	addiw	a5,a5,1
   14638:	02e78733          	mul	a4,a5,a4
   1463c:	00100693          	li	a3,1
   14640:	00000613          	li	a2,0
   14644:	00000593          	li	a1,0
   14648:	00098513          	mv	a0,s3
   1464c:	4f5030ef          	jal	ra,18340 <__tre_mem_alloc_impl>
   14650:	00050a93          	mv	s5,a0
   14654:	04050263          	beqz	a0,14698 <tre_set_union+0x114>
   14658:	00050a13          	mv	s4,a0
   1465c:	00000413          	li	s0,0
   14660:	fff00d93          	li	s11,-1
   14664:	00092783          	lw	a5,0(s2)
   14668:	0607da63          	bgez	a5,146dc <tre_set_union+0x158>
   1466c:	03800793          	li	a5,56
   14670:	02f40433          	mul	s0,s0,a5
   14674:	fff00a13          	li	s4,-1
   14678:	008a8433          	add	s0,s5,s0
   1467c:	0004a783          	lw	a5,0(s1)
   14680:	1607da63          	bgez	a5,147f4 <tre_set_union+0x270>
   14684:	fff00793          	li	a5,-1
   14688:	00f42023          	sw	a5,0(s0)
   1468c:	0100006f          	j	1469c <tre_set_union+0x118>
   14690:	00070d13          	mv	s10,a4
   14694:	f41ff06f          	j	145d4 <tre_set_union+0x50>
   14698:	00000a93          	li	s5,0
   1469c:	06813083          	ld	ra,104(sp)
   146a0:	06013403          	ld	s0,96(sp)
   146a4:	05813483          	ld	s1,88(sp)
   146a8:	05013903          	ld	s2,80(sp)
   146ac:	04813983          	ld	s3,72(sp)
   146b0:	04013a03          	ld	s4,64(sp)
   146b4:	03013b03          	ld	s6,48(sp)
   146b8:	02813b83          	ld	s7,40(sp)
   146bc:	02013c03          	ld	s8,32(sp)
   146c0:	01813c83          	ld	s9,24(sp)
   146c4:	01013d03          	ld	s10,16(sp)
   146c8:	00813d83          	ld	s11,8(sp)
   146cc:	000a8513          	mv	a0,s5
   146d0:	03813a83          	ld	s5,56(sp)
   146d4:	07010113          	addi	sp,sp,112
   146d8:	00008067          	ret
   146dc:	00fa2023          	sw	a5,0(s4)
   146e0:	00492783          	lw	a5,4(s2)
   146e4:	01093683          	ld	a3,16(s2)
   146e8:	00fa2223          	sw	a5,4(s4)
   146ec:	00892783          	lw	a5,8(s2)
   146f0:	00fa2423          	sw	a5,8(s4)
   146f4:	01892783          	lw	a5,24(s2)
   146f8:	00fb67b3          	or	a5,s6,a5
   146fc:	00fa2c23          	sw	a5,24(s4)
   14700:	02093783          	ld	a5,32(s2)
   14704:	02fa3023          	sd	a5,32(s4)
   14708:	02893783          	ld	a5,40(s2)
   1470c:	02fa3423          	sd	a5,40(s4)
   14710:	03092783          	lw	a5,48(s2)
   14714:	02fa2823          	sw	a5,48(s4)
   14718:	00069e63          	bnez	a3,14734 <tre_set_union+0x1b0>
   1471c:	080c9c63          	bnez	s9,147b4 <tre_set_union+0x230>
   14720:	000a3823          	sd	zero,16(s4)
   14724:	0014041b          	addiw	s0,s0,1
   14728:	03890913          	addi	s2,s2,56
   1472c:	038a0a13          	addi	s4,s4,56
   14730:	f35ff06f          	j	14664 <tre_set_union+0xe0>
   14734:	00000793          	li	a5,0
   14738:	00078c1b          	sext.w	s8,a5
   1473c:	00178793          	addi	a5,a5,1
   14740:	00279713          	slli	a4,a5,0x2
   14744:	00e68733          	add	a4,a3,a4
   14748:	ffc72703          	lw	a4,-4(a4)
   1474c:	fe0756e3          	bgez	a4,14738 <tre_set_union+0x1b4>
   14750:	017c073b          	addw	a4,s8,s7
   14754:	0017071b          	addiw	a4,a4,1
   14758:	00000593          	li	a1,0
   1475c:	00271713          	slli	a4,a4,0x2
   14760:	00000693          	li	a3,0
   14764:	00000613          	li	a2,0
   14768:	00098513          	mv	a0,s3
   1476c:	3d5030ef          	jal	ra,18340 <__tre_mem_alloc_impl>
   14770:	00050593          	mv	a1,a0
   14774:	f20502e3          	beqz	a0,14698 <tre_set_union+0x114>
   14778:	00000793          	li	a5,0
   1477c:	0007869b          	sext.w	a3,a5
   14780:	00279713          	slli	a4,a5,0x2
   14784:	0386cc63          	blt	a3,s8,147bc <tre_set_union+0x238>
   14788:	002c1793          	slli	a5,s8,0x2
   1478c:	00f587b3          	add	a5,a1,a5
   14790:	00000713          	li	a4,0
   14794:	0007069b          	sext.w	a3,a4
   14798:	0576c063          	blt	a3,s7,147d8 <tre_set_union+0x254>
   1479c:	01ac07b3          	add	a5,s8,s10
   147a0:	00279793          	slli	a5,a5,0x2
   147a4:	00f587b3          	add	a5,a1,a5
   147a8:	01b7a023          	sw	s11,0(a5)
   147ac:	00ba3823          	sd	a1,16(s4)
   147b0:	f75ff06f          	j	14724 <tre_set_union+0x1a0>
   147b4:	00000c13          	li	s8,0
   147b8:	f99ff06f          	j	14750 <tre_set_union+0x1cc>
   147bc:	01093683          	ld	a3,16(s2)
   147c0:	00178793          	addi	a5,a5,1
   147c4:	00e686b3          	add	a3,a3,a4
   147c8:	0006a683          	lw	a3,0(a3)
   147cc:	00e58733          	add	a4,a1,a4
   147d0:	00d72023          	sw	a3,0(a4)
   147d4:	fa9ff06f          	j	1477c <tre_set_union+0x1f8>
   147d8:	00271693          	slli	a3,a4,0x2
   147dc:	00dc86b3          	add	a3,s9,a3
   147e0:	0006a683          	lw	a3,0(a3)
   147e4:	00170713          	addi	a4,a4,1
   147e8:	00478793          	addi	a5,a5,4
   147ec:	fed7ae23          	sw	a3,-4(a5)
   147f0:	fa5ff06f          	j	14794 <tre_set_union+0x210>
   147f4:	00f42023          	sw	a5,0(s0)
   147f8:	0044a783          	lw	a5,4(s1)
   147fc:	00f42223          	sw	a5,4(s0)
   14800:	0084a783          	lw	a5,8(s1)
   14804:	00f42423          	sw	a5,8(s0)
   14808:	0184a783          	lw	a5,24(s1)
   1480c:	00f42c23          	sw	a5,24(s0)
   14810:	0204b783          	ld	a5,32(s1)
   14814:	02f43023          	sd	a5,32(s0)
   14818:	0284b783          	ld	a5,40(s1)
   1481c:	02f43423          	sd	a5,40(s0)
   14820:	0304a783          	lw	a5,48(s1)
   14824:	02f42823          	sw	a5,48(s0)
   14828:	0104b783          	ld	a5,16(s1)
   1482c:	00079a63          	bnez	a5,14840 <tre_set_union+0x2bc>
   14830:	00043823          	sd	zero,16(s0)
   14834:	03840413          	addi	s0,s0,56
   14838:	03848493          	addi	s1,s1,56
   1483c:	e41ff06f          	j	1467c <tre_set_union+0xf8>
   14840:	00000713          	li	a4,0
   14844:	0007a683          	lw	a3,0(a5)
   14848:	00070913          	mv	s2,a4
   1484c:	00478793          	addi	a5,a5,4
   14850:	0017071b          	addiw	a4,a4,1
   14854:	fe06d8e3          	bgez	a3,14844 <tre_set_union+0x2c0>
   14858:	00271713          	slli	a4,a4,0x2
   1485c:	00000693          	li	a3,0
   14860:	00000613          	li	a2,0
   14864:	00000593          	li	a1,0
   14868:	00098513          	mv	a0,s3
   1486c:	2d5030ef          	jal	ra,18340 <__tre_mem_alloc_impl>
   14870:	00050793          	mv	a5,a0
   14874:	e20502e3          	beqz	a0,14698 <tre_set_union+0x114>
   14878:	00000713          	li	a4,0
   1487c:	0007061b          	sext.w	a2,a4
   14880:	00271693          	slli	a3,a4,0x2
   14884:	01264c63          	blt	a2,s2,1489c <tre_set_union+0x318>
   14888:	00291913          	slli	s2,s2,0x2
   1488c:	01278933          	add	s2,a5,s2
   14890:	01492023          	sw	s4,0(s2)
   14894:	00f43823          	sd	a5,16(s0)
   14898:	f9dff06f          	j	14834 <tre_set_union+0x2b0>
   1489c:	0104b603          	ld	a2,16(s1)
   148a0:	00170713          	addi	a4,a4,1
   148a4:	00d60633          	add	a2,a2,a3
   148a8:	00062603          	lw	a2,0(a2)
   148ac:	00d786b3          	add	a3,a5,a3
   148b0:	00c6a023          	sw	a2,0(a3)
   148b4:	fc9ff06f          	j	1487c <tre_set_union+0x2f8>

00000000000148b8 <parse_dup_count.part.0>:
   148b8:	0005a023          	sw	zero,0(a1)
   148bc:	00a00613          	li	a2,10
   148c0:	00900813          	li	a6,9
   148c4:	0ff00693          	li	a3,255
   148c8:	0005a783          	lw	a5,0(a1)
   148cc:	00054703          	lbu	a4,0(a0)
   148d0:	00150513          	addi	a0,a0,1
   148d4:	02f607bb          	mulw	a5,a2,a5
   148d8:	fd07071b          	addiw	a4,a4,-48
   148dc:	00e7873b          	addw	a4,a5,a4
   148e0:	00e5a023          	sw	a4,0(a1)
   148e4:	00054783          	lbu	a5,0(a0)
   148e8:	fd07879b          	addiw	a5,a5,-48
   148ec:	00f86463          	bltu	a6,a5,148f4 <parse_dup_count.part.0+0x3c>
   148f0:	fce6dce3          	bge	a3,a4,148c8 <parse_dup_count.part.0+0x10>
   148f4:	00008067          	ret

00000000000148f8 <tre_make_trans>:
   148f8:	fa010113          	addi	sp,sp,-96
   148fc:	04913423          	sd	s1,72(sp)
   14900:	03313c23          	sd	s3,56(sp)
   14904:	04113c23          	sd	ra,88(sp)
   14908:	04813823          	sd	s0,80(sp)
   1490c:	05213023          	sd	s2,64(sp)
   14910:	03413823          	sd	s4,48(sp)
   14914:	03513423          	sd	s5,40(sp)
   14918:	03613023          	sd	s6,32(sp)
   1491c:	01713c23          	sd	s7,24(sp)
   14920:	01813823          	sd	s8,16(sp)
   14924:	01913423          	sd	s9,8(sp)
   14928:	01a13023          	sd	s10,0(sp)
   1492c:	00050493          	mv	s1,a0
   14930:	00058993          	mv	s3,a1
   14934:	2a060663          	beqz	a2,14be0 <tre_make_trans+0x2e8>
   14938:	00060913          	mv	s2,a2
   1493c:	00070a13          	mv	s4,a4
   14940:	fff00b13          	li	s6,-1
   14944:	03800a93          	li	s5,56
   14948:	0004a783          	lw	a5,0(s1)
   1494c:	2807ce63          	bltz	a5,14be8 <tre_make_trans+0x2f0>
   14950:	03898c13          	addi	s8,s3,56
   14954:	fff00793          	li	a5,-1
   14958:	2140006f          	j	14b6c <tre_make_trans+0x274>
   1495c:	20fc8663          	beq	s9,a5,14b68 <tre_make_trans+0x270>
   14960:	0004a783          	lw	a5,0(s1)
   14964:	00279793          	slli	a5,a5,0x2
   14968:	00fa07b3          	add	a5,s4,a5
   1496c:	0007a403          	lw	s0,0(a5)
   14970:	03540433          	mul	s0,s0,s5
   14974:	00890433          	add	s0,s2,s0
   14978:	00843783          	ld	a5,8(s0)
   1497c:	0e079063          	bnez	a5,14a5c <tre_make_trans+0x164>
   14980:	0044a783          	lw	a5,4(s1)
   14984:	0204b603          	ld	a2,32(s1)
   14988:	04043023          	sd	zero,64(s0)
   1498c:	00f42023          	sw	a5,0(s0)
   14990:	0084a783          	lw	a5,8(s1)
   14994:	00f42223          	sw	a5,4(s0)
   14998:	002c9793          	slli	a5,s9,0x2
   1499c:	00fa07b3          	add	a5,s4,a5
   149a0:	0007a783          	lw	a5,0(a5)
   149a4:	01942823          	sw	s9,16(s0)
   149a8:	fe0c2703          	lw	a4,-32(s8)
   149ac:	035787b3          	mul	a5,a5,s5
   149b0:	00f907b3          	add	a5,s2,a5
   149b4:	00f43423          	sd	a5,8(s0)
   149b8:	0184a783          	lw	a5,24(s1)
   149bc:	00e7e7b3          	or	a5,a5,a4
   149c0:	00c03733          	snez	a4,a2
   149c4:	00271713          	slli	a4,a4,0x2
   149c8:	0007879b          	sext.w	a5,a5
   149cc:	00e7e7b3          	or	a5,a5,a4
   149d0:	0284b703          	ld	a4,40(s1)
   149d4:	00e036b3          	snez	a3,a4
   149d8:	00369693          	slli	a3,a3,0x3
   149dc:	00d7e7b3          	or	a5,a5,a3
   149e0:	02f42023          	sw	a5,32(s0)
   149e4:	0304a683          	lw	a3,48(s1)
   149e8:	0606ce63          	bltz	a3,14a64 <tre_make_trans+0x16c>
   149ec:	1007e793          	ori	a5,a5,256
   149f0:	02d42423          	sw	a3,40(s0)
   149f4:	02f42023          	sw	a5,32(s0)
   149f8:	12070263          	beqz	a4,14b1c <tre_make_trans+0x224>
   149fc:	00000513          	li	a0,0
   14a00:	00073783          	ld	a5,0(a4)
   14a04:	0015051b          	addiw	a0,a0,1
   14a08:	00870713          	addi	a4,a4,8
   14a0c:	fe079ae3          	bnez	a5,14a00 <tre_make_trans+0x108>
   14a10:	00351513          	slli	a0,a0,0x3
   14a14:	e81fd0ef          	jal	ra,12894 <malloc>
   14a18:	02a43823          	sd	a0,48(s0)
   14a1c:	04051863          	bnez	a0,14a6c <tre_make_trans+0x174>
   14a20:	00c00513          	li	a0,12
   14a24:	05813083          	ld	ra,88(sp)
   14a28:	05013403          	ld	s0,80(sp)
   14a2c:	04813483          	ld	s1,72(sp)
   14a30:	04013903          	ld	s2,64(sp)
   14a34:	03813983          	ld	s3,56(sp)
   14a38:	03013a03          	ld	s4,48(sp)
   14a3c:	02813a83          	ld	s5,40(sp)
   14a40:	02013b03          	ld	s6,32(sp)
   14a44:	01813b83          	ld	s7,24(sp)
   14a48:	01013c03          	ld	s8,16(sp)
   14a4c:	00813c83          	ld	s9,8(sp)
   14a50:	00013d03          	ld	s10,0(sp)
   14a54:	06010113          	addi	sp,sp,96
   14a58:	00008067          	ret
   14a5c:	03840413          	addi	s0,s0,56
   14a60:	f19ff06f          	j	14978 <tre_make_trans+0x80>
   14a64:	02c43423          	sd	a2,40(s0)
   14a68:	f91ff06f          	j	149f8 <tre_make_trans+0x100>
   14a6c:	0284b783          	ld	a5,40(s1)
   14a70:	0007b703          	ld	a4,0(a5)
   14a74:	00878793          	addi	a5,a5,8
   14a78:	08071c63          	bnez	a4,14b10 <tre_make_trans+0x218>
   14a7c:	00053023          	sd	zero,0(a0)
   14a80:	0104b683          	ld	a3,16(s1)
   14a84:	00000b93          	li	s7,0
   14a88:	02068063          	beqz	a3,14aa8 <tre_make_trans+0x1b0>
   14a8c:	00000793          	li	a5,0
   14a90:	00078b9b          	sext.w	s7,a5
   14a94:	00178793          	addi	a5,a5,1
   14a98:	00279713          	slli	a4,a5,0x2
   14a9c:	00e68733          	add	a4,a3,a4
   14aa0:	ffc72703          	lw	a4,-4(a4)
   14aa4:	fe0756e3          	bgez	a4,14a90 <tre_make_trans+0x198>
   14aa8:	fd8c3683          	ld	a3,-40(s8)
   14aac:	00000d13          	li	s10,0
   14ab0:	02068063          	beqz	a3,14ad0 <tre_make_trans+0x1d8>
   14ab4:	00000793          	li	a5,0
   14ab8:	00078d1b          	sext.w	s10,a5
   14abc:	00178793          	addi	a5,a5,1
   14ac0:	00279713          	slli	a4,a5,0x2
   14ac4:	00e68733          	add	a4,a3,a4
   14ac8:	ffc72703          	lw	a4,-4(a4)
   14acc:	fe0756e3          	bgez	a4,14ab8 <tre_make_trans+0x1c0>
   14ad0:	01843503          	ld	a0,24(s0)
   14ad4:	00050463          	beqz	a0,14adc <tre_make_trans+0x1e4>
   14ad8:	9a4fe0ef          	jal	ra,12c7c <free>
   14adc:	00043c23          	sd	zero,24(s0)
   14ae0:	01ab87bb          	addw	a5,s7,s10
   14ae4:	08078063          	beqz	a5,14b64 <tre_make_trans+0x26c>
   14ae8:	00178b9b          	addiw	s7,a5,1
   14aec:	002b9513          	slli	a0,s7,0x2
   14af0:	da5fd0ef          	jal	ra,12894 <malloc>
   14af4:	00a43c23          	sd	a0,24(s0)
   14af8:	f20504e3          	beqz	a0,14a20 <tre_make_trans+0x128>
   14afc:	0104b603          	ld	a2,16(s1)
   14b00:	00000593          	li	a1,0
   14b04:	04060063          	beqz	a2,14b44 <tre_make_trans+0x24c>
   14b08:	00000713          	li	a4,0
   14b0c:	0240006f          	j	14b30 <tre_make_trans+0x238>
   14b10:	00e53023          	sd	a4,0(a0)
   14b14:	00850513          	addi	a0,a0,8
   14b18:	f59ff06f          	j	14a70 <tre_make_trans+0x178>
   14b1c:	02043823          	sd	zero,48(s0)
   14b20:	f61ff06f          	j	14a80 <tre_make_trans+0x188>
   14b24:	00f507b3          	add	a5,a0,a5
   14b28:	00d7a023          	sw	a3,0(a5)
   14b2c:	00170713          	addi	a4,a4,1
   14b30:	00271793          	slli	a5,a4,0x2
   14b34:	00f606b3          	add	a3,a2,a5
   14b38:	0006a683          	lw	a3,0(a3)
   14b3c:	0007059b          	sext.w	a1,a4
   14b40:	fe06d2e3          	bgez	a3,14b24 <tre_make_trans+0x22c>
   14b44:	fd8c3703          	ld	a4,-40(s8)
   14b48:	00058793          	mv	a5,a1
   14b4c:	00070663          	beqz	a4,14b58 <tre_make_trans+0x260>
   14b50:	00072603          	lw	a2,0(a4)
   14b54:	04065263          	bgez	a2,14b98 <tre_make_trans+0x2a0>
   14b58:	00279793          	slli	a5,a5,0x2
   14b5c:	00f50533          	add	a0,a0,a5
   14b60:	01652023          	sw	s6,0(a0)
   14b64:	000c8793          	mv	a5,s9
   14b68:	038c0c13          	addi	s8,s8,56
   14b6c:	fc8c2c83          	lw	s9,-56(s8)
   14b70:	de0cd6e3          	bgez	s9,1495c <tre_make_trans+0x64>
   14b74:	03848493          	addi	s1,s1,56
   14b78:	dd1ff06f          	j	14948 <tre_make_trans+0x50>
   14b7c:	00168693          	addi	a3,a3,1
   14b80:	00269813          	slli	a6,a3,0x2
   14b84:	01050833          	add	a6,a0,a6
   14b88:	ffc82803          	lw	a6,-4(a6)
   14b8c:	00c81863          	bne	a6,a2,14b9c <tre_make_trans+0x2a4>
   14b90:	00470713          	addi	a4,a4,4
   14b94:	fbdff06f          	j	14b50 <tre_make_trans+0x258>
   14b98:	00000693          	li	a3,0
   14b9c:	0006881b          	sext.w	a6,a3
   14ba0:	fcb84ee3          	blt	a6,a1,14b7c <tre_make_trans+0x284>
   14ba4:	00279693          	slli	a3,a5,0x2
   14ba8:	00d506b3          	add	a3,a0,a3
   14bac:	00c6a023          	sw	a2,0(a3)
   14bb0:	0017879b          	addiw	a5,a5,1
   14bb4:	fddff06f          	j	14b90 <tre_make_trans+0x298>
   14bb8:	0004a783          	lw	a5,0(s1)
   14bbc:	03870713          	addi	a4,a4,56
   14bc0:	00279793          	slli	a5,a5,0x2
   14bc4:	00f687b3          	add	a5,a3,a5
   14bc8:	0007a603          	lw	a2,0(a5)
   14bcc:	0016061b          	addiw	a2,a2,1
   14bd0:	00c7a023          	sw	a2,0(a5)
   14bd4:	00072783          	lw	a5,0(a4)
   14bd8:	fe07d0e3          	bgez	a5,14bb8 <tre_make_trans+0x2c0>
   14bdc:	03848493          	addi	s1,s1,56
   14be0:	0004a783          	lw	a5,0(s1)
   14be4:	0007d663          	bgez	a5,14bf0 <tre_make_trans+0x2f8>
   14be8:	00000513          	li	a0,0
   14bec:	e39ff06f          	j	14a24 <tre_make_trans+0x12c>
   14bf0:	00098713          	mv	a4,s3
   14bf4:	fe1ff06f          	j	14bd4 <tre_make_trans+0x2dc>

0000000000014bf8 <tre_ast_to_tnfa>:
   14bf8:	fb010113          	addi	sp,sp,-80
   14bfc:	04813023          	sd	s0,64(sp)
   14c00:	02913c23          	sd	s1,56(sp)
   14c04:	03213823          	sd	s2,48(sp)
   14c08:	03313423          	sd	s3,40(sp)
   14c0c:	03413023          	sd	s4,32(sp)
   14c10:	01513c23          	sd	s5,24(sp)
   14c14:	01613823          	sd	s6,16(sp)
   14c18:	04113423          	sd	ra,72(sp)
   14c1c:	01713423          	sd	s7,8(sp)
   14c20:	00058413          	mv	s0,a1
   14c24:	00060493          	mv	s1,a2
   14c28:	00068913          	mv	s2,a3
   14c2c:	00200993          	li	s3,2
   14c30:	fff00a13          	li	s4,-1
   14c34:	00300a93          	li	s5,3
   14c38:	00100b13          	li	s6,1
   14c3c:	00052783          	lw	a5,0(a0)
   14c40:	09378663          	beq	a5,s3,14ccc <tre_ast_to_tnfa+0xd4>
   14c44:	03578c63          	beq	a5,s5,14c7c <tre_ast_to_tnfa+0x84>
   14c48:	05678c63          	beq	a5,s6,14ca0 <tre_ast_to_tnfa+0xa8>
   14c4c:	00000513          	li	a0,0
   14c50:	04813083          	ld	ra,72(sp)
   14c54:	04013403          	ld	s0,64(sp)
   14c58:	03813483          	ld	s1,56(sp)
   14c5c:	03013903          	ld	s2,48(sp)
   14c60:	02813983          	ld	s3,40(sp)
   14c64:	02013a03          	ld	s4,32(sp)
   14c68:	01813a83          	ld	s5,24(sp)
   14c6c:	01013b03          	ld	s6,16(sp)
   14c70:	00813b83          	ld	s7,8(sp)
   14c74:	05010113          	addi	sp,sp,80
   14c78:	00008067          	ret
   14c7c:	00853b83          	ld	s7,8(a0)
   14c80:	000bb503          	ld	a0,0(s7) # 26000 <__trunctfdf2+0x184>
   14c84:	00090693          	mv	a3,s2
   14c88:	00048613          	mv	a2,s1
   14c8c:	00040593          	mv	a1,s0
   14c90:	f69ff0ef          	jal	ra,14bf8 <tre_ast_to_tnfa>
   14c94:	fa051ee3          	bnez	a0,14c50 <tre_ast_to_tnfa+0x58>
   14c98:	008bb503          	ld	a0,8(s7)
   14c9c:	fa1ff06f          	j	14c3c <tre_ast_to_tnfa+0x44>
   14ca0:	00853b83          	ld	s7,8(a0)
   14ca4:	00090713          	mv	a4,s2
   14ca8:	00048693          	mv	a3,s1
   14cac:	008bb583          	ld	a1,8(s7)
   14cb0:	000bb783          	ld	a5,0(s7)
   14cb4:	00040613          	mv	a2,s0
   14cb8:	0205b583          	ld	a1,32(a1)
   14cbc:	0287b503          	ld	a0,40(a5)
   14cc0:	c39ff0ef          	jal	ra,148f8 <tre_make_trans>
   14cc4:	fa050ee3          	beqz	a0,14c80 <tre_ast_to_tnfa+0x88>
   14cc8:	f89ff06f          	j	14c50 <tre_ast_to_tnfa+0x58>
   14ccc:	00853b83          	ld	s7,8(a0)
   14cd0:	00cba783          	lw	a5,12(s7)
   14cd4:	01478663          	beq	a5,s4,14ce0 <tre_ast_to_tnfa+0xe8>
   14cd8:	000bb503          	ld	a0,0(s7)
   14cdc:	f61ff06f          	j	14c3c <tre_ast_to_tnfa+0x44>
   14ce0:	000bb783          	ld	a5,0(s7)
   14ce4:	00090713          	mv	a4,s2
   14ce8:	00048693          	mv	a3,s1
   14cec:	0207b583          	ld	a1,32(a5)
   14cf0:	0287b503          	ld	a0,40(a5)
   14cf4:	00040613          	mv	a2,s0
   14cf8:	c01ff0ef          	jal	ra,148f8 <tre_make_trans>
   14cfc:	fc050ee3          	beqz	a0,14cd8 <tre_ast_to_tnfa+0xe0>
   14d00:	f51ff06f          	j	14c50 <tre_ast_to_tnfa+0x58>

0000000000014d04 <tre_ast_new_union>:
   14d04:	fd010113          	addi	sp,sp,-48
   14d08:	02813023          	sd	s0,32(sp)
   14d0c:	02113423          	sd	ra,40(sp)
   14d10:	00913c23          	sd	s1,24(sp)
   14d14:	01213823          	sd	s2,16(sp)
   14d18:	01313423          	sd	s3,8(sp)
   14d1c:	00060413          	mv	s0,a2
   14d20:	04058c63          	beqz	a1,14d78 <tre_ast_new_union+0x74>
   14d24:	00000613          	li	a2,0
   14d28:	00058493          	mv	s1,a1
   14d2c:	01000713          	li	a4,16
   14d30:	00000593          	li	a1,0
   14d34:	00100693          	li	a3,1
   14d38:	00050993          	mv	s3,a0
   14d3c:	604030ef          	jal	ra,18340 <__tre_mem_alloc_impl>
   14d40:	00050913          	mv	s2,a0
   14d44:	00050613          	mv	a2,a0
   14d48:	00300593          	li	a1,3
   14d4c:	00098513          	mv	a0,s3
   14d50:	959fe0ef          	jal	ra,136a8 <tre_ast_new_node>
   14d54:	04050263          	beqz	a0,14d98 <tre_ast_new_union+0x94>
   14d58:	02040063          	beqz	s0,14d78 <tre_ast_new_union+0x74>
   14d5c:	01842703          	lw	a4,24(s0)
   14d60:	0184a783          	lw	a5,24(s1)
   14d64:	00893423          	sd	s0,8(s2)
   14d68:	00993023          	sd	s1,0(s2)
   14d6c:	00e787bb          	addw	a5,a5,a4
   14d70:	00f52c23          	sw	a5,24(a0)
   14d74:	00050413          	mv	s0,a0
   14d78:	02813083          	ld	ra,40(sp)
   14d7c:	00040513          	mv	a0,s0
   14d80:	02013403          	ld	s0,32(sp)
   14d84:	01813483          	ld	s1,24(sp)
   14d88:	01013903          	ld	s2,16(sp)
   14d8c:	00813983          	ld	s3,8(sp)
   14d90:	03010113          	addi	sp,sp,48
   14d94:	00008067          	ret
   14d98:	00000413          	li	s0,0
   14d9c:	fddff06f          	j	14d78 <tre_ast_new_union+0x74>

0000000000014da0 <tre_ast_new_catenation>:
   14da0:	fd010113          	addi	sp,sp,-48
   14da4:	02813023          	sd	s0,32(sp)
   14da8:	02113423          	sd	ra,40(sp)
   14dac:	00913c23          	sd	s1,24(sp)
   14db0:	01213823          	sd	s2,16(sp)
   14db4:	01313423          	sd	s3,8(sp)
   14db8:	00060413          	mv	s0,a2
   14dbc:	06058663          	beqz	a1,14e28 <tre_ast_new_catenation+0x88>
   14dc0:	00000613          	li	a2,0
   14dc4:	00058493          	mv	s1,a1
   14dc8:	01000713          	li	a4,16
   14dcc:	00000593          	li	a1,0
   14dd0:	00100693          	li	a3,1
   14dd4:	00050993          	mv	s3,a0
   14dd8:	568030ef          	jal	ra,18340 <__tre_mem_alloc_impl>
   14ddc:	00050913          	mv	s2,a0
   14de0:	00050613          	mv	a2,a0
   14de4:	00100593          	li	a1,1
   14de8:	00098513          	mv	a0,s3
   14dec:	8bdfe0ef          	jal	ra,136a8 <tre_ast_new_node>
   14df0:	00050e63          	beqz	a0,14e0c <tre_ast_new_catenation+0x6c>
   14df4:	0184a783          	lw	a5,24(s1)
   14df8:	01842703          	lw	a4,24(s0)
   14dfc:	00993023          	sd	s1,0(s2)
   14e00:	00893423          	sd	s0,8(s2)
   14e04:	00e787bb          	addw	a5,a5,a4
   14e08:	00f52c23          	sw	a5,24(a0)
   14e0c:	02813083          	ld	ra,40(sp)
   14e10:	02013403          	ld	s0,32(sp)
   14e14:	01813483          	ld	s1,24(sp)
   14e18:	01013903          	ld	s2,16(sp)
   14e1c:	00813983          	ld	s3,8(sp)
   14e20:	03010113          	addi	sp,sp,48
   14e24:	00008067          	ret
   14e28:	00060513          	mv	a0,a2
   14e2c:	fe1ff06f          	j	14e0c <tre_ast_new_catenation+0x6c>

0000000000014e30 <tre_copy_ast>:
   14e30:	f7010113          	addi	sp,sp,-144
   14e34:	00f13423          	sd	a5,8(sp)
   14e38:	00c5a783          	lw	a5,12(a1)
   14e3c:	08813023          	sd	s0,128(sp)
   14e40:	00058413          	mv	s0,a1
   14e44:	07213823          	sd	s2,112(sp)
   14e48:	00060593          	mv	a1,a2
   14e4c:	00050913          	mv	s2,a0
   14e50:	00040513          	mv	a0,s0
   14e54:	00f13023          	sd	a5,0(sp)
   14e58:	08113423          	sd	ra,136(sp)
   14e5c:	06913c23          	sd	s1,120(sp)
   14e60:	07313423          	sd	s3,104(sp)
   14e64:	07413023          	sd	s4,96(sp)
   14e68:	00068993          	mv	s3,a3
   14e6c:	05513c23          	sd	s5,88(sp)
   14e70:	05613823          	sd	s6,80(sp)
   14e74:	05713423          	sd	s7,72(sp)
   14e78:	05813023          	sd	s8,64(sp)
   14e7c:	03913c23          	sd	s9,56(sp)
   14e80:	03a13823          	sd	s10,48(sp)
   14e84:	00070a13          	mv	s4,a4
   14e88:	00080493          	mv	s1,a6
   14e8c:	00088a93          	mv	s5,a7
   14e90:	03b13423          	sd	s11,40(sp)
   14e94:	dc0fe0ef          	jal	ra,13454 <tre_stack_push_voidptr>
   14e98:	00000593          	li	a1,0
   14e9c:	00040513          	mv	a0,s0
   14ea0:	f68fe0ef          	jal	ra,13608 <tre_stack_push_int>
   14ea4:	0019f793          	andi	a5,s3,1
   14ea8:	00050b13          	mv	s6,a0
   14eac:	00100c13          	li	s8,1
   14eb0:	00000b93          	li	s7,0
   14eb4:	00100c93          	li	s9,1
   14eb8:	00200d13          	li	s10,2
   14ebc:	00f13823          	sd	a5,16(sp)
   14ec0:	0029f993          	andi	s3,s3,2
   14ec4:	000b1863          	bnez	s6,14ed4 <tre_copy_ast+0xa4>
   14ec8:	00c42783          	lw	a5,12(s0)
   14ecc:	00013703          	ld	a4,0(sp)
   14ed0:	04f74863          	blt	a4,a5,14f20 <tre_copy_ast+0xf0>
   14ed4:	000a2783          	lw	a5,0(s4)
   14ed8:	08813083          	ld	ra,136(sp)
   14edc:	08013403          	ld	s0,128(sp)
   14ee0:	01778bbb          	addw	s7,a5,s7
   14ee4:	017a2023          	sw	s7,0(s4)
   14ee8:	07813483          	ld	s1,120(sp)
   14eec:	07013903          	ld	s2,112(sp)
   14ef0:	06813983          	ld	s3,104(sp)
   14ef4:	06013a03          	ld	s4,96(sp)
   14ef8:	05813a83          	ld	s5,88(sp)
   14efc:	04813b83          	ld	s7,72(sp)
   14f00:	04013c03          	ld	s8,64(sp)
   14f04:	03813c83          	ld	s9,56(sp)
   14f08:	03013d03          	ld	s10,48(sp)
   14f0c:	02813d83          	ld	s11,40(sp)
   14f10:	000b0513          	mv	a0,s6
   14f14:	05013b03          	ld	s6,80(sp)
   14f18:	09010113          	addi	sp,sp,144
   14f1c:	00008067          	ret
   14f20:	00040513          	mv	a0,s0
   14f24:	bbcfe0ef          	jal	ra,132e0 <tre_stack_pop_int>
   14f28:	00050d93          	mv	s11,a0
   14f2c:	02050063          	beqz	a0,14f4c <tre_copy_ast+0x11c>
   14f30:	f9951ce3          	bne	a0,s9,14ec8 <tre_copy_ast+0x98>
   14f34:	00040513          	mv	a0,s0
   14f38:	bc8fe0ef          	jal	ra,13300 <tre_stack_pop_voidptr>
   14f3c:	00050493          	mv	s1,a0
   14f40:	00000d93          	li	s11,0
   14f44:	000d8b13          	mv	s6,s11
   14f48:	f7dff06f          	j	14ec4 <tre_copy_ast+0x94>
   14f4c:	00040513          	mv	a0,s0
   14f50:	bb0fe0ef          	jal	ra,13300 <tre_stack_pop_voidptr>
   14f54:	00052703          	lw	a4,0(a0)
   14f58:	19a70863          	beq	a4,s10,150e8 <tre_copy_ast+0x2b8>
   14f5c:	06ed6863          	bltu	s10,a4,14fcc <tre_copy_ast+0x19c>
   14f60:	00853b03          	ld	s6,8(a0)
   14f64:	14071c63          	bnez	a4,150bc <tre_copy_ast+0x28c>
   14f68:	000b3703          	ld	a4,0(s6)
   14f6c:	010b2683          	lw	a3,16(s6)
   14f70:	008b2603          	lw	a2,8(s6)
   14f74:	0007059b          	sext.w	a1,a4
   14f78:	00075663          	bgez	a4,14f84 <tre_copy_ast+0x154>
   14f7c:	ffc00513          	li	a0,-4
   14f80:	0ea71863          	bne	a4,a0,15070 <tre_copy_ast+0x240>
   14f84:	000a2703          	lw	a4,0(s4)
   14f88:	001b8b9b          	addiw	s7,s7,1
   14f8c:	00d706bb          	addw	a3,a4,a3
   14f90:	00090513          	mv	a0,s2
   14f94:	00d13c23          	sd	a3,24(sp)
   14f98:	81dfe0ef          	jal	ra,137b4 <tre_ast_new_literal>
   14f9c:	00a4b023          	sd	a0,0(s1)
   14fa0:	01813683          	ld	a3,24(sp)
   14fa4:	10050863          	beqz	a0,150b4 <tre_copy_ast+0x284>
   14fa8:	018b3603          	ld	a2,24(s6)
   14fac:	00853703          	ld	a4,8(a0)
   14fb0:	00c73c23          	sd	a2,24(a4)
   14fb4:	020b3603          	ld	a2,32(s6)
   14fb8:	02c73023          	sd	a2,32(a4)
   14fbc:	000aa703          	lw	a4,0(s5)
   14fc0:	f8d752e3          	bge	a4,a3,14f44 <tre_copy_ast+0x114>
   14fc4:	00daa023          	sw	a3,0(s5)
   14fc8:	f7dff06f          	j	14f44 <tre_copy_ast+0x114>
   14fcc:	00300693          	li	a3,3
   14fd0:	f6d71ae3          	bne	a4,a3,14f44 <tre_copy_ast+0x114>
   14fd4:	00853b03          	ld	s6,8(a0)
   14fd8:	00090513          	mv	a0,s2
   14fdc:	00c00d93          	li	s11,12
   14fe0:	008b3603          	ld	a2,8(s6)
   14fe4:	000b3583          	ld	a1,0(s6)
   14fe8:	d1dff0ef          	jal	ra,14d04 <tre_ast_new_union>
   14fec:	00a4b023          	sd	a0,0(s1)
   14ff0:	f4050ae3          	beqz	a0,14f44 <tre_copy_ast+0x114>
   14ff4:	00853483          	ld	s1,8(a0)
   14ff8:	008b3583          	ld	a1,8(s6)
   14ffc:	00040513          	mv	a0,s0
   15000:	c54fe0ef          	jal	ra,13454 <tre_stack_push_voidptr>
   15004:	00050d93          	mv	s11,a0
   15008:	f2051ee3          	bnez	a0,14f44 <tre_copy_ast+0x114>
   1500c:	00000593          	li	a1,0
   15010:	00040513          	mv	a0,s0
   15014:	df4fe0ef          	jal	ra,13608 <tre_stack_push_int>
   15018:	00050d93          	mv	s11,a0
   1501c:	f20514e3          	bnez	a0,14f44 <tre_copy_ast+0x114>
   15020:	00848593          	addi	a1,s1,8
   15024:	00040513          	mv	a0,s0
   15028:	c2cfe0ef          	jal	ra,13454 <tre_stack_push_voidptr>
   1502c:	00050d93          	mv	s11,a0
   15030:	f0051ae3          	bnez	a0,14f44 <tre_copy_ast+0x114>
   15034:	00100593          	li	a1,1
   15038:	00040513          	mv	a0,s0
   1503c:	dccfe0ef          	jal	ra,13608 <tre_stack_push_int>
   15040:	00050d93          	mv	s11,a0
   15044:	f00510e3          	bnez	a0,14f44 <tre_copy_ast+0x114>
   15048:	000b3583          	ld	a1,0(s6)
   1504c:	00040513          	mv	a0,s0
   15050:	c04fe0ef          	jal	ra,13454 <tre_stack_push_voidptr>
   15054:	00050d93          	mv	s11,a0
   15058:	ee0516e3          	bnez	a0,14f44 <tre_copy_ast+0x114>
   1505c:	00000593          	li	a1,0
   15060:	00040513          	mv	a0,s0
   15064:	da4fe0ef          	jal	ra,13608 <tre_stack_push_int>
   15068:	00050d93          	mv	s11,a0
   1506c:	ed9ff06f          	j	14f44 <tre_copy_ast+0x114>
   15070:	ffd00513          	li	a0,-3
   15074:	f0a71ee3          	bne	a4,a0,14f90 <tre_copy_ast+0x160>
   15078:	01013783          	ld	a5,16(sp)
   1507c:	02079463          	bnez	a5,150a4 <tre_copy_ast+0x274>
   15080:	ffd00593          	li	a1,-3
   15084:	f00986e3          	beqz	s3,14f90 <tre_copy_ast+0x160>
   15088:	f00c04e3          	beqz	s8,14f90 <tre_copy_ast+0x160>
   1508c:	00813783          	ld	a5,8(sp)
   15090:	00261713          	slli	a4,a2,0x2
   15094:	00000c13          	li	s8,0
   15098:	00e78733          	add	a4,a5,a4
   1509c:	01972023          	sw	s9,0(a4)
   150a0:	ef1ff06f          	j	14f90 <tre_copy_ast+0x160>
   150a4:	fff00613          	li	a2,-1
   150a8:	fff00593          	li	a1,-1
   150ac:	fff00693          	li	a3,-1
   150b0:	ee1ff06f          	j	14f90 <tre_copy_ast+0x160>
   150b4:	00c00d93          	li	s11,12
   150b8:	f05ff06f          	j	14fbc <tre_copy_ast+0x18c>
   150bc:	008b3603          	ld	a2,8(s6)
   150c0:	000b3583          	ld	a1,0(s6)
   150c4:	00090513          	mv	a0,s2
   150c8:	00c00d93          	li	s11,12
   150cc:	cd5ff0ef          	jal	ra,14da0 <tre_ast_new_catenation>
   150d0:	00a4b023          	sd	a0,0(s1)
   150d4:	e60508e3          	beqz	a0,14f44 <tre_copy_ast+0x114>
   150d8:	00853483          	ld	s1,8(a0)
   150dc:	0004b023          	sd	zero,0(s1)
   150e0:	0004b423          	sd	zero,8(s1)
   150e4:	f15ff06f          	j	14ff8 <tre_copy_ast+0x1c8>
   150e8:	00853b03          	ld	s6,8(a0)
   150ec:	00040513          	mv	a0,s0
   150f0:	000b3583          	ld	a1,0(s6)
   150f4:	b60fe0ef          	jal	ra,13454 <tre_stack_push_voidptr>
   150f8:	00050d93          	mv	s11,a0
   150fc:	e40514e3          	bnez	a0,14f44 <tre_copy_ast+0x114>
   15100:	00000593          	li	a1,0
   15104:	00040513          	mv	a0,s0
   15108:	d00fe0ef          	jal	ra,13608 <tre_stack_push_int>
   1510c:	00050d93          	mv	s11,a0
   15110:	e2051ae3          	bnez	a0,14f44 <tre_copy_ast+0x114>
   15114:	010b3703          	ld	a4,16(s6)
   15118:	00cb2683          	lw	a3,12(s6)
   1511c:	008b2603          	lw	a2,8(s6)
   15120:	000b3583          	ld	a1,0(s6)
   15124:	00177713          	andi	a4,a4,1
   15128:	00090513          	mv	a0,s2
   1512c:	ddcfe0ef          	jal	ra,13708 <tre_ast_new_iter>
   15130:	00a4b023          	sd	a0,0(s1)
   15134:	00050663          	beqz	a0,15140 <tre_copy_ast+0x310>
   15138:	00853483          	ld	s1,8(a0)
   1513c:	e09ff06f          	j	14f44 <tre_copy_ast+0x114>
   15140:	00c00d93          	li	s11,12
   15144:	e01ff06f          	j	14f44 <tre_copy_ast+0x114>

0000000000015148 <parse_bracket>:
   15148:	00053783          	ld	a5,0(a0)
   1514c:	d6010113          	addi	sp,sp,-672
   15150:	27313c23          	sd	s3,632(sp)
   15154:	02f13023          	sd	a5,32(sp)
   15158:	00100793          	li	a5,1
   1515c:	02579793          	slli	a5,a5,0x25
   15160:	00050993          	mv	s3,a0
   15164:	10000513          	li	a0,256
   15168:	28913423          	sd	s1,648(sp)
   1516c:	27413823          	sd	s4,624(sp)
   15170:	28113c23          	sd	ra,664(sp)
   15174:	28813823          	sd	s0,656(sp)
   15178:	29213023          	sd	s2,640(sp)
   1517c:	27513423          	sd	s5,616(sp)
   15180:	27613023          	sd	s6,608(sp)
   15184:	25713c23          	sd	s7,600(sp)
   15188:	25813823          	sd	s8,592(sp)
   1518c:	25913423          	sd	s9,584(sp)
   15190:	25a13023          	sd	s10,576(sp)
   15194:	00058a13          	mv	s4,a1
   15198:	02f13823          	sd	a5,48(sp)
   1519c:	ef8fd0ef          	jal	ra,12894 <malloc>
   151a0:	02a13423          	sd	a0,40(sp)
   151a4:	00c00493          	li	s1,12
   151a8:	06050c63          	beqz	a0,15220 <parse_bracket+0xd8>
   151ac:	000a4703          	lbu	a4,0(s4)
   151b0:	02012e23          	sw	zero,60(sp)
   151b4:	05e00693          	li	a3,94
   151b8:	fa270793          	addi	a5,a4,-94
   151bc:	0017b793          	seqz	a5,a5
   151c0:	02f12c23          	sw	a5,56(sp)
   151c4:	00d71463          	bne	a4,a3,151cc <parse_bracket+0x84>
   151c8:	001a0a13          	addi	s4,s4,1
   151cc:	00110b37          	lui	s6,0x110
   151d0:	000a0413          	mv	s0,s4
   151d4:	03a00b93          	li	s7,58
   151d8:	00e00c93          	li	s9,14
   151dc:	fffb0b13          	addi	s6,s6,-1 # 10ffff <__BSS_END__+0xe308f>
   151e0:	fff00613          	li	a2,-1
   151e4:	00040593          	mv	a1,s0
   151e8:	00c10513          	addi	a0,sp,12
   151ec:	095090ef          	jal	ra,1ea80 <mbtowc>
   151f0:	00044783          	lbu	a5,0(s0)
   151f4:	06a04463          	bgtz	a0,1525c <parse_bracket+0x114>
   151f8:	00200493          	li	s1,2
   151fc:	00079463          	bnez	a5,15204 <parse_bracket+0xbc>
   15200:	00700493          	li	s1,7
   15204:	00000413          	li	s0,0
   15208:	02813503          	ld	a0,40(sp)
   1520c:	a71fd0ef          	jal	ra,12c7c <free>
   15210:	02c9a783          	lw	a5,44(s3)
   15214:	0089b823          	sd	s0,16(s3)
   15218:	0017879b          	addiw	a5,a5,1
   1521c:	02f9a623          	sw	a5,44(s3)
   15220:	29813083          	ld	ra,664(sp)
   15224:	29013403          	ld	s0,656(sp)
   15228:	28013903          	ld	s2,640(sp)
   1522c:	27813983          	ld	s3,632(sp)
   15230:	27013a03          	ld	s4,624(sp)
   15234:	26813a83          	ld	s5,616(sp)
   15238:	26013b03          	ld	s6,608(sp)
   1523c:	25813b83          	ld	s7,600(sp)
   15240:	25013c03          	ld	s8,592(sp)
   15244:	24813c83          	ld	s9,584(sp)
   15248:	24013d03          	ld	s10,576(sp)
   1524c:	00048513          	mv	a0,s1
   15250:	28813483          	ld	s1,648(sp)
   15254:	2a010113          	addi	sp,sp,672
   15258:	00008067          	ret
   1525c:	05d00713          	li	a4,93
   15260:	04e79063          	bne	a5,a4,152a0 <parse_bracket+0x158>
   15264:	108a0c63          	beq	s4,s0,1537c <parse_bracket+0x234>
   15268:	03812783          	lw	a5,56(sp)
   1526c:	00140413          	addi	s0,s0,1
   15270:	0089bc23          	sd	s0,24(s3)
   15274:	24079663          	bnez	a5,154c0 <parse_bracket+0x378>
   15278:	00000913          	li	s2,0
   1527c:	00000a13          	li	s4,0
   15280:	00000413          	li	s0,0
   15284:	00000493          	li	s1,0
   15288:	03012683          	lw	a3,48(sp)
   1528c:	000a071b          	sext.w	a4,s4
   15290:	02813783          	ld	a5,40(sp)
   15294:	2ed74063          	blt	a4,a3,15574 <parse_bracket+0x42c>
   15298:	00000493          	li	s1,0
   1529c:	f6dff06f          	j	15208 <parse_bracket+0xc0>
   152a0:	02d00693          	li	a3,45
   152a4:	02d79263          	bne	a5,a3,152c8 <parse_bracket+0x180>
   152a8:	0c8a0a63          	beq	s4,s0,1537c <parse_bracket+0x234>
   152ac:	00144683          	lbu	a3,1(s0)
   152b0:	0ce68663          	beq	a3,a4,1537c <parse_bracket+0x234>
   152b4:	00f69663          	bne	a3,a5,152c0 <parse_bracket+0x178>
   152b8:	00244783          	lbu	a5,2(s0)
   152bc:	0ce79063          	bne	a5,a4,1537c <parse_bracket+0x234>
   152c0:	00b00493          	li	s1,11
   152c4:	f41ff06f          	j	15204 <parse_bracket+0xbc>
   152c8:	05b00713          	li	a4,91
   152cc:	0ae79863          	bne	a5,a4,1537c <parse_bracket+0x234>
   152d0:	00144783          	lbu	a5,1(s0)
   152d4:	02e00713          	li	a4,46
   152d8:	30e78e63          	beq	a5,a4,155f4 <parse_bracket+0x4ac>
   152dc:	03d00713          	li	a4,61
   152e0:	30e78a63          	beq	a5,a4,155f4 <parse_bracket+0x4ac>
   152e4:	09779c63          	bne	a5,s7,1537c <parse_bracket+0x234>
   152e8:	00240a93          	addi	s5,s0,2
   152ec:	00000613          	li	a2,0
   152f0:	00c407b3          	add	a5,s0,a2
   152f4:	0027c783          	lbu	a5,2(a5)
   152f8:	0006049b          	sext.w	s1,a2
   152fc:	02078863          	beqz	a5,1532c <parse_bracket+0x1e4>
   15300:	03779a63          	bne	a5,s7,15334 <parse_bracket+0x1ec>
   15304:	000a8593          	mv	a1,s5
   15308:	01010513          	addi	a0,sp,16
   1530c:	250060ef          	jal	ra,1b55c <memcpy>
   15310:	24010793          	addi	a5,sp,576
   15314:	009787b3          	add	a5,a5,s1
   15318:	dc078823          	sb	zero,-560(a5)
   1531c:	01010513          	addi	a0,sp,16
   15320:	5c4080ef          	jal	ra,1d8e4 <wctype>
   15324:	00050913          	mv	s2,a0
   15328:	00051c63          	bnez	a0,15340 <parse_bracket+0x1f8>
   1532c:	00400493          	li	s1,4
   15330:	ed5ff06f          	j	15204 <parse_bracket+0xbc>
   15334:	00160613          	addi	a2,a2,1
   15338:	fb961ce3          	bne	a2,s9,152f0 <parse_bracket+0x1a8>
   1533c:	ff1ff06f          	j	1532c <parse_bracket+0x1e4>
   15340:	0014879b          	addiw	a5,s1,1
   15344:	00fa87b3          	add	a5,s5,a5
   15348:	0007c703          	lbu	a4,0(a5)
   1534c:	05d00793          	li	a5,93
   15350:	fcf71ee3          	bne	a4,a5,1532c <parse_bracket+0x1e4>
   15354:	0024841b          	addiw	s0,s1,2
   15358:	03812483          	lw	s1,56(sp)
   1535c:	008a8433          	add	s0,s5,s0
   15360:	000b0a93          	mv	s5,s6
   15364:	06048063          	beqz	s1,153c4 <parse_bracket+0x27c>
   15368:	03c12783          	lw	a5,60(sp)
   1536c:	03f00713          	li	a4,63
   15370:	0cf75a63          	bge	a4,a5,15444 <parse_bracket+0x2fc>
   15374:	00c00493          	li	s1,12
   15378:	e8dff06f          	j	15204 <parse_bracket+0xbc>
   1537c:	00a40433          	add	s0,s0,a0
   15380:	00044703          	lbu	a4,0(s0)
   15384:	02d00793          	li	a5,45
   15388:	00c12483          	lw	s1,12(sp)
   1538c:	0cf71a63          	bne	a4,a5,15460 <parse_bracket+0x318>
   15390:	00144703          	lbu	a4,1(s0)
   15394:	05d00793          	li	a5,93
   15398:	0cf70463          	beq	a4,a5,15460 <parse_bracket+0x318>
   1539c:	00140413          	addi	s0,s0,1
   153a0:	fff00613          	li	a2,-1
   153a4:	00040593          	mv	a1,s0
   153a8:	00c10513          	addi	a0,sp,12
   153ac:	6d4090ef          	jal	ra,1ea80 <mbtowc>
   153b0:	00c12a83          	lw	s5,12(sp)
   153b4:	f0a056e3          	blez	a0,152c0 <parse_bracket+0x178>
   153b8:	f09ac4e3          	blt	s5,s1,152c0 <parse_bracket+0x178>
   153bc:	00a40433          	add	s0,s0,a0
   153c0:	00000913          	li	s2,0
   153c4:	02010513          	addi	a0,sp,32
   153c8:	a4cfe0ef          	jal	ra,13614 <tre_new_lit>
   153cc:	fa0504e3          	beqz	a0,15374 <parse_bracket+0x22c>
   153d0:	fff00793          	li	a5,-1
   153d4:	00f52823          	sw	a5,16(a0)
   153d8:	0349a783          	lw	a5,52(s3)
   153dc:	00953023          	sd	s1,0(a0)
   153e0:	01553423          	sd	s5,8(a0)
   153e4:	01253c23          	sd	s2,24(a0)
   153e8:	0027f793          	andi	a5,a5,2
   153ec:	de078ae3          	beqz	a5,151e0 <parse_bracket+0x98>
   153f0:	fff00d13          	li	s10,-1
   153f4:	de0916e3          	bnez	s2,151e0 <parse_bracket+0x98>
   153f8:	de9ac4e3          	blt	s5,s1,151e0 <parse_bracket+0x98>
   153fc:	0004891b          	sext.w	s2,s1
   15400:	00090513          	mv	a0,s2
   15404:	59c080ef          	jal	ra,1d9a0 <iswlower>
   15408:	0014849b          	addiw	s1,s1,1
   1540c:	06050c63          	beqz	a0,15484 <parse_bracket+0x33c>
   15410:	00090513          	mv	a0,s2
   15414:	0b1080ef          	jal	ra,1dcc4 <towupper>
   15418:	00050c1b          	sext.w	s8,a0
   1541c:	0015091b          	addiw	s2,a0,1
   15420:	049ad463          	bge	s5,s1,15468 <parse_bracket+0x320>
   15424:	02010513          	addi	a0,sp,32
   15428:	9ecfe0ef          	jal	ra,13614 <tre_new_lit>
   1542c:	f40504e3          	beqz	a0,15374 <parse_bracket+0x22c>
   15430:	fff9091b          	addiw	s2,s2,-1
   15434:	01853023          	sd	s8,0(a0)
   15438:	01253423          	sd	s2,8(a0)
   1543c:	01a52823          	sw	s10,16(a0)
   15440:	fb9ff06f          	j	153f8 <parse_bracket+0x2b0>
   15444:	0017871b          	addiw	a4,a5,1
   15448:	02e12e23          	sw	a4,60(sp)
   1544c:	00379793          	slli	a5,a5,0x3
   15450:	24010713          	addi	a4,sp,576
   15454:	00f707b3          	add	a5,a4,a5
   15458:	e0a7b023          	sd	a0,-512(a5)
   1545c:	d85ff06f          	j	151e0 <parse_bracket+0x98>
   15460:	00048a93          	mv	s5,s1
   15464:	f5dff06f          	j	153c0 <parse_bracket+0x278>
   15468:	00048513          	mv	a0,s1
   1546c:	059080ef          	jal	ra,1dcc4 <towupper>
   15470:	0005051b          	sext.w	a0,a0
   15474:	fb2518e3          	bne	a0,s2,15424 <parse_bracket+0x2dc>
   15478:	0014849b          	addiw	s1,s1,1
   1547c:	0019091b          	addiw	s2,s2,1
   15480:	fa1ff06f          	j	15420 <parse_bracket+0x2d8>
   15484:	00090513          	mv	a0,s2
   15488:	66c080ef          	jal	ra,1daf4 <iswupper>
