
libc-bench2:     file format elf64-littleriscv


Disassembly of section .text:

00000000000100e8 <main>:
   100e8:	000105b7          	lui	a1,0x10
   100ec:	0001f537          	lui	a0,0x1f
   100f0:	1141                	addi	sp,sp,-16
   100f2:	4601                	li	a2,0
   100f4:	6da58593          	addi	a1,a1,1754 # 106da <b_malloc_sparse>
   100f8:	2d850513          	addi	a0,a0,728 # 1f2d8 <__clzdi2+0x104>
   100fc:	e406                	sd	ra,8(sp)
   100fe:	e022                	sd	s0,0(sp)
   10100:	4cc000ef          	jal	ra,105cc <run_bench>
   10104:	000105b7          	lui	a1,0x10
   10108:	0001f537          	lui	a0,0x1f
   1010c:	4601                	li	a2,0
   1010e:	76a58593          	addi	a1,a1,1898 # 1076a <b_malloc_bubble>
   10112:	2f050513          	addi	a0,a0,752 # 1f2f0 <__clzdi2+0x11c>
   10116:	4b6000ef          	jal	ra,105cc <run_bench>
   1011a:	000105b7          	lui	a1,0x10
   1011e:	0001f537          	lui	a0,0x1f
   10122:	4601                	li	a2,0
   10124:	7da58593          	addi	a1,a1,2010 # 107da <b_malloc_tiny1>
   10128:	30850513          	addi	a0,a0,776 # 1f308 <__clzdi2+0x134>
   1012c:	4a0000ef          	jal	ra,105cc <run_bench>
   10130:	000115b7          	lui	a1,0x11
   10134:	0001f537          	lui	a0,0x1f
   10138:	4601                	li	a2,0
   1013a:	84c58593          	addi	a1,a1,-1972 # 1084c <b_malloc_tiny2>
   1013e:	32050513          	addi	a0,a0,800 # 1f320 <__clzdi2+0x14c>
   10142:	48a000ef          	jal	ra,105cc <run_bench>
   10146:	000115b7          	lui	a1,0x11
   1014a:	0001f537          	lui	a0,0x1f
   1014e:	4601                	li	a2,0
   10150:	8d658593          	addi	a1,a1,-1834 # 108d6 <b_malloc_big1>
   10154:	33850513          	addi	a0,a0,824 # 1f338 <__clzdi2+0x164>
   10158:	474000ef          	jal	ra,105cc <run_bench>
   1015c:	000115b7          	lui	a1,0x11
   10160:	0001f537          	lui	a0,0x1f
   10164:	4601                	li	a2,0
   10166:	94658593          	addi	a1,a1,-1722 # 10946 <b_malloc_big2>
   1016a:	35050513          	addi	a0,a0,848 # 1f350 <__clzdi2+0x17c>
   1016e:	45e000ef          	jal	ra,105cc <run_bench>
   10172:	000115b7          	lui	a1,0x11
   10176:	0001f537          	lui	a0,0x1f
   1017a:	4601                	li	a2,0
   1017c:	9d258593          	addi	a1,a1,-1582 # 109d2 <b_malloc_thread_stress>
   10180:	36850513          	addi	a0,a0,872 # 1f368 <__clzdi2+0x194>
   10184:	448000ef          	jal	ra,105cc <run_bench>
   10188:	000115b7          	lui	a1,0x11
   1018c:	0001f537          	lui	a0,0x1f
   10190:	4601                	li	a2,0
   10192:	a6c58593          	addi	a1,a1,-1428 # 10a6c <b_malloc_thread_local>
   10196:	38850513          	addi	a0,a0,904 # 1f388 <__clzdi2+0x1b4>
   1019a:	432000ef          	jal	ra,105cc <run_bench>
   1019e:	00011437          	lui	s0,0x11
   101a2:	0001f637          	lui	a2,0x1f
   101a6:	0001f537          	lui	a0,0x1f
   101aa:	de240593          	addi	a1,s0,-542 # 10de2 <b_string_strstr>
   101ae:	3a860613          	addi	a2,a2,936 # 1f3a8 <__clzdi2+0x1d4>
   101b2:	3c850513          	addi	a0,a0,968 # 1f3c8 <__clzdi2+0x1f4>
   101b6:	416000ef          	jal	ra,105cc <run_bench>
   101ba:	0001f637          	lui	a2,0x1f
   101be:	0001f537          	lui	a0,0x1f
   101c2:	de240593          	addi	a1,s0,-542
   101c6:	3f860613          	addi	a2,a2,1016 # 1f3f8 <__clzdi2+0x224>
   101ca:	41850513          	addi	a0,a0,1048 # 1f418 <__clzdi2+0x244>
   101ce:	3fe000ef          	jal	ra,105cc <run_bench>
   101d2:	0001f637          	lui	a2,0x1f
   101d6:	0001f537          	lui	a0,0x1f
   101da:	de240593          	addi	a1,s0,-542
   101de:	44860613          	addi	a2,a2,1096 # 1f448 <__clzdi2+0x274>
   101e2:	46850513          	addi	a0,a0,1128 # 1f468 <__clzdi2+0x294>
   101e6:	3e6000ef          	jal	ra,105cc <run_bench>
   101ea:	0001f637          	lui	a2,0x1f
   101ee:	0001f537          	lui	a0,0x1f
   101f2:	de240593          	addi	a1,s0,-542
   101f6:	49860613          	addi	a2,a2,1176 # 1f498 <__clzdi2+0x2c4>
   101fa:	4b850513          	addi	a0,a0,1208 # 1f4b8 <__clzdi2+0x2e4>
   101fe:	3ce000ef          	jal	ra,105cc <run_bench>
   10202:	0001f637          	lui	a2,0x1f
   10206:	0001f537          	lui	a0,0x1f
   1020a:	de240593          	addi	a1,s0,-542
   1020e:	4e860613          	addi	a2,a2,1256 # 1f4e8 <__clzdi2+0x314>
   10212:	51050513          	addi	a0,a0,1296 # 1f510 <__clzdi2+0x33c>
   10216:	3b6000ef          	jal	ra,105cc <run_bench>
   1021a:	000115b7          	lui	a1,0x11
   1021e:	0001f537          	lui	a0,0x1f
   10222:	4601                	li	a2,0
   10224:	e8658593          	addi	a1,a1,-378 # 10e86 <b_string_memset>
   10228:	54850513          	addi	a0,a0,1352 # 1f548 <__clzdi2+0x374>
   1022c:	3a0000ef          	jal	ra,105cc <run_bench>
   10230:	000115b7          	lui	a1,0x11
   10234:	0001f537          	lui	a0,0x1f
   10238:	4601                	li	a2,0
   1023a:	ed658593          	addi	a1,a1,-298 # 10ed6 <b_string_strchr>
   1023e:	56050513          	addi	a0,a0,1376 # 1f560 <__clzdi2+0x38c>
   10242:	38a000ef          	jal	ra,105cc <run_bench>
   10246:	000115b7          	lui	a1,0x11
   1024a:	0001f537          	lui	a0,0x1f
   1024e:	4601                	li	a2,0
   10250:	f4858593          	addi	a1,a1,-184 # 10f48 <b_string_strlen>
   10254:	57850513          	addi	a0,a0,1400 # 1f578 <__clzdi2+0x3a4>
   10258:	374000ef          	jal	ra,105cc <run_bench>
   1025c:	000115b7          	lui	a1,0x11
   10260:	0001f537          	lui	a0,0x1f
   10264:	4601                	li	a2,0
   10266:	b5858593          	addi	a1,a1,-1192 # 10b58 <b_pthread_createjoin_serial1>
   1026a:	59050513          	addi	a0,a0,1424 # 1f590 <__clzdi2+0x3bc>
   1026e:	35e000ef          	jal	ra,105cc <run_bench>
   10272:	000115b7          	lui	a1,0x11
   10276:	0001f537          	lui	a0,0x1f
   1027a:	4601                	li	a2,0
   1027c:	b9258593          	addi	a1,a1,-1134 # 10b92 <b_pthread_createjoin_serial2>
   10280:	5b850513          	addi	a0,a0,1464 # 1f5b8 <__clzdi2+0x3e4>
   10284:	348000ef          	jal	ra,105cc <run_bench>
   10288:	000115b7          	lui	a1,0x11
   1028c:	0001f537          	lui	a0,0x1f
   10290:	4601                	li	a2,0
   10292:	bec58593          	addi	a1,a1,-1044 # 10bec <b_pthread_create_serial1>
   10296:	5e050513          	addi	a0,a0,1504 # 1f5e0 <__clzdi2+0x40c>
   1029a:	332000ef          	jal	ra,105cc <run_bench>
   1029e:	000115b7          	lui	a1,0x11
   102a2:	0001f537          	lui	a0,0x1f
   102a6:	4601                	li	a2,0
   102a8:	c2a58593          	addi	a1,a1,-982 # 10c2a <b_pthread_uselesslock>
   102ac:	60050513          	addi	a0,a0,1536 # 1f600 <__clzdi2+0x42c>
   102b0:	31c000ef          	jal	ra,105cc <run_bench>
   102b4:	000115b7          	lui	a1,0x11
   102b8:	0001f537          	lui	a0,0x1f
   102bc:	4601                	li	a2,0
   102be:	fb058593          	addi	a1,a1,-80 # 10fb0 <b_utf8_bigbuf>
   102c2:	62050513          	addi	a0,a0,1568 # 1f620 <__clzdi2+0x44c>
   102c6:	306000ef          	jal	ra,105cc <run_bench>
   102ca:	000115b7          	lui	a1,0x11
   102ce:	0001f537          	lui	a0,0x1f
   102d2:	4601                	li	a2,0
   102d4:	15258593          	addi	a1,a1,338 # 11152 <b_utf8_onebyone>
   102d8:	63850513          	addi	a0,a0,1592 # 1f638 <__clzdi2+0x464>
   102dc:	2f0000ef          	jal	ra,105cc <run_bench>
   102e0:	000115b7          	lui	a1,0x11
   102e4:	0001f537          	lui	a0,0x1f
   102e8:	4601                	li	a2,0
   102ea:	d3258593          	addi	a1,a1,-718 # 10d32 <b_stdio_putcgetc>
   102ee:	65050513          	addi	a0,a0,1616 # 1f650 <__clzdi2+0x47c>
   102f2:	2da000ef          	jal	ra,105cc <run_bench>
   102f6:	000115b7          	lui	a1,0x11
   102fa:	0001f537          	lui	a0,0x1f
   102fe:	4601                	li	a2,0
   10300:	d8a58593          	addi	a1,a1,-630 # 10d8a <b_stdio_putcgetc_unlocked>
   10304:	66850513          	addi	a0,a0,1640 # 1f668 <__clzdi2+0x494>
   10308:	2c4000ef          	jal	ra,105cc <run_bench>
   1030c:	0001f437          	lui	s0,0x1f
   10310:	000115b7          	lui	a1,0x11
   10314:	0001f537          	lui	a0,0x1f
   10318:	68840613          	addi	a2,s0,1672 # 1f688 <__clzdi2+0x4b4>
   1031c:	c5c58593          	addi	a1,a1,-932 # 10c5c <b_regex_compile>
   10320:	69850513          	addi	a0,a0,1688 # 1f698 <__clzdi2+0x4c4>
   10324:	2a8000ef          	jal	ra,105cc <run_bench>
   10328:	68840613          	addi	a2,s0,1672
   1032c:	0001f537          	lui	a0,0x1f
   10330:	00011437          	lui	s0,0x11
   10334:	c9640593          	addi	a1,s0,-874 # 10c96 <b_regex_search>
   10338:	6b850513          	addi	a0,a0,1720 # 1f6b8 <__clzdi2+0x4e4>
   1033c:	290000ef          	jal	ra,105cc <run_bench>
   10340:	0001f637          	lui	a2,0x1f
   10344:	0001f537          	lui	a0,0x1f
   10348:	c9640593          	addi	a1,s0,-874
   1034c:	6d860613          	addi	a2,a2,1752 # 1f6d8 <__clzdi2+0x504>
   10350:	6e050513          	addi	a0,a0,1760 # 1f6e0 <__clzdi2+0x50c>
   10354:	278000ef          	jal	ra,105cc <run_bench>
   10358:	60a2                	ld	ra,8(sp)
   1035a:	6402                	ld	s0,0(sp)
   1035c:	4501                	li	a0,0
   1035e:	0141                	addi	sp,sp,16
   10360:	8082                	ret

0000000000010362 <_start>:
   10362:	00014197          	auipc	gp,0x14
   10366:	5a618193          	addi	gp,gp,1446 # 24908 <__global_pointer$>
   1036a:	850a                	mv	a0,sp
   1036c:	ffff0597          	auipc	a1,0xffff0
   10370:	c9458593          	addi	a1,a1,-876 # 0 <main-0x100e8>
   10374:	ff017113          	andi	sp,sp,-16
   10378:	004000ef          	jal	ra,1037c <_start_c>

000000000001037c <_start_c>:
   1037c:	410c                	lw	a1,0(a0)
   1037e:	00011737          	lui	a4,0x11
   10382:	000116b7          	lui	a3,0x11
   10386:	00850613          	addi	a2,a0,8
   1038a:	00010537          	lui	a0,0x10
   1038e:	1141                	addi	sp,sp,-16
   10390:	4781                	li	a5,0
   10392:	47470713          	addi	a4,a4,1140 # 11474 <__funcs_on_exit>
   10396:	2e868693          	addi	a3,a3,744 # 112e8 <_init>
   1039a:	0e850513          	addi	a0,a0,232 # 100e8 <main>
   1039e:	e406                	sd	ra,8(sp)
   103a0:	0a2010ef          	jal	ra,11442 <__libc_start_main>

00000000000103a4 <deregister_tm_clones>:
   103a4:	00024537          	lui	a0,0x24
   103a8:	000247b7          	lui	a5,0x24
   103ac:	0e850713          	addi	a4,a0,232 # 240e8 <__TMC_END__>
   103b0:	0e878793          	addi	a5,a5,232 # 240e8 <__TMC_END__>
   103b4:	00e78b63          	beq	a5,a4,103ca <deregister_tm_clones+0x26>
   103b8:	00000337          	lui	t1,0x0
   103bc:	00030313          	mv	t1,t1
   103c0:	00030563          	beqz	t1,103ca <deregister_tm_clones+0x26>
   103c4:	0e850513          	addi	a0,a0,232
   103c8:	8302                	jr	t1
   103ca:	8082                	ret

00000000000103cc <register_tm_clones>:
   103cc:	000247b7          	lui	a5,0x24
   103d0:	00024537          	lui	a0,0x24
   103d4:	0e878593          	addi	a1,a5,232 # 240e8 <__TMC_END__>
   103d8:	0e850793          	addi	a5,a0,232 # 240e8 <__TMC_END__>
   103dc:	8d9d                	sub	a1,a1,a5
   103de:	858d                	srai	a1,a1,0x3
   103e0:	4789                	li	a5,2
   103e2:	02f5c5b3          	div	a1,a1,a5
   103e6:	c991                	beqz	a1,103fa <register_tm_clones+0x2e>
   103e8:	00000337          	lui	t1,0x0
   103ec:	00030313          	mv	t1,t1
   103f0:	00030563          	beqz	t1,103fa <register_tm_clones+0x2e>
   103f4:	0e850513          	addi	a0,a0,232
   103f8:	8302                	jr	t1
   103fa:	8082                	ret

00000000000103fc <__do_global_dtors_aux>:
   103fc:	9801c703          	lbu	a4,-1664(gp) # 24288 <completed.4590>
   10400:	eb1d                	bnez	a4,10436 <__do_global_dtors_aux+0x3a>
   10402:	1141                	addi	sp,sp,-16
   10404:	e022                	sd	s0,0(sp)
   10406:	e406                	sd	ra,8(sp)
   10408:	843e                	mv	s0,a5
   1040a:	f9bff0ef          	jal	ra,103a4 <deregister_tm_clones>
   1040e:	000007b7          	lui	a5,0x0
   10412:	00078793          	mv	a5,a5
   10416:	cb89                	beqz	a5,10428 <__do_global_dtors_aux+0x2c>
   10418:	00023537          	lui	a0,0x23
   1041c:	8b850513          	addi	a0,a0,-1864 # 228b8 <__FRAME_END__>
   10420:	00000097          	auipc	ra,0x0
   10424:	000000e7          	jalr	zero # 0 <main-0x100e8>
   10428:	4785                	li	a5,1
   1042a:	98f18023          	sb	a5,-1664(gp) # 24288 <completed.4590>
   1042e:	60a2                	ld	ra,8(sp)
   10430:	6402                	ld	s0,0(sp)
   10432:	0141                	addi	sp,sp,16
   10434:	8082                	ret
   10436:	8082                	ret

0000000000010438 <frame_dummy>:
   10438:	000007b7          	lui	a5,0x0
   1043c:	00078793          	mv	a5,a5
   10440:	cf99                	beqz	a5,1045e <frame_dummy+0x26>
   10442:	00023537          	lui	a0,0x23
   10446:	1141                	addi	sp,sp,-16
   10448:	98818593          	addi	a1,gp,-1656 # 24290 <object.4595>
   1044c:	8b850513          	addi	a0,a0,-1864 # 228b8 <__FRAME_END__>
   10450:	e406                	sd	ra,8(sp)
   10452:	00000097          	auipc	ra,0x0
   10456:	000000e7          	jalr	zero # 0 <main-0x100e8>
   1045a:	60a2                	ld	ra,8(sp)
   1045c:	0141                	addi	sp,sp,16
   1045e:	f6fff06f          	j	103cc <register_tm_clones>

0000000000010462 <print_stats>:
   10462:	7125                	addi	sp,sp,-416
   10464:	e02a                	sd	a0,0(sp)
   10466:	e42e                	sd	a1,8(sp)
   10468:	4501                	li	a0,0
   1046a:	100c                	addi	a1,sp,32
   1046c:	ef06                	sd	ra,408(sp)
   1046e:	eb22                	sd	s0,400(sp)
   10470:	e726                	sd	s1,392(sp)
   10472:	e34a                	sd	s2,384(sp)
   10474:	fece                	sd	s3,376(sp)
   10476:	fad2                	sd	s4,368(sp)
   10478:	f6d6                	sd	s5,360(sp)
   1047a:	f2da                	sd	s6,352(sp)
   1047c:	eede                	sd	s7,344(sp)
   1047e:	eae2                	sd	s8,336(sp)
   10480:	e6e6                	sd	s9,328(sp)
   10482:	e2ea                	sd	s10,320(sp)
   10484:	fe6e                	sd	s11,312(sp)
   10486:	241080ef          	jal	ra,18ec6 <__clock_gettime>
   1048a:	7702                	ld	a4,32(sp)
   1048c:	6782                	ld	a5,0(sp)
   1048e:	66a2                	ld	a3,8(sp)
   10490:	8f1d                	sub	a4,a4,a5
   10492:	77a2                	ld	a5,40(sp)
   10494:	f03a                	sd	a4,32(sp)
   10496:	8f95                	sub	a5,a5,a3
   10498:	0407cd63          	bltz	a5,104f2 <print_stats+0x90>
   1049c:	f43e                	sd	a5,40(sp)
   1049e:	0001f5b7          	lui	a1,0x1f
   104a2:	0001f537          	lui	a0,0x1f
   104a6:	21058593          	addi	a1,a1,528 # 1f210 <__clzdi2+0x3c>
   104aa:	21850513          	addi	a0,a0,536 # 1f218 <__clzdi2+0x44>
   104ae:	6b8050ef          	jal	ra,15b66 <fopen>
   104b2:	8a2a                	mv	s4,a0
   104b4:	4481                	li	s1,0
   104b6:	4901                	li	s2,0
   104b8:	4981                	li	s3,0
   104ba:	0e051b63          	bnez	a0,105b0 <print_stats+0x14e>
   104be:	7622                	ld	a2,40(sp)
   104c0:	7582                	ld	a1,32(sp)
   104c2:	0001f537          	lui	a0,0x1f
   104c6:	87a6                	mv	a5,s1
   104c8:	874a                	mv	a4,s2
   104ca:	86ce                	mv	a3,s3
   104cc:	2a050513          	addi	a0,a0,672 # 1f2a0 <__clzdi2+0xcc>
   104d0:	089050ef          	jal	ra,15d58 <printf>
   104d4:	60fa                	ld	ra,408(sp)
   104d6:	645a                	ld	s0,400(sp)
   104d8:	64ba                	ld	s1,392(sp)
   104da:	691a                	ld	s2,384(sp)
   104dc:	79f6                	ld	s3,376(sp)
   104de:	7a56                	ld	s4,368(sp)
   104e0:	7ab6                	ld	s5,360(sp)
   104e2:	7b16                	ld	s6,352(sp)
   104e4:	6bf6                	ld	s7,344(sp)
   104e6:	6c56                	ld	s8,336(sp)
   104e8:	6cb6                	ld	s9,328(sp)
   104ea:	6d16                	ld	s10,320(sp)
   104ec:	7df2                	ld	s11,312(sp)
   104ee:	611d                	addi	sp,sp,416
   104f0:	8082                	ret
   104f2:	3b9ad6b7          	lui	a3,0x3b9ad
   104f6:	a0068693          	addi	a3,a3,-1536 # 3b9aca00 <_end+0x3b987a48>
   104fa:	97b6                	add	a5,a5,a3
   104fc:	177d                	addi	a4,a4,-1
   104fe:	f43e                	sd	a5,40(sp)
   10500:	f03a                	sd	a4,32(sp)
   10502:	bf71                	j	1049e <print_stats+0x3c>
   10504:	0854                	addi	a3,sp,20
   10506:	0810                	addi	a2,sp,16
   10508:	230a8593          	addi	a1,s5,560
   1050c:	1808                	addi	a0,sp,48
   1050e:	1af050ef          	jal	ra,15ebc <sscanf>
   10512:	4789                	li	a5,2
   10514:	04f51663          	bne	a0,a5,10560 <print_stats+0xfe>
   10518:	4442                	lw	s0,16(sp)
   1051a:	47d2                	lw	a5,20(sp)
   1051c:	8c5d                	or	s0,s0,a5
   1051e:	2401                	sext.w	s0,s0
   10520:	e441                	bnez	s0,105a8 <print_stats+0x146>
   10522:	258c8593          	addi	a1,s9,600
   10526:	1808                	addi	a0,sp,48
   10528:	45b070ef          	jal	ra,18182 <strstr>
   1052c:	e91d                	bnez	a0,10562 <print_stats+0x100>
   1052e:	260d0593          	addi	a1,s10,608
   10532:	1808                	addi	a0,sp,48
   10534:	44f070ef          	jal	ra,18182 <strstr>
   10538:	e519                	bnez	a0,10546 <print_stats+0xe4>
   1053a:	05b00593          	li	a1,91
   1053e:	1808                	addi	a0,sp,48
   10540:	0a9070ef          	jal	ra,17de8 <strchr>
   10544:	ed19                	bnez	a0,10562 <print_stats+0x100>
   10546:	0830                	addi	a2,sp,24
   10548:	268b0593          	addi	a1,s6,616
   1054c:	1808                	addi	a0,sp,48
   1054e:	16f050ef          	jal	ra,15ebc <sscanf>
   10552:	4d85                	li	s11,1
   10554:	842a                	mv	s0,a0
   10556:	03b51163          	bne	a0,s11,10578 <print_stats+0x116>
   1055a:	67e2                	ld	a5,24(sp)
   1055c:	99be                	add	s3,s3,a5
   1055e:	a011                	j	10562 <print_stats+0x100>
   10560:	f07d                	bnez	s0,10546 <print_stats+0xe4>
   10562:	8652                	mv	a2,s4
   10564:	10000593          	li	a1,256
   10568:	1808                	addi	a0,sp,48
   1056a:	4ec050ef          	jal	ra,15a56 <fgets>
   1056e:	f959                	bnez	a0,10504 <print_stats+0xa2>
   10570:	8552                	mv	a0,s4
   10572:	37a050ef          	jal	ra,158ec <fclose>
   10576:	b7a1                	j	104be <print_stats+0x5c>
   10578:	0830                	addi	a2,sp,24
   1057a:	278b8593          	addi	a1,s7,632
   1057e:	1808                	addi	a0,sp,48
   10580:	13d050ef          	jal	ra,15ebc <sscanf>
   10584:	842a                	mv	s0,a0
   10586:	01b51563          	bne	a0,s11,10590 <print_stats+0x12e>
   1058a:	67e2                	ld	a5,24(sp)
   1058c:	993e                	add	s2,s2,a5
   1058e:	bfd1                	j	10562 <print_stats+0x100>
   10590:	0830                	addi	a2,sp,24
   10592:	288c0593          	addi	a1,s8,648
   10596:	1808                	addi	a0,sp,48
   10598:	125050ef          	jal	ra,15ebc <sscanf>
   1059c:	842a                	mv	s0,a0
   1059e:	01b51763          	bne	a0,s11,105ac <print_stats+0x14a>
   105a2:	67e2                	ld	a5,24(sp)
   105a4:	94be                	add	s1,s1,a5
   105a6:	bf75                	j	10562 <print_stats+0x100>
   105a8:	4401                	li	s0,0
   105aa:	bf65                	j	10562 <print_stats+0x100>
   105ac:	4405                	li	s0,1
   105ae:	bf55                	j	10562 <print_stats+0x100>
   105b0:	4401                	li	s0,0
   105b2:	0001fab7          	lui	s5,0x1f
   105b6:	0001fb37          	lui	s6,0x1f
   105ba:	0001fbb7          	lui	s7,0x1f
   105be:	0001fc37          	lui	s8,0x1f
   105c2:	0001fcb7          	lui	s9,0x1f
   105c6:	0001fd37          	lui	s10,0x1f
   105ca:	bf61                	j	10562 <print_stats+0x100>

00000000000105cc <run_bench>:
   105cc:	7179                	addi	sp,sp,-48
   105ce:	f022                	sd	s0,32(sp)
   105d0:	ec26                	sd	s1,24(sp)
   105d2:	e84a                	sd	s2,16(sp)
   105d4:	f406                	sd	ra,40(sp)
   105d6:	892a                	mv	s2,a0
   105d8:	842e                	mv	s0,a1
   105da:	84b2                	mv	s1,a2
   105dc:	3f7010ef          	jal	ra,121d2 <fork>
   105e0:	e10d                	bnez	a0,10602 <run_bench+0x36>
   105e2:	854a                	mv	a0,s2
   105e4:	05d050ef          	jal	ra,15e40 <puts>
   105e8:	858a                	mv	a1,sp
   105ea:	4501                	li	a0,0
   105ec:	0db080ef          	jal	ra,18ec6 <__clock_gettime>
   105f0:	8526                	mv	a0,s1
   105f2:	9402                	jalr	s0
   105f4:	6502                	ld	a0,0(sp)
   105f6:	65a2                	ld	a1,8(sp)
   105f8:	e6bff0ef          	jal	ra,10462 <print_stats>
   105fc:	4501                	li	a0,0
   105fe:	6a9000ef          	jal	ra,114a6 <exit>
   10602:	850a                	mv	a0,sp
   10604:	42d010ef          	jal	ra,12230 <wait>
   10608:	70a2                	ld	ra,40(sp)
   1060a:	7402                	ld	s0,32(sp)
   1060c:	4502                	lw	a0,0(sp)
   1060e:	64e2                	ld	s1,24(sp)
   10610:	6942                	ld	s2,16(sp)
   10612:	6145                	addi	sp,sp,48
   10614:	8082                	ret

0000000000010616 <stress>:
   10616:	711d                	addi	sp,sp,-96
   10618:	e0ca                	sd	s2,64(sp)
   1061a:	fc4e                	sd	s3,56(sp)
   1061c:	f852                	sd	s4,48(sp)
   1061e:	f456                	sd	s5,40(sp)
   10620:	f05a                	sd	s6,32(sp)
   10622:	ec5e                	sd	s7,24(sp)
   10624:	e862                	sd	s8,16(sp)
   10626:	ec86                	sd	ra,88(sp)
   10628:	e8a2                	sd	s0,80(sp)
   1062a:	e4a6                	sd	s1,72(sp)
   1062c:	e466                	sd	s9,8(sp)
   1062e:	8aaa                	mv	s5,a0
   10630:	6961                	lui	s2,0x18
   10632:	796080ef          	jal	ra,18dc8 <pthread_self>
   10636:	41c659b7          	lui	s3,0x41c65
   1063a:	6a0d                	lui	s4,0x3
   1063c:	2501                	sext.w	a0,a0
   1063e:	6a090913          	addi	s2,s2,1696 # 186a0 <__pthread_create+0x4a>
   10642:	e6d9899b          	addiw	s3,s3,-403
   10646:	039a0a1b          	addiw	s4,s4,57
   1064a:	12c00b13          	li	s6,300
   1064e:	03000b93          	li	s7,48
   10652:	1f400c13          	li	s8,500
   10656:	0335043b          	mulw	s0,a0,s3
   1065a:	0144043b          	addw	s0,s0,s4
   1065e:	033404bb          	mulw	s1,s0,s3
   10662:	0364743b          	remuw	s0,s0,s6
   10666:	014484bb          	addw	s1,s1,s4
   1066a:	028b8433          	mul	s0,s7,s0
   1066e:	9456                	add	s0,s0,s5
   10670:	8522                	mv	a0,s0
   10672:	3cc080ef          	jal	ra,18a3e <__pthread_mutex_lock>
   10676:	02843c83          	ld	s9,40(s0)
   1067a:	8522                	mv	a0,s0
   1067c:	02043423          	sd	zero,40(s0)
   10680:	62c080ef          	jal	ra,18cac <__pthread_mutex_unlock>
   10684:	8566                	mv	a0,s9
   10686:	38c010ef          	jal	ra,11a12 <free>
   1068a:	020c9563          	bnez	s9,106b4 <stress+0x9e>
   1068e:	0384f53b          	remuw	a0,s1,s8
   10692:	584010ef          	jal	ra,11c16 <malloc>
   10696:	8caa                	mv	s9,a0
   10698:	8522                	mv	a0,s0
   1069a:	3a4080ef          	jal	ra,18a3e <__pthread_mutex_lock>
   1069e:	741c                	ld	a5,40(s0)
   106a0:	e781                	bnez	a5,106a8 <stress+0x92>
   106a2:	03943423          	sd	s9,40(s0)
   106a6:	4c81                	li	s9,0
   106a8:	8522                	mv	a0,s0
   106aa:	602080ef          	jal	ra,18cac <__pthread_mutex_unlock>
   106ae:	8566                	mv	a0,s9
   106b0:	362010ef          	jal	ra,11a12 <free>
   106b4:	397d                	addiw	s2,s2,-1
   106b6:	0004851b          	sext.w	a0,s1
   106ba:	f8091ee3          	bnez	s2,10656 <stress+0x40>
   106be:	60e6                	ld	ra,88(sp)
   106c0:	6446                	ld	s0,80(sp)
   106c2:	64a6                	ld	s1,72(sp)
   106c4:	6906                	ld	s2,64(sp)
   106c6:	79e2                	ld	s3,56(sp)
   106c8:	7a42                	ld	s4,48(sp)
   106ca:	7aa2                	ld	s5,40(sp)
   106cc:	7b02                	ld	s6,32(sp)
   106ce:	6be2                	ld	s7,24(sp)
   106d0:	6c42                	ld	s8,16(sp)
   106d2:	6ca2                	ld	s9,8(sp)
   106d4:	4501                	li	a0,0
   106d6:	6125                	addi	sp,sp,96
   106d8:	8082                	ret

00000000000106da <b_malloc_sparse>:
   106da:	7331                	lui	t1,0xfffec
   106dc:	7139                	addi	sp,sp,-64
   106de:	79030313          	addi	t1,t1,1936 # fffffffffffec790 <_end+0xfffffffffffc77d8>
   106e2:	6751                	lui	a4,0x14
   106e4:	f822                	sd	s0,48(sp)
   106e6:	f426                	sd	s1,40(sp)
   106e8:	f04a                	sd	s2,32(sp)
   106ea:	fc06                	sd	ra,56(sp)
   106ec:	ec4e                	sd	s3,24(sp)
   106ee:	7431                	lui	s0,0xfffec
   106f0:	911a                	add	sp,sp,t1
   106f2:	88070793          	addi	a5,a4,-1920 # 13880 <parse_atom+0x1ae>
   106f6:	978a                	add	a5,a5,sp
   106f8:	78040413          	addi	s0,s0,1920 # fffffffffffec780 <_end+0xfffffffffffc77c8>
   106fc:	6485                	lui	s1,0x1
   106fe:	943e                	add	s0,s0,a5
   10700:	893e                	mv	s2,a5
   10702:	fa048493          	addi	s1,s1,-96 # fa0 <main-0xf148>
   10706:	8526                	mv	a0,s1
   10708:	50e010ef          	jal	ra,11c16 <malloc>
   1070c:	e008                	sd	a0,0(s0)
   1070e:	8626                	mv	a2,s1
   10710:	4581                	li	a1,0
   10712:	0421                	addi	s0,s0,8
   10714:	614070ef          	jal	ra,17d28 <memset>
   10718:	ff2417e3          	bne	s0,s2,10706 <b_malloc_sparse+0x2c>
   1071c:	67d1                	lui	a5,0x14
   1071e:	74b1                	lui	s1,0xfffec
   10720:	88078793          	addi	a5,a5,-1920 # 13880 <parse_atom+0x1ae>
   10724:	6909                	lui	s2,0x2
   10726:	78048493          	addi	s1,s1,1920 # fffffffffffec780 <_end+0xfffffffffffc77c8>
   1072a:	978a                	add	a5,a5,sp
   1072c:	4401                	li	s0,0
   1072e:	71090913          	addi	s2,s2,1808 # 2710 <main-0xd9d8>
   10732:	09600993          	li	s3,150
   10736:	94be                	add	s1,s1,a5
   10738:	0405                	addi	s0,s0,1
   1073a:	01241e63          	bne	s0,s2,10756 <b_malloc_sparse+0x7c>
   1073e:	6351                	lui	t1,0x14
   10740:	87030313          	addi	t1,t1,-1936 # 13870 <parse_atom+0x19e>
   10744:	911a                	add	sp,sp,t1
   10746:	70e2                	ld	ra,56(sp)
   10748:	4501                	li	a0,0
   1074a:	7442                	ld	s0,48(sp)
   1074c:	74a2                	ld	s1,40(sp)
   1074e:	7902                	ld	s2,32(sp)
   10750:	69e2                	ld	s3,24(sp)
   10752:	6121                	addi	sp,sp,64
   10754:	8082                	ret
   10756:	033477b3          	remu	a5,s0,s3
   1075a:	dff9                	beqz	a5,10738 <b_malloc_sparse+0x5e>
   1075c:	00341793          	slli	a5,s0,0x3
   10760:	97a6                	add	a5,a5,s1
   10762:	6388                	ld	a0,0(a5)
   10764:	2ae010ef          	jal	ra,11a12 <free>
   10768:	bfc1                	j	10738 <b_malloc_sparse+0x5e>

000000000001076a <b_malloc_bubble>:
   1076a:	7331                	lui	t1,0xfffec
   1076c:	7139                	addi	sp,sp,-64
   1076e:	79030313          	addi	t1,t1,1936 # fffffffffffec790 <_end+0xfffffffffffc77d8>
   10772:	6751                	lui	a4,0x14
   10774:	f822                	sd	s0,48(sp)
   10776:	f426                	sd	s1,40(sp)
   10778:	f04a                	sd	s2,32(sp)
   1077a:	ec4e                	sd	s3,24(sp)
   1077c:	fc06                	sd	ra,56(sp)
   1077e:	7431                	lui	s0,0xfffec
   10780:	911a                	add	sp,sp,t1
   10782:	88070793          	addi	a5,a4,-1920 # 13880 <parse_atom+0x1ae>
   10786:	978a                	add	a5,a5,sp
   10788:	78040413          	addi	s0,s0,1920 # fffffffffffec780 <_end+0xfffffffffffc77c8>
   1078c:	943e                	add	s0,s0,a5
   1078e:	6905                	lui	s2,0x1
   10790:	89be                	mv	s3,a5
   10792:	84a2                	mv	s1,s0
   10794:	fa090913          	addi	s2,s2,-96 # fa0 <main-0xf148>
   10798:	854a                	mv	a0,s2
   1079a:	47c010ef          	jal	ra,11c16 <malloc>
   1079e:	e088                	sd	a0,0(s1)
   107a0:	864a                	mv	a2,s2
   107a2:	4581                	li	a1,0
   107a4:	04a1                	addi	s1,s1,8
   107a6:	582070ef          	jal	ra,17d28 <memset>
   107aa:	ff3497e3          	bne	s1,s3,10798 <b_malloc_bubble+0x2e>
   107ae:	64d1                	lui	s1,0x14
   107b0:	87848493          	addi	s1,s1,-1928 # 13878 <parse_atom+0x1a6>
   107b4:	94a2                	add	s1,s1,s0
   107b6:	6008                	ld	a0,0(s0)
   107b8:	0421                	addi	s0,s0,8
   107ba:	258010ef          	jal	ra,11a12 <free>
   107be:	fe849ce3          	bne	s1,s0,107b6 <b_malloc_bubble+0x4c>
   107c2:	6351                	lui	t1,0x14
   107c4:	87030313          	addi	t1,t1,-1936 # 13870 <parse_atom+0x19e>
   107c8:	911a                	add	sp,sp,t1
   107ca:	70e2                	ld	ra,56(sp)
   107cc:	4501                	li	a0,0
   107ce:	7442                	ld	s0,48(sp)
   107d0:	74a2                	ld	s1,40(sp)
   107d2:	7902                	ld	s2,32(sp)
   107d4:	69e2                	ld	s3,24(sp)
   107d6:	6121                	addi	sp,sp,64
   107d8:	8082                	ret

00000000000107da <b_malloc_tiny1>:
   107da:	7331                	lui	t1,0xfffec
   107dc:	7139                	addi	sp,sp,-64
   107de:	79030313          	addi	t1,t1,1936 # fffffffffffec790 <_end+0xfffffffffffc77d8>
   107e2:	67d1                	lui	a5,0x14
   107e4:	f822                	sd	s0,48(sp)
   107e6:	f426                	sd	s1,40(sp)
   107e8:	f04a                	sd	s2,32(sp)
   107ea:	ec4e                	sd	s3,24(sp)
   107ec:	fc06                	sd	ra,56(sp)
   107ee:	7431                	lui	s0,0xfffec
   107f0:	911a                	add	sp,sp,t1
   107f2:	88078793          	addi	a5,a5,-1920 # 13880 <parse_atom+0x1ae>
   107f6:	78040413          	addi	s0,s0,1920 # fffffffffffec780 <_end+0xfffffffffffc77c8>
   107fa:	978a                	add	a5,a5,sp
   107fc:	943e                	add	s0,s0,a5
   107fe:	6909                	lui	s2,0x2
   10800:	89a2                	mv	s3,s0
   10802:	4481                	li	s1,0
   10804:	71090913          	addi	s2,s2,1808 # 2710 <main-0xd9d8>
   10808:	0034f513          	andi	a0,s1,3
   1080c:	0505                	addi	a0,a0,1
   1080e:	0512                	slli	a0,a0,0x4
   10810:	406010ef          	jal	ra,11c16 <malloc>
   10814:	00a9b023          	sd	a0,0(s3) # 41c65000 <_end+0x41c40048>
   10818:	0485                	addi	s1,s1,1
   1081a:	09a1                	addi	s3,s3,8
   1081c:	ff2496e3          	bne	s1,s2,10808 <b_malloc_tiny1+0x2e>
   10820:	64d1                	lui	s1,0x14
   10822:	88048493          	addi	s1,s1,-1920 # 13880 <parse_atom+0x1ae>
   10826:	94a2                	add	s1,s1,s0
   10828:	6008                	ld	a0,0(s0)
   1082a:	0421                	addi	s0,s0,8
   1082c:	1e6010ef          	jal	ra,11a12 <free>
   10830:	fe849ce3          	bne	s1,s0,10828 <b_malloc_tiny1+0x4e>
   10834:	6351                	lui	t1,0x14
   10836:	87030313          	addi	t1,t1,-1936 # 13870 <parse_atom+0x19e>
   1083a:	911a                	add	sp,sp,t1
   1083c:	70e2                	ld	ra,56(sp)
   1083e:	4501                	li	a0,0
   10840:	7442                	ld	s0,48(sp)
   10842:	74a2                	ld	s1,40(sp)
   10844:	7902                	ld	s2,32(sp)
   10846:	69e2                	ld	s3,24(sp)
   10848:	6121                	addi	sp,sp,64
   1084a:	8082                	ret

000000000001084c <b_malloc_tiny2>:
   1084c:	7331                	lui	t1,0xfffec
   1084e:	7179                	addi	sp,sp,-48
   10850:	78030313          	addi	t1,t1,1920 # fffffffffffec780 <_end+0xfffffffffffc77c8>
   10854:	f022                	sd	s0,32(sp)
   10856:	ec26                	sd	s1,24(sp)
   10858:	e84a                	sd	s2,16(sp)
   1085a:	f406                	sd	ra,40(sp)
   1085c:	67d1                	lui	a5,0x14
   1085e:	911a                	add	sp,sp,t1
   10860:	7431                	lui	s0,0xfffec
   10862:	88078793          	addi	a5,a5,-1920 # 13880 <parse_atom+0x1ae>
   10866:	0818                	addi	a4,sp,16
   10868:	78040413          	addi	s0,s0,1920 # fffffffffffec780 <_end+0xfffffffffffc77c8>
   1086c:	97ba                	add	a5,a5,a4
   1086e:	6909                	lui	s2,0x2
   10870:	943e                	add	s0,s0,a5
   10872:	4481                	li	s1,0
   10874:	71090913          	addi	s2,s2,1808 # 2710 <main-0xd9d8>
   10878:	0034f513          	andi	a0,s1,3
   1087c:	0505                	addi	a0,a0,1
   1087e:	0512                	slli	a0,a0,0x4
   10880:	396010ef          	jal	ra,11c16 <malloc>
   10884:	e008                	sd	a0,0(s0)
   10886:	0485                	addi	s1,s1,1
   10888:	0421                	addi	s0,s0,8
   1088a:	ff2497e3          	bne	s1,s2,10878 <b_malloc_tiny2+0x2c>
   1088e:	6751                	lui	a4,0x14
   10890:	88070713          	addi	a4,a4,-1920 # 13880 <parse_atom+0x1ae>
   10894:	0814                	addi	a3,sp,16
   10896:	77b1                	lui	a5,0xfffec
   10898:	9736                	add	a4,a4,a3
   1089a:	97ba                	add	a5,a5,a4
   1089c:	6489                	lui	s1,0x2
   1089e:	4405                	li	s0,1
   108a0:	e43e                	sd	a5,8(sp)
   108a2:	71048493          	addi	s1,s1,1808 # 2710 <main-0xd9d8>
   108a6:	6722                	ld	a4,8(sp)
   108a8:	00341793          	slli	a5,s0,0x3
   108ac:	03940413          	addi	s0,s0,57
   108b0:	97ba                	add	a5,a5,a4
   108b2:	7807b503          	ld	a0,1920(a5) # fffffffffffec780 <_end+0xfffffffffffc77c8>
   108b6:	15c010ef          	jal	ra,11a12 <free>
   108ba:	02947433          	remu	s0,s0,s1
   108be:	f465                	bnez	s0,108a6 <b_malloc_tiny2+0x5a>
   108c0:	6351                	lui	t1,0x14
   108c2:	88030313          	addi	t1,t1,-1920 # 13880 <parse_atom+0x1ae>
   108c6:	911a                	add	sp,sp,t1
   108c8:	70a2                	ld	ra,40(sp)
   108ca:	4501                	li	a0,0
   108cc:	7402                	ld	s0,32(sp)
   108ce:	64e2                	ld	s1,24(sp)
   108d0:	6942                	ld	s2,16(sp)
   108d2:	6145                	addi	sp,sp,48
   108d4:	8082                	ret

00000000000108d6 <b_malloc_big1>:
   108d6:	7371                	lui	t1,0xffffc
   108d8:	7139                	addi	sp,sp,-64
   108da:	19030313          	addi	t1,t1,400 # ffffffffffffc190 <_end+0xfffffffffffd71d8>
   108de:	6791                	lui	a5,0x4
   108e0:	f822                	sd	s0,48(sp)
   108e2:	f426                	sd	s1,40(sp)
   108e4:	f04a                	sd	s2,32(sp)
   108e6:	ec4e                	sd	s3,24(sp)
   108e8:	fc06                	sd	ra,56(sp)
   108ea:	7471                	lui	s0,0xffffc
   108ec:	911a                	add	sp,sp,t1
   108ee:	e8078793          	addi	a5,a5,-384 # 3e80 <main-0xc268>
   108f2:	18040413          	addi	s0,s0,384 # ffffffffffffc180 <_end+0xfffffffffffd71c8>
   108f6:	978a                	add	a5,a5,sp
   108f8:	943e                	add	s0,s0,a5
   108fa:	8922                	mv	s2,s0
   108fc:	4481                	li	s1,0
   108fe:	7d000993          	li	s3,2000
   10902:	0034f513          	andi	a0,s1,3
   10906:	0505                	addi	a0,a0,1
   10908:	053a                	slli	a0,a0,0xe
   1090a:	30c010ef          	jal	ra,11c16 <malloc>
   1090e:	00a93023          	sd	a0,0(s2)
   10912:	0485                	addi	s1,s1,1
   10914:	0921                	addi	s2,s2,8
   10916:	ff3496e3          	bne	s1,s3,10902 <b_malloc_big1+0x2c>
   1091a:	6491                	lui	s1,0x4
   1091c:	e8048493          	addi	s1,s1,-384 # 3e80 <main-0xc268>
   10920:	94a2                	add	s1,s1,s0
   10922:	6008                	ld	a0,0(s0)
   10924:	0421                	addi	s0,s0,8
   10926:	0ec010ef          	jal	ra,11a12 <free>
   1092a:	fe849ce3          	bne	s1,s0,10922 <b_malloc_big1+0x4c>
   1092e:	6311                	lui	t1,0x4
   10930:	e7030313          	addi	t1,t1,-400 # 3e70 <main-0xc278>
   10934:	911a                	add	sp,sp,t1
   10936:	70e2                	ld	ra,56(sp)
   10938:	4501                	li	a0,0
   1093a:	7442                	ld	s0,48(sp)
   1093c:	74a2                	ld	s1,40(sp)
   1093e:	7902                	ld	s2,32(sp)
   10940:	69e2                	ld	s3,24(sp)
   10942:	6121                	addi	sp,sp,64
   10944:	8082                	ret

0000000000010946 <b_malloc_big2>:
   10946:	7371                	lui	t1,0xffffc
   10948:	7179                	addi	sp,sp,-48
   1094a:	18030313          	addi	t1,t1,384 # ffffffffffffc180 <_end+0xfffffffffffd71c8>
   1094e:	f022                	sd	s0,32(sp)
   10950:	ec26                	sd	s1,24(sp)
   10952:	e84a                	sd	s2,16(sp)
   10954:	f406                	sd	ra,40(sp)
   10956:	6791                	lui	a5,0x4
   10958:	911a                	add	sp,sp,t1
   1095a:	7471                	lui	s0,0xffffc
   1095c:	e8078793          	addi	a5,a5,-384 # 3e80 <main-0xc268>
   10960:	0818                	addi	a4,sp,16
   10962:	18040413          	addi	s0,s0,384 # ffffffffffffc180 <_end+0xfffffffffffd71c8>
   10966:	97ba                	add	a5,a5,a4
   10968:	943e                	add	s0,s0,a5
   1096a:	4481                	li	s1,0
   1096c:	7d000913          	li	s2,2000
   10970:	0034f513          	andi	a0,s1,3
   10974:	0505                	addi	a0,a0,1
   10976:	053a                	slli	a0,a0,0xe
   10978:	29e010ef          	jal	ra,11c16 <malloc>
   1097c:	e008                	sd	a0,0(s0)
   1097e:	0485                	addi	s1,s1,1
   10980:	0421                	addi	s0,s0,8
   10982:	ff2497e3          	bne	s1,s2,10970 <b_malloc_big2+0x2a>
   10986:	6711                	lui	a4,0x4
   10988:	e8070713          	addi	a4,a4,-384 # 3e80 <main-0xc268>
   1098c:	0814                	addi	a3,sp,16
   1098e:	77f1                	lui	a5,0xffffc
   10990:	9736                	add	a4,a4,a3
   10992:	97ba                	add	a5,a5,a4
   10994:	32700493          	li	s1,807
   10998:	4405                	li	s0,1
   1099a:	e43e                	sd	a5,8(sp)
   1099c:	7d000913          	li	s2,2000
   109a0:	6722                	ld	a4,8(sp)
   109a2:	00341793          	slli	a5,s0,0x3
   109a6:	34fd                	addiw	s1,s1,-1
   109a8:	97ba                	add	a5,a5,a4
   109aa:	1807b503          	ld	a0,384(a5) # ffffffffffffc180 <_end+0xfffffffffffd71c8>
   109ae:	03940413          	addi	s0,s0,57
   109b2:	060010ef          	jal	ra,11a12 <free>
   109b6:	03247433          	remu	s0,s0,s2
   109ba:	f0fd                	bnez	s1,109a0 <b_malloc_big2+0x5a>
   109bc:	6311                	lui	t1,0x4
   109be:	e8030313          	addi	t1,t1,-384 # 3e80 <main-0xc268>
   109c2:	911a                	add	sp,sp,t1
   109c4:	70a2                	ld	ra,40(sp)
   109c6:	4501                	li	a0,0
   109c8:	7402                	ld	s0,32(sp)
   109ca:	64e2                	ld	s1,24(sp)
   109cc:	6942                	ld	s2,16(sp)
   109ce:	6145                	addi	sp,sp,48
   109d0:	8082                	ret

00000000000109d2 <b_malloc_thread_stress>:
   109d2:	7139                	addi	sp,sp,-64
   109d4:	7371                	lui	t1,0xffffc
   109d6:	7b030313          	addi	t1,t1,1968 # ffffffffffffc7b0 <_end+0xfffffffffffd77f8>
   109da:	f426                	sd	s1,40(sp)
   109dc:	6491                	lui	s1,0x4
   109de:	fc06                	sd	ra,56(sp)
   109e0:	f822                	sd	s0,48(sp)
   109e2:	f04a                	sd	s2,32(sp)
   109e4:	ec4e                	sd	s3,24(sp)
   109e6:	84048493          	addi	s1,s1,-1984 # 3840 <main-0xc8a8>
   109ea:	911a                	add	sp,sp,t1
   109ec:	8626                	mv	a2,s1
   109ee:	4581                	li	a1,0
   109f0:	1008                	addi	a0,sp,32
   109f2:	336070ef          	jal	ra,17d28 <memset>
   109f6:	6991                	lui	s3,0x4
   109f8:	86098793          	addi	a5,s3,-1952 # 3860 <main-0xc888>
   109fc:	978a                	add	a5,a5,sp
   109fe:	409784b3          	sub	s1,a5,s1
   10a02:	7471                	lui	s0,0xffffc
   10a04:	86098793          	addi	a5,s3,-1952
   10a08:	978a                	add	a5,a5,sp
   10a0a:	00010937          	lui	s2,0x10
   10a0e:	7a840513          	addi	a0,s0,1960 # ffffffffffffc7a8 <_end+0xfffffffffffd77f0>
   10a12:	86a6                	mv	a3,s1
   10a14:	61690613          	addi	a2,s2,1558 # 10616 <stress>
   10a18:	4581                	li	a1,0
   10a1a:	953e                	add	a0,a0,a5
   10a1c:	43b070ef          	jal	ra,18656 <__pthread_create>
   10a20:	86098793          	addi	a5,s3,-1952
   10a24:	978a                	add	a5,a5,sp
   10a26:	7b040513          	addi	a0,s0,1968
   10a2a:	86a6                	mv	a3,s1
   10a2c:	61690613          	addi	a2,s2,1558
   10a30:	4581                	li	a1,0
   10a32:	953e                	add	a0,a0,a5
   10a34:	423070ef          	jal	ra,18656 <__pthread_create>
   10a38:	86098793          	addi	a5,s3,-1952
   10a3c:	978a                	add	a5,a5,sp
   10a3e:	6522                	ld	a0,8(sp)
   10a40:	7b840413          	addi	s0,s0,1976
   10a44:	943e                	add	s0,s0,a5
   10a46:	85a2                	mv	a1,s0
   10a48:	7e5070ef          	jal	ra,18a2c <__pthread_join>
   10a4c:	6542                	ld	a0,16(sp)
   10a4e:	85a2                	mv	a1,s0
   10a50:	7dd070ef          	jal	ra,18a2c <__pthread_join>
   10a54:	6311                	lui	t1,0x4
   10a56:	85030313          	addi	t1,t1,-1968 # 3850 <main-0xc898>
   10a5a:	911a                	add	sp,sp,t1
   10a5c:	70e2                	ld	ra,56(sp)
   10a5e:	4501                	li	a0,0
   10a60:	7442                	ld	s0,48(sp)
   10a62:	74a2                	ld	s1,40(sp)
   10a64:	7902                	ld	s2,32(sp)
   10a66:	69e2                	ld	s3,24(sp)
   10a68:	6121                	addi	sp,sp,64
   10a6a:	8082                	ret

0000000000010a6c <b_malloc_thread_local>:
   10a6c:	7115                	addi	sp,sp,-224
   10a6e:	7365                	lui	t1,0xffff9
   10a70:	e1ca                	sd	s2,192(sp)
   10a72:	6911                	lui	s2,0x4
   10a74:	ed86                	sd	ra,216(sp)
   10a76:	e9a2                	sd	s0,208(sp)
   10a78:	e5a6                	sd	s1,200(sp)
   10a7a:	fd4e                	sd	s3,184(sp)
   10a7c:	84090493          	addi	s1,s2,-1984 # 3840 <main-0xc8a8>
   10a80:	911a                	add	sp,sp,t1
   10a82:	8626                	mv	a2,s1
   10a84:	4581                	li	a1,0
   10a86:	1808                	addi	a0,sp,48
   10a88:	2a0070ef          	jal	ra,17d28 <memset>
   10a8c:	699d                	lui	s3,0x7
   10a8e:	0818                	addi	a4,sp,16
   10a90:	0a098793          	addi	a5,s3,160 # 70a0 <main-0x9048>
   10a94:	97ba                	add	a5,a5,a4
   10a96:	412787b3          	sub	a5,a5,s2
   10a9a:	8626                	mv	a2,s1
   10a9c:	4581                	li	a1,0
   10a9e:	7c078513          	addi	a0,a5,1984
   10aa2:	e43e                	sd	a5,8(sp)
   10aa4:	284070ef          	jal	ra,17d28 <memset>
   10aa8:	0818                	addi	a4,sp,16
   10aaa:	7465                	lui	s0,0xffff9
   10aac:	0a098793          	addi	a5,s3,160
   10ab0:	97ba                	add	a5,a5,a4
   10ab2:	f8040693          	addi	a3,s0,-128 # ffffffffffff8f80 <_end+0xfffffffffffd3fc8>
   10ab6:	96be                	add	a3,a3,a5
   10ab8:	0a098793          	addi	a5,s3,160
   10abc:	97ba                	add	a5,a5,a4
   10abe:	00010937          	lui	s2,0x10
   10ac2:	f6840513          	addi	a0,s0,-152
   10ac6:	61690613          	addi	a2,s2,1558 # 10616 <stress>
   10aca:	4581                	li	a1,0
   10acc:	953e                	add	a0,a0,a5
   10ace:	389070ef          	jal	ra,18656 <__pthread_create>
   10ad2:	0818                	addi	a4,sp,16
   10ad4:	0a098793          	addi	a5,s3,160
   10ad8:	97ba                	add	a5,a5,a4
   10ada:	409786b3          	sub	a3,a5,s1
   10ade:	0a098793          	addi	a5,s3,160
   10ae2:	97ba                	add	a5,a5,a4
   10ae4:	f7040513          	addi	a0,s0,-144
   10ae8:	61690613          	addi	a2,s2,1558
   10aec:	4581                	li	a1,0
   10aee:	953e                	add	a0,a0,a5
   10af0:	367070ef          	jal	ra,18656 <__pthread_create>
   10af4:	0818                	addi	a4,sp,16
   10af6:	0a098793          	addi	a5,s3,160
   10afa:	97ba                	add	a5,a5,a4
   10afc:	6562                	ld	a0,24(sp)
   10afe:	f7840413          	addi	s0,s0,-136
   10b02:	943e                	add	s0,s0,a5
   10b04:	85a2                	mv	a1,s0
   10b06:	727070ef          	jal	ra,18a2c <__pthread_join>
   10b0a:	7502                	ld	a0,32(sp)
   10b0c:	85a2                	mv	a1,s0
   10b0e:	71f070ef          	jal	ra,18a2c <__pthread_join>
   10b12:	631d                	lui	t1,0x7
   10b14:	911a                	add	sp,sp,t1
   10b16:	60ee                	ld	ra,216(sp)
   10b18:	4501                	li	a0,0
   10b1a:	644e                	ld	s0,208(sp)
   10b1c:	64ae                	ld	s1,200(sp)
   10b1e:	690e                	ld	s2,192(sp)
   10b20:	79ea                	ld	s3,184(sp)
   10b22:	612d                	addi	sp,sp,224
   10b24:	8082                	ret

0000000000010b26 <emptyfunc>:
   10b26:	4501                	li	a0,0
   10b28:	8082                	ret

0000000000010b2a <lockunlock>:
   10b2a:	1101                	addi	sp,sp,-32
   10b2c:	e822                	sd	s0,16(sp)
   10b2e:	000f4437          	lui	s0,0xf4
   10b32:	e426                	sd	s1,8(sp)
   10b34:	ec06                	sd	ra,24(sp)
   10b36:	84aa                	mv	s1,a0
   10b38:	24040413          	addi	s0,s0,576 # f4240 <_end+0xcf288>
   10b3c:	8526                	mv	a0,s1
   10b3e:	701070ef          	jal	ra,18a3e <__pthread_mutex_lock>
   10b42:	8526                	mv	a0,s1
   10b44:	147d                	addi	s0,s0,-1
   10b46:	166080ef          	jal	ra,18cac <__pthread_mutex_unlock>
   10b4a:	f86d                	bnez	s0,10b3c <lockunlock+0x12>
   10b4c:	60e2                	ld	ra,24(sp)
   10b4e:	6442                	ld	s0,16(sp)
   10b50:	64a2                	ld	s1,8(sp)
   10b52:	4501                	li	a0,0
   10b54:	6105                	addi	sp,sp,32
   10b56:	8082                	ret

0000000000010b58 <b_pthread_createjoin_serial1>:
   10b58:	7139                	addi	sp,sp,-64
   10b5a:	f822                	sd	s0,48(sp)
   10b5c:	6405                	lui	s0,0x1
   10b5e:	f426                	sd	s1,40(sp)
   10b60:	fc06                	sd	ra,56(sp)
   10b62:	e42a                	sd	a0,8(sp)
   10b64:	9c440413          	addi	s0,s0,-1596 # 9c4 <main-0xf724>
   10b68:	000114b7          	lui	s1,0x11
   10b6c:	4681                	li	a3,0
   10b6e:	b2648613          	addi	a2,s1,-1242 # 10b26 <emptyfunc>
   10b72:	4581                	li	a1,0
   10b74:	0828                	addi	a0,sp,24
   10b76:	2e1070ef          	jal	ra,18656 <__pthread_create>
   10b7a:	6562                	ld	a0,24(sp)
   10b7c:	002c                	addi	a1,sp,8
   10b7e:	147d                	addi	s0,s0,-1
   10b80:	6ad070ef          	jal	ra,18a2c <__pthread_join>
   10b84:	f465                	bnez	s0,10b6c <b_pthread_createjoin_serial1+0x14>
   10b86:	70e2                	ld	ra,56(sp)
   10b88:	7442                	ld	s0,48(sp)
   10b8a:	74a2                	ld	s1,40(sp)
   10b8c:	4501                	li	a0,0
   10b8e:	6121                	addi	sp,sp,64
   10b90:	8082                	ret

0000000000010b92 <b_pthread_createjoin_serial2>:
   10b92:	7145                	addi	sp,sp,-464
   10b94:	fb4a                	sd	s2,432(sp)
   10b96:	f74e                	sd	s3,424(sp)
   10b98:	f352                	sd	s4,416(sp)
   10b9a:	e786                	sd	ra,456(sp)
   10b9c:	e3a2                	sd	s0,448(sp)
   10b9e:	ff26                	sd	s1,440(sp)
   10ba0:	e42a                	sd	a0,8(sp)
   10ba2:	03200913          	li	s2,50
   10ba6:	1a010993          	addi	s3,sp,416
   10baa:	00011a37          	lui	s4,0x11
   10bae:	0800                	addi	s0,sp,16
   10bb0:	84a2                	mv	s1,s0
   10bb2:	8526                	mv	a0,s1
   10bb4:	4681                	li	a3,0
   10bb6:	b26a0613          	addi	a2,s4,-1242 # 10b26 <emptyfunc>
   10bba:	4581                	li	a1,0
   10bbc:	04a1                	addi	s1,s1,8
   10bbe:	299070ef          	jal	ra,18656 <__pthread_create>
   10bc2:	ff3498e3          	bne	s1,s3,10bb2 <b_pthread_createjoin_serial2+0x20>
   10bc6:	6008                	ld	a0,0(s0)
   10bc8:	002c                	addi	a1,sp,8
   10bca:	0421                	addi	s0,s0,8
   10bcc:	661070ef          	jal	ra,18a2c <__pthread_join>
   10bd0:	ff341be3          	bne	s0,s3,10bc6 <b_pthread_createjoin_serial2+0x34>
   10bd4:	197d                	addi	s2,s2,-1
   10bd6:	fc091ce3          	bnez	s2,10bae <b_pthread_createjoin_serial2+0x1c>
   10bda:	60be                	ld	ra,456(sp)
   10bdc:	641e                	ld	s0,448(sp)
   10bde:	74fa                	ld	s1,440(sp)
   10be0:	795a                	ld	s2,432(sp)
   10be2:	79ba                	ld	s3,424(sp)
   10be4:	7a1a                	ld	s4,416(sp)
   10be6:	4501                	li	a0,0
   10be8:	6179                	addi	sp,sp,464
   10bea:	8082                	ret

0000000000010bec <b_pthread_create_serial1>:
   10bec:	711d                	addi	sp,sp,-96
   10bee:	0028                	addi	a0,sp,8
   10bf0:	ec86                	sd	ra,88(sp)
   10bf2:	e8a2                	sd	s0,80(sp)
   10bf4:	e4a6                	sd	s1,72(sp)
   10bf6:	035070ef          	jal	ra,1842a <pthread_attr_init>
   10bfa:	6591                	lui	a1,0x4
   10bfc:	0028                	addi	a0,sp,8
   10bfe:	6405                	lui	s0,0x1
   10c00:	049070ef          	jal	ra,18448 <pthread_attr_setstacksize>
   10c04:	9c440413          	addi	s0,s0,-1596 # 9c4 <main-0xf724>
   10c08:	000114b7          	lui	s1,0x11
   10c0c:	4681                	li	a3,0
   10c0e:	b2648613          	addi	a2,s1,-1242 # 10b26 <emptyfunc>
   10c12:	002c                	addi	a1,sp,8
   10c14:	850a                	mv	a0,sp
   10c16:	147d                	addi	s0,s0,-1
   10c18:	23f070ef          	jal	ra,18656 <__pthread_create>
   10c1c:	f865                	bnez	s0,10c0c <b_pthread_create_serial1+0x20>
   10c1e:	60e6                	ld	ra,88(sp)
   10c20:	6446                	ld	s0,80(sp)
   10c22:	64a6                	ld	s1,72(sp)
   10c24:	4501                	li	a0,0
   10c26:	6125                	addi	sp,sp,96
   10c28:	8082                	ret

0000000000010c2a <b_pthread_uselesslock>:
   10c2a:	715d                	addi	sp,sp,-80
   10c2c:	00011637          	lui	a2,0x11
   10c30:	e42a                	sd	a0,8(sp)
   10c32:	0834                	addi	a3,sp,24
   10c34:	b2a60613          	addi	a2,a2,-1238 # 10b2a <lockunlock>
   10c38:	4581                	li	a1,0
   10c3a:	0808                	addi	a0,sp,16
   10c3c:	e486                	sd	ra,72(sp)
   10c3e:	ec02                	sd	zero,24(sp)
   10c40:	f002                	sd	zero,32(sp)
   10c42:	f402                	sd	zero,40(sp)
   10c44:	f802                	sd	zero,48(sp)
   10c46:	fc02                	sd	zero,56(sp)
   10c48:	20f070ef          	jal	ra,18656 <__pthread_create>
   10c4c:	6542                	ld	a0,16(sp)
   10c4e:	002c                	addi	a1,sp,8
   10c50:	5dd070ef          	jal	ra,18a2c <__pthread_join>
   10c54:	60a6                	ld	ra,72(sp)
   10c56:	4501                	li	a0,0
   10c58:	6161                	addi	sp,sp,80
   10c5a:	8082                	ret

0000000000010c5c <b_regex_compile>:
   10c5c:	711d                	addi	sp,sp,-96
   10c5e:	0001f5b7          	lui	a1,0x1f
   10c62:	e4a6                	sd	s1,72(sp)
   10c64:	5b058593          	addi	a1,a1,1456 # 1f5b0 <__clzdi2+0x3dc>
   10c68:	84aa                	mv	s1,a0
   10c6a:	4501                	li	a0,0
   10c6c:	e8a2                	sd	s0,80(sp)
   10c6e:	ec86                	sd	ra,88(sp)
   10c70:	3e800413          	li	s0,1000
   10c74:	115000ef          	jal	ra,11588 <setlocale>
   10c78:	4605                	li	a2,1
   10c7a:	85a6                	mv	a1,s1
   10c7c:	850a                	mv	a0,sp
   10c7e:	0f4030ef          	jal	ra,13d72 <regcomp>
   10c82:	850a                	mv	a0,sp
   10c84:	147d                	addi	s0,s0,-1
   10c86:	022030ef          	jal	ra,13ca8 <regfree>
   10c8a:	f47d                	bnez	s0,10c78 <b_regex_compile+0x1c>
   10c8c:	60e6                	ld	ra,88(sp)
   10c8e:	6446                	ld	s0,80(sp)
   10c90:	64a6                	ld	s1,72(sp)
   10c92:	6125                	addi	sp,sp,96
   10c94:	8082                	ret

0000000000010c96 <b_regex_search>:
   10c96:	fffc1337          	lui	t1,0xfffc1
   10c9a:	7139                	addi	sp,sp,-64
   10c9c:	83030313          	addi	t1,t1,-2000 # fffffffffffc0830 <_end+0xfffffffffff9b878>
   10ca0:	0001f5b7          	lui	a1,0x1f
   10ca4:	fc06                	sd	ra,56(sp)
   10ca6:	f822                	sd	s0,48(sp)
   10ca8:	f426                	sd	s1,40(sp)
   10caa:	f04a                	sd	s2,32(sp)
   10cac:	ec4e                	sd	s3,24(sp)
   10cae:	892a                	mv	s2,a0
   10cb0:	911a                	add	sp,sp,t1
   10cb2:	5b058593          	addi	a1,a1,1456 # 1f5b0 <__clzdi2+0x3dc>
   10cb6:	4501                	li	a0,0
   10cb8:	0d1000ef          	jal	ra,11588 <setlocale>
   10cbc:	0003f9b7          	lui	s3,0x3f
   10cc0:	fffc1437          	lui	s0,0xfffc1
   10cc4:	7e098793          	addi	a5,s3,2016 # 3f7e0 <_end+0x1a828>
   10cc8:	978a                	add	a5,a5,sp
   10cca:	86040493          	addi	s1,s0,-1952 # fffffffffffc0860 <_end+0xfffffffffff9b8a8>
   10cce:	94be                	add	s1,s1,a5
   10cd0:	0003f637          	lui	a2,0x3f
   10cd4:	79e60613          	addi	a2,a2,1950 # 3f79e <_end+0x1a7e6>
   10cd8:	06100593          	li	a1,97
   10cdc:	8526                	mv	a0,s1
   10cde:	04a070ef          	jal	ra,17d28 <memset>
   10ce2:	7de98713          	addi	a4,s3,2014
   10ce6:	970a                	add	a4,a4,sp
   10ce8:	06200793          	li	a5,98
   10cec:	00f71023          	sh	a5,0(a4)
   10cf0:	7e098793          	addi	a5,s3,2016
   10cf4:	978a                	add	a5,a5,sp
   10cf6:	82040413          	addi	s0,s0,-2016
   10cfa:	943e                	add	s0,s0,a5
   10cfc:	85ca                	mv	a1,s2
   10cfe:	4605                	li	a2,1
   10d00:	8522                	mv	a0,s0
   10d02:	070030ef          	jal	ra,13d72 <regcomp>
   10d06:	85a6                	mv	a1,s1
   10d08:	4701                	li	a4,0
   10d0a:	4681                	li	a3,0
   10d0c:	4601                	li	a2,0
   10d0e:	8522                	mv	a0,s0
   10d10:	539030ef          	jal	ra,14a48 <regexec>
   10d14:	8522                	mv	a0,s0
   10d16:	793020ef          	jal	ra,13ca8 <regfree>
   10d1a:	0003f337          	lui	t1,0x3f
   10d1e:	7d030313          	addi	t1,t1,2000 # 3f7d0 <_end+0x1a818>
   10d22:	911a                	add	sp,sp,t1
   10d24:	70e2                	ld	ra,56(sp)
   10d26:	7442                	ld	s0,48(sp)
   10d28:	74a2                	ld	s1,40(sp)
   10d2a:	7902                	ld	s2,32(sp)
   10d2c:	69e2                	ld	s3,24(sp)
   10d2e:	6121                	addi	sp,sp,64
   10d30:	8082                	ret

0000000000010d32 <b_stdio_putcgetc>:
   10d32:	1101                	addi	sp,sp,-32
   10d34:	e822                	sd	s0,16(sp)
   10d36:	e426                	sd	s1,8(sp)
   10d38:	ec06                	sd	ra,24(sp)
   10d3a:	e04a                	sd	s2,0(sp)
   10d3c:	004c5437          	lui	s0,0x4c5
   10d40:	19a050ef          	jal	ra,15eda <tmpfile>
   10d44:	84aa                	mv	s1,a0
   10d46:	b4040413          	addi	s0,s0,-1216 # 4c4b40 <_end+0x49fb88>
   10d4a:	85a6                	mv	a1,s1
   10d4c:	07800513          	li	a0,120
   10d50:	147d                	addi	s0,s0,-1
   10d52:	02c050ef          	jal	ra,15d7e <putc>
   10d56:	f875                	bnez	s0,10d4a <b_stdio_putcgetc+0x18>
   10d58:	4601                	li	a2,0
   10d5a:	4581                	li	a1,0
   10d5c:	8526                	mv	a0,s1
   10d5e:	004c5437          	lui	s0,0x4c5
   10d62:	70b040ef          	jal	ra,15c6c <__fseeko>
   10d66:	b4040413          	addi	s0,s0,-1216 # 4c4b40 <_end+0x49fb88>
   10d6a:	8526                	mv	a0,s1
   10d6c:	74b040ef          	jal	ra,15cb6 <getc>
   10d70:	147d                	addi	s0,s0,-1
   10d72:	992a                	add	s2,s2,a0
   10d74:	f87d                	bnez	s0,10d6a <b_stdio_putcgetc+0x38>
   10d76:	8526                	mv	a0,s1
   10d78:	375040ef          	jal	ra,158ec <fclose>
   10d7c:	60e2                	ld	ra,24(sp)
   10d7e:	6442                	ld	s0,16(sp)
   10d80:	854a                	mv	a0,s2
   10d82:	64a2                	ld	s1,8(sp)
   10d84:	6902                	ld	s2,0(sp)
   10d86:	6105                	addi	sp,sp,32
   10d88:	8082                	ret

0000000000010d8a <b_stdio_putcgetc_unlocked>:
   10d8a:	1101                	addi	sp,sp,-32
   10d8c:	e822                	sd	s0,16(sp)
   10d8e:	e426                	sd	s1,8(sp)
   10d90:	ec06                	sd	ra,24(sp)
   10d92:	e04a                	sd	s2,0(sp)
   10d94:	004c5437          	lui	s0,0x4c5
   10d98:	142050ef          	jal	ra,15eda <tmpfile>
   10d9c:	84aa                	mv	s1,a0
   10d9e:	b4040413          	addi	s0,s0,-1216 # 4c4b40 <_end+0x49fb88>
   10da2:	85a6                	mv	a1,s1
   10da4:	07800513          	li	a0,120
   10da8:	147d                	addi	s0,s0,-1
   10daa:	06a050ef          	jal	ra,15e14 <putc_unlocked>
   10dae:	f875                	bnez	s0,10da2 <b_stdio_putcgetc_unlocked+0x18>
   10db0:	4601                	li	a2,0
   10db2:	4581                	li	a1,0
   10db4:	8526                	mv	a0,s1
   10db6:	004c5437          	lui	s0,0x4c5
   10dba:	6b3040ef          	jal	ra,15c6c <__fseeko>
   10dbe:	b4040413          	addi	s0,s0,-1216 # 4c4b40 <_end+0x49fb88>
   10dc2:	8526                	mv	a0,s1
   10dc4:	75f040ef          	jal	ra,15d22 <getc_unlocked>
   10dc8:	147d                	addi	s0,s0,-1
   10dca:	992a                	add	s2,s2,a0
   10dcc:	f87d                	bnez	s0,10dc2 <b_stdio_putcgetc_unlocked+0x38>
   10dce:	8526                	mv	a0,s1
   10dd0:	31d040ef          	jal	ra,158ec <fclose>
   10dd4:	60e2                	ld	ra,24(sp)
   10dd6:	6442                	ld	s0,16(sp)
   10dd8:	854a                	mv	a0,s2
   10dda:	64a2                	ld	s1,8(sp)
   10ddc:	6902                	ld	s2,0(sp)
   10dde:	6105                	addi	sp,sp,32
   10de0:	8082                	ret

0000000000010de2 <b_string_strstr>:
   10de2:	7139                	addi	sp,sp,-64
   10de4:	fc06                	sd	ra,56(sp)
   10de6:	f822                	sd	s0,48(sp)
   10de8:	f426                	sd	s1,40(sp)
   10dea:	f04a                	sd	s2,32(sp)
   10dec:	ec4e                	sd	s3,24(sp)
   10dee:	e852                	sd	s4,16(sp)
   10df0:	e456                	sd	s5,8(sp)
   10df2:	6489                	lui	s1,0x2
   10df4:	8a2a                	mv	s4,a0
   10df6:	0ae070ef          	jal	ra,17ea4 <strlen>
   10dfa:	842a                	mv	s0,a0
   10dfc:	71048513          	addi	a0,s1,1808 # 2710 <main-0xd9d8>
   10e00:	02a40533          	mul	a0,s0,a0
   10e04:	70f48493          	addi	s1,s1,1807
   10e08:	0505                	addi	a0,a0,1
   10e0a:	60d000ef          	jal	ra,11c16 <malloc>
   10e0e:	00850ab3          	add	s5,a0,s0
   10e12:	892a                	mv	s2,a0
   10e14:	89d6                	mv	s3,s5
   10e16:	40898533          	sub	a0,s3,s0
   10e1a:	8622                	mv	a2,s0
   10e1c:	85d2                	mv	a1,s4
   10e1e:	38f060ef          	jal	ra,179ac <memcpy>
   10e22:	fff9c783          	lbu	a5,-1(s3)
   10e26:	14fd                	addi	s1,s1,-1
   10e28:	0017c793          	xori	a5,a5,1
   10e2c:	fef98fa3          	sb	a5,-1(s3)
   10e30:	99a2                	add	s3,s3,s0
   10e32:	f0f5                	bnez	s1,10e16 <b_string_strstr+0x34>
   10e34:	6509                	lui	a0,0x2
   10e36:	70e50513          	addi	a0,a0,1806 # 270e <main-0xd9da>
   10e3a:	02a40533          	mul	a0,s0,a0
   10e3e:	00140613          	addi	a2,s0,1
   10e42:	85d2                	mv	a1,s4
   10e44:	03200493          	li	s1,50
   10e48:	4401                	li	s0,0
   10e4a:	9556                	add	a0,a0,s5
   10e4c:	361060ef          	jal	ra,179ac <memcpy>
   10e50:	00094783          	lbu	a5,0(s2)
   10e54:	85d2                	mv	a1,s4
   10e56:	854a                	mv	a0,s2
   10e58:	0017c793          	xori	a5,a5,1
   10e5c:	00f90023          	sb	a5,0(s2)
   10e60:	322070ef          	jal	ra,18182 <strstr>
   10e64:	2501                	sext.w	a0,a0
   10e66:	14fd                	addi	s1,s1,-1
   10e68:	942a                	add	s0,s0,a0
   10e6a:	f0fd                	bnez	s1,10e50 <b_string_strstr+0x6e>
   10e6c:	854a                	mv	a0,s2
   10e6e:	3a5000ef          	jal	ra,11a12 <free>
   10e72:	8522                	mv	a0,s0
   10e74:	70e2                	ld	ra,56(sp)
   10e76:	7442                	ld	s0,48(sp)
   10e78:	74a2                	ld	s1,40(sp)
   10e7a:	7902                	ld	s2,32(sp)
   10e7c:	69e2                	ld	s3,24(sp)
   10e7e:	6a42                	ld	s4,16(sp)
   10e80:	6aa2                	ld	s5,8(sp)
   10e82:	6121                	addi	sp,sp,64
   10e84:	8082                	ret

0000000000010e86 <b_string_memset>:
   10e86:	7179                	addi	sp,sp,-48
   10e88:	ec26                	sd	s1,24(sp)
   10e8a:	0007a4b7          	lui	s1,0x7a
   10e8e:	12048513          	addi	a0,s1,288 # 7a120 <_end+0x55168>
   10e92:	f022                	sd	s0,32(sp)
   10e94:	e84a                	sd	s2,16(sp)
   10e96:	e44e                	sd	s3,8(sp)
   10e98:	f406                	sd	ra,40(sp)
   10e9a:	57d000ef          	jal	ra,11c16 <malloc>
   10e9e:	892a                	mv	s2,a0
   10ea0:	4401                	li	s0,0
   10ea2:	12048493          	addi	s1,s1,288
   10ea6:	06400993          	li	s3,100
   10eaa:	40848633          	sub	a2,s1,s0
   10eae:	0004059b          	sext.w	a1,s0
   10eb2:	00890533          	add	a0,s2,s0
   10eb6:	0405                	addi	s0,s0,1
   10eb8:	671060ef          	jal	ra,17d28 <memset>
   10ebc:	ff3417e3          	bne	s0,s3,10eaa <b_string_memset+0x24>
   10ec0:	854a                	mv	a0,s2
   10ec2:	351000ef          	jal	ra,11a12 <free>
   10ec6:	70a2                	ld	ra,40(sp)
   10ec8:	7402                	ld	s0,32(sp)
   10eca:	64e2                	ld	s1,24(sp)
   10ecc:	6942                	ld	s2,16(sp)
   10ece:	69a2                	ld	s3,8(sp)
   10ed0:	4501                	li	a0,0
   10ed2:	6145                	addi	sp,sp,48
   10ed4:	8082                	ret

0000000000010ed6 <b_string_strchr>:
   10ed6:	7179                	addi	sp,sp,-48
   10ed8:	f022                	sd	s0,32(sp)
   10eda:	0007a437          	lui	s0,0x7a
   10ede:	12040513          	addi	a0,s0,288 # 7a120 <_end+0x55168>
   10ee2:	f406                	sd	ra,40(sp)
   10ee4:	ec26                	sd	s1,24(sp)
   10ee6:	e84a                	sd	s2,16(sp)
   10ee8:	e44e                	sd	s3,8(sp)
   10eea:	52d000ef          	jal	ra,11c16 <malloc>
   10eee:	12040613          	addi	a2,s0,288
   10ef2:	06100593          	li	a1,97
   10ef6:	84aa                	mv	s1,a0
   10ef8:	631060ef          	jal	ra,17d28 <memset>
   10efc:	9426                	add	s0,s0,s1
   10efe:	06200793          	li	a5,98
   10f02:	10f41f23          	sh	a5,286(s0)
   10f06:	4901                	li	s2,0
   10f08:	4401                	li	s0,0
   10f0a:	06400993          	li	s3,100
   10f0e:	00747793          	andi	a5,s0,7
   10f12:	00848733          	add	a4,s1,s0
   10f16:	0307879b          	addiw	a5,a5,48
   10f1a:	00f70023          	sb	a5,0(a4)
   10f1e:	06200593          	li	a1,98
   10f22:	8526                	mv	a0,s1
   10f24:	6c5060ef          	jal	ra,17de8 <strchr>
   10f28:	2501                	sext.w	a0,a0
   10f2a:	0405                	addi	s0,s0,1
   10f2c:	992a                	add	s2,s2,a0
   10f2e:	ff3410e3          	bne	s0,s3,10f0e <b_string_strchr+0x38>
   10f32:	8526                	mv	a0,s1
   10f34:	2df000ef          	jal	ra,11a12 <free>
   10f38:	70a2                	ld	ra,40(sp)
   10f3a:	7402                	ld	s0,32(sp)
   10f3c:	854a                	mv	a0,s2
   10f3e:	64e2                	ld	s1,24(sp)
   10f40:	6942                	ld	s2,16(sp)
   10f42:	69a2                	ld	s3,8(sp)
   10f44:	6145                	addi	sp,sp,48
   10f46:	8082                	ret

0000000000010f48 <b_string_strlen>:
   10f48:	7179                	addi	sp,sp,-48
   10f4a:	f022                	sd	s0,32(sp)
   10f4c:	0007a437          	lui	s0,0x7a
   10f50:	12040513          	addi	a0,s0,288 # 7a120 <_end+0x55168>
   10f54:	f406                	sd	ra,40(sp)
   10f56:	ec26                	sd	s1,24(sp)
   10f58:	e84a                	sd	s2,16(sp)
   10f5a:	e44e                	sd	s3,8(sp)
   10f5c:	4bb000ef          	jal	ra,11c16 <malloc>
   10f60:	84aa                	mv	s1,a0
   10f62:	11f40613          	addi	a2,s0,287
   10f66:	06100593          	li	a1,97
   10f6a:	9426                	add	s0,s0,s1
   10f6c:	5bd060ef          	jal	ra,17d28 <memset>
   10f70:	4901                	li	s2,0
   10f72:	10040fa3          	sb	zero,287(s0)
   10f76:	06400993          	li	s3,100
   10f7a:	4401                	li	s0,0
   10f7c:	00747793          	andi	a5,s0,7
   10f80:	00848733          	add	a4,s1,s0
   10f84:	0307879b          	addiw	a5,a5,48
   10f88:	00f70023          	sb	a5,0(a4)
   10f8c:	8526                	mv	a0,s1
   10f8e:	717060ef          	jal	ra,17ea4 <strlen>
   10f92:	0405                	addi	s0,s0,1
   10f94:	992a                	add	s2,s2,a0
   10f96:	ff3413e3          	bne	s0,s3,10f7c <b_string_strlen+0x34>
   10f9a:	8526                	mv	a0,s1
   10f9c:	277000ef          	jal	ra,11a12 <free>
   10fa0:	70a2                	ld	ra,40(sp)
   10fa2:	7402                	ld	s0,32(sp)
   10fa4:	854a                	mv	a0,s2
   10fa6:	64e2                	ld	s1,24(sp)
   10fa8:	6942                	ld	s2,16(sp)
   10faa:	69a2                	ld	s3,8(sp)
   10fac:	6145                	addi	sp,sp,48
   10fae:	8082                	ret

0000000000010fb0 <b_utf8_bigbuf>:
   10fb0:	0001f5b7          	lui	a1,0x1f
   10fb4:	7179                	addi	sp,sp,-48
   10fb6:	70058593          	addi	a1,a1,1792 # 1f700 <__clzdi2+0x52c>
   10fba:	4501                	li	a0,0
   10fbc:	f406                	sd	ra,40(sp)
   10fbe:	f022                	sd	s0,32(sp)
   10fc0:	ec26                	sd	s1,24(sp)
   10fc2:	e84a                	sd	s2,16(sp)
   10fc4:	e44e                	sd	s3,8(sp)
   10fc6:	5c2000ef          	jal	ra,11588 <setlocale>
   10fca:	e139                	bnez	a0,11010 <b_utf8_bigbuf+0x60>
   10fcc:	0001f5b7          	lui	a1,0x1f
   10fd0:	70858593          	addi	a1,a1,1800 # 1f708 <__clzdi2+0x534>
   10fd4:	5b4000ef          	jal	ra,11588 <setlocale>
   10fd8:	ed05                	bnez	a0,11010 <b_utf8_bigbuf+0x60>
   10fda:	0001f5b7          	lui	a1,0x1f
   10fde:	71858593          	addi	a1,a1,1816 # 1f718 <__clzdi2+0x544>
   10fe2:	5a6000ef          	jal	ra,11588 <setlocale>
   10fe6:	e50d                	bnez	a0,11010 <b_utf8_bigbuf+0x60>
   10fe8:	0001f5b7          	lui	a1,0x1f
   10fec:	72858593          	addi	a1,a1,1832 # 1f728 <__clzdi2+0x554>
   10ff0:	598000ef          	jal	ra,11588 <setlocale>
   10ff4:	ed11                	bnez	a0,11010 <b_utf8_bigbuf+0x60>
   10ff6:	0001f5b7          	lui	a1,0x1f
   10ffa:	73858593          	addi	a1,a1,1848 # 1f738 <__clzdi2+0x564>
   10ffe:	58a000ef          	jal	ra,11588 <setlocale>
   11002:	e519                	bnez	a0,11010 <b_utf8_bigbuf+0x60>
   11004:	0001f5b7          	lui	a1,0x1f
   11008:	74058593          	addi	a1,a1,1856 # 1f740 <__clzdi2+0x56c>
   1100c:	57c000ef          	jal	ra,11588 <setlocale>
   11010:	4539                	li	a0,14
   11012:	56c000ef          	jal	ra,1157e <__nl_langinfo>
   11016:	0001f5b7          	lui	a1,0x1f
   1101a:	74858593          	addi	a1,a1,1864 # 1f748 <__clzdi2+0x574>
   1101e:	66d060ef          	jal	ra,17e8a <strcmp>
   11022:	12051063          	bnez	a0,11142 <b_utf8_bigbuf+0x192>
   11026:	0007a537          	lui	a0,0x7a
   1102a:	12050513          	addi	a0,a0,288 # 7a120 <_end+0x55168>
   1102e:	3e9000ef          	jal	ra,11c16 <malloc>
   11032:	842a                	mv	s0,a0
   11034:	001e8537          	lui	a0,0x1e8
   11038:	48050513          	addi	a0,a0,1152 # 1e8480 <_end+0x1c34c8>
   1103c:	3db000ef          	jal	ra,11c16 <malloc>
   11040:	89aa                	mv	s3,a0
   11042:	8622                	mv	a2,s0
   11044:	0c300693          	li	a3,195
   11048:	0c000593          	li	a1,192
   1104c:	0e000513          	li	a0,224
   11050:	8732                	mv	a4,a2
   11052:	08000793          	li	a5,128
   11056:	00f700a3          	sb	a5,1(a4)
   1105a:	00d70023          	sb	a3,0(a4)
   1105e:	0785                	addi	a5,a5,1
   11060:	0709                	addi	a4,a4,2
   11062:	feb79ae3          	bne	a5,a1,11056 <b_utf8_bigbuf+0xa6>
   11066:	0685                	addi	a3,a3,1
   11068:	08060613          	addi	a2,a2,128
   1106c:	fea692e3          	bne	a3,a0,11050 <b_utf8_bigbuf+0xa0>
   11070:	6785                	lui	a5,0x1
   11072:	e8078793          	addi	a5,a5,-384 # e80 <main-0xf268>
   11076:	97a2                	add	a5,a5,s0
   11078:	0e100593          	li	a1,225
   1107c:	0c000813          	li	a6,192
   11080:	688d                	lui	a7,0x3
   11082:	0ed00313          	li	t1,237
   11086:	853e                	mv	a0,a5
   11088:	08000613          	li	a2,128
   1108c:	a005                	j	110ac <b_utf8_bigbuf+0xfc>
   1108e:	00e68123          	sb	a4,2(a3)
   11092:	00b68023          	sb	a1,0(a3)
   11096:	00c680a3          	sb	a2,1(a3)
   1109a:	0705                	addi	a4,a4,1
   1109c:	068d                	addi	a3,a3,3
   1109e:	ff0718e3          	bne	a4,a6,1108e <b_utf8_bigbuf+0xde>
   110a2:	0605                	addi	a2,a2,1
   110a4:	0c050513          	addi	a0,a0,192
   110a8:	00e60663          	beq	a2,a4,110b4 <b_utf8_bigbuf+0x104>
   110ac:	86aa                	mv	a3,a0
   110ae:	08000713          	li	a4,128
   110b2:	bff1                	j	1108e <b_utf8_bigbuf+0xde>
   110b4:	0585                	addi	a1,a1,1
   110b6:	97c6                	add	a5,a5,a7
   110b8:	fc6597e3          	bne	a1,t1,11086 <b_utf8_bigbuf+0xd6>
   110bc:	000257b7          	lui	a5,0x25
   110c0:	e8078793          	addi	a5,a5,-384 # 24e80 <builtin_tls+0x118>
   110c4:	97a2                	add	a5,a5,s0
   110c6:	0f100593          	li	a1,241
   110ca:	f8000813          	li	a6,-128
   110ce:	0c000893          	li	a7,192
   110d2:	6311                	lui	t1,0x4
   110d4:	0f400e13          	li	t3,244
   110d8:	853e                	mv	a0,a5
   110da:	08000613          	li	a2,128
   110de:	a015                	j	11102 <b_utf8_bigbuf+0x152>
   110e0:	00d701a3          	sb	a3,3(a4)
   110e4:	00b70023          	sb	a1,0(a4)
   110e8:	00c700a3          	sb	a2,1(a4)
   110ec:	01070123          	sb	a6,2(a4)
   110f0:	0685                	addi	a3,a3,1
   110f2:	0711                	addi	a4,a4,4
   110f4:	ff1696e3          	bne	a3,a7,110e0 <b_utf8_bigbuf+0x130>
   110f8:	0605                	addi	a2,a2,1
   110fa:	10050513          	addi	a0,a0,256
   110fe:	00d60663          	beq	a2,a3,1110a <b_utf8_bigbuf+0x15a>
   11102:	872a                	mv	a4,a0
   11104:	08000693          	li	a3,128
   11108:	bfe1                	j	110e0 <b_utf8_bigbuf+0x130>
   1110a:	0585                	addi	a1,a1,1
   1110c:	979a                	add	a5,a5,t1
   1110e:	fdc595e3          	bne	a1,t3,110d8 <b_utf8_bigbuf+0x128>
   11112:	000317b7          	lui	a5,0x31
   11116:	97a2                	add	a5,a5,s0
   11118:	0007a937          	lui	s2,0x7a
   1111c:	e8078023          	sb	zero,-384(a5) # 30e80 <_end+0xbec8>
   11120:	03200493          	li	s1,50
   11124:	12090913          	addi	s2,s2,288 # 7a120 <_end+0x55168>
   11128:	864a                	mv	a2,s2
   1112a:	85a2                	mv	a1,s0
   1112c:	854e                	mv	a0,s3
   1112e:	14fd                	addi	s1,s1,-1
   11130:	08c010ef          	jal	ra,121bc <mbstowcs>
   11134:	f8f5                	bnez	s1,11128 <b_utf8_bigbuf+0x178>
   11136:	854e                	mv	a0,s3
   11138:	0db000ef          	jal	ra,11a12 <free>
   1113c:	8522                	mv	a0,s0
   1113e:	0d5000ef          	jal	ra,11a12 <free>
   11142:	70a2                	ld	ra,40(sp)
   11144:	7402                	ld	s0,32(sp)
   11146:	64e2                	ld	s1,24(sp)
   11148:	6942                	ld	s2,16(sp)
   1114a:	69a2                	ld	s3,8(sp)
   1114c:	557d                	li	a0,-1
   1114e:	6145                	addi	sp,sp,48
   11150:	8082                	ret

0000000000011152 <b_utf8_onebyone>:
   11152:	0001f5b7          	lui	a1,0x1f
   11156:	7179                	addi	sp,sp,-48
   11158:	70058593          	addi	a1,a1,1792 # 1f700 <__clzdi2+0x52c>
   1115c:	4501                	li	a0,0
   1115e:	f406                	sd	ra,40(sp)
   11160:	f022                	sd	s0,32(sp)
   11162:	ec26                	sd	s1,24(sp)
   11164:	e84a                	sd	s2,16(sp)
   11166:	e402                	sd	zero,8(sp)
   11168:	420000ef          	jal	ra,11588 <setlocale>
   1116c:	e139                	bnez	a0,111b2 <b_utf8_onebyone+0x60>
   1116e:	0001f5b7          	lui	a1,0x1f
   11172:	70858593          	addi	a1,a1,1800 # 1f708 <__clzdi2+0x534>
   11176:	412000ef          	jal	ra,11588 <setlocale>
   1117a:	ed05                	bnez	a0,111b2 <b_utf8_onebyone+0x60>
   1117c:	0001f5b7          	lui	a1,0x1f
   11180:	71858593          	addi	a1,a1,1816 # 1f718 <__clzdi2+0x544>
   11184:	404000ef          	jal	ra,11588 <setlocale>
   11188:	e50d                	bnez	a0,111b2 <b_utf8_onebyone+0x60>
   1118a:	0001f5b7          	lui	a1,0x1f
   1118e:	72858593          	addi	a1,a1,1832 # 1f728 <__clzdi2+0x554>
   11192:	3f6000ef          	jal	ra,11588 <setlocale>
   11196:	ed11                	bnez	a0,111b2 <b_utf8_onebyone+0x60>
   11198:	0001f5b7          	lui	a1,0x1f
   1119c:	73858593          	addi	a1,a1,1848 # 1f738 <__clzdi2+0x564>
   111a0:	3e8000ef          	jal	ra,11588 <setlocale>
   111a4:	e519                	bnez	a0,111b2 <b_utf8_onebyone+0x60>
   111a6:	0001f5b7          	lui	a1,0x1f
   111aa:	74058593          	addi	a1,a1,1856 # 1f740 <__clzdi2+0x56c>
   111ae:	3da000ef          	jal	ra,11588 <setlocale>
   111b2:	4539                	li	a0,14
   111b4:	3ca000ef          	jal	ra,1157e <__nl_langinfo>
   111b8:	0001f5b7          	lui	a1,0x1f
   111bc:	74858593          	addi	a1,a1,1864 # 1f748 <__clzdi2+0x574>
   111c0:	4cb060ef          	jal	ra,17e8a <strcmp>
   111c4:	10051b63          	bnez	a0,112da <b_utf8_onebyone+0x188>
   111c8:	0007a537          	lui	a0,0x7a
   111cc:	12050513          	addi	a0,a0,288 # 7a120 <_end+0x55168>
   111d0:	247000ef          	jal	ra,11c16 <malloc>
   111d4:	842a                	mv	s0,a0
   111d6:	862a                	mv	a2,a0
   111d8:	0c300693          	li	a3,195
   111dc:	0c000593          	li	a1,192
   111e0:	0e000513          	li	a0,224
   111e4:	8732                	mv	a4,a2
   111e6:	08000793          	li	a5,128
   111ea:	00f700a3          	sb	a5,1(a4)
   111ee:	00d70023          	sb	a3,0(a4)
   111f2:	0785                	addi	a5,a5,1
   111f4:	0709                	addi	a4,a4,2
   111f6:	feb79ae3          	bne	a5,a1,111ea <b_utf8_onebyone+0x98>
   111fa:	0685                	addi	a3,a3,1
   111fc:	08060613          	addi	a2,a2,128
   11200:	fea692e3          	bne	a3,a0,111e4 <b_utf8_onebyone+0x92>
   11204:	6785                	lui	a5,0x1
   11206:	e8078793          	addi	a5,a5,-384 # e80 <main-0xf268>
   1120a:	97a2                	add	a5,a5,s0
   1120c:	0e100593          	li	a1,225
   11210:	0c000813          	li	a6,192
   11214:	688d                	lui	a7,0x3
   11216:	0ed00313          	li	t1,237
   1121a:	853e                	mv	a0,a5
   1121c:	08000613          	li	a2,128
   11220:	a005                	j	11240 <b_utf8_onebyone+0xee>
   11222:	00e68123          	sb	a4,2(a3)
   11226:	00b68023          	sb	a1,0(a3)
   1122a:	00c680a3          	sb	a2,1(a3)
   1122e:	0705                	addi	a4,a4,1
   11230:	068d                	addi	a3,a3,3
   11232:	ff0718e3          	bne	a4,a6,11222 <b_utf8_onebyone+0xd0>
   11236:	0605                	addi	a2,a2,1
   11238:	0c050513          	addi	a0,a0,192
   1123c:	00e60663          	beq	a2,a4,11248 <b_utf8_onebyone+0xf6>
   11240:	86aa                	mv	a3,a0
   11242:	08000713          	li	a4,128
   11246:	bff1                	j	11222 <b_utf8_onebyone+0xd0>
   11248:	0585                	addi	a1,a1,1
   1124a:	97c6                	add	a5,a5,a7
   1124c:	fc6597e3          	bne	a1,t1,1121a <b_utf8_onebyone+0xc8>
   11250:	000257b7          	lui	a5,0x25
   11254:	e8078793          	addi	a5,a5,-384 # 24e80 <builtin_tls+0x118>
   11258:	97a2                	add	a5,a5,s0
   1125a:	0f100593          	li	a1,241
   1125e:	f8000813          	li	a6,-128
   11262:	0c000893          	li	a7,192
   11266:	6311                	lui	t1,0x4
   11268:	0f400e13          	li	t3,244
   1126c:	853e                	mv	a0,a5
   1126e:	08000613          	li	a2,128
   11272:	a015                	j	11296 <b_utf8_onebyone+0x144>
   11274:	00d701a3          	sb	a3,3(a4)
   11278:	00b70023          	sb	a1,0(a4)
   1127c:	00c700a3          	sb	a2,1(a4)
   11280:	01070123          	sb	a6,2(a4)
   11284:	0685                	addi	a3,a3,1
   11286:	0711                	addi	a4,a4,4
   11288:	ff1696e3          	bne	a3,a7,11274 <b_utf8_onebyone+0x122>
   1128c:	0605                	addi	a2,a2,1
   1128e:	10050513          	addi	a0,a0,256
   11292:	00d60663          	beq	a2,a3,1129e <b_utf8_onebyone+0x14c>
   11296:	872a                	mv	a4,a0
   11298:	08000693          	li	a3,128
   1129c:	bfe1                	j	11274 <b_utf8_onebyone+0x122>
   1129e:	0585                	addi	a1,a1,1
   112a0:	979a                	add	a5,a5,t1
   112a2:	fdc595e3          	bne	a1,t3,1126c <b_utf8_onebyone+0x11a>
   112a6:	000317b7          	lui	a5,0x31
   112aa:	97a2                	add	a5,a5,s0
   112ac:	e8078023          	sb	zero,-384(a5) # 30e80 <_end+0xbec8>
   112b0:	03200913          	li	s2,50
   112b4:	4481                	li	s1,0
   112b6:	a039                	j	112c4 <b_utf8_onebyone+0x172>
   112b8:	0034                	addi	a3,sp,8
   112ba:	4611                	li	a2,4
   112bc:	0048                	addi	a0,sp,4
   112be:	5ff000ef          	jal	ra,120bc <mbrtowc>
   112c2:	94aa                	add	s1,s1,a0
   112c4:	009405b3          	add	a1,s0,s1
   112c8:	0005c783          	lbu	a5,0(a1)
   112cc:	f7f5                	bnez	a5,112b8 <b_utf8_onebyone+0x166>
   112ce:	197d                	addi	s2,s2,-1
   112d0:	fe0912e3          	bnez	s2,112b4 <b_utf8_onebyone+0x162>
   112d4:	8522                	mv	a0,s0
   112d6:	73c000ef          	jal	ra,11a12 <free>
   112da:	70a2                	ld	ra,40(sp)
   112dc:	7402                	ld	s0,32(sp)
   112de:	64e2                	ld	s1,24(sp)
   112e0:	6942                	ld	s2,16(sp)
   112e2:	557d                	li	a0,-1
   112e4:	6145                	addi	sp,sp,48
   112e6:	8082                	ret

00000000000112e8 <_init>:
   112e8:	8082                	ret

00000000000112ea <__init_ssp>:
   112ea:	8082                	ret

00000000000112ec <__init_libc>:
   112ec:	7109                	addi	sp,sp,-384
   112ee:	f2ca                	sd	s2,352(sp)
   112f0:	03010913          	addi	s2,sp,48
   112f4:	faa2                	sd	s0,368(sp)
   112f6:	f6a6                	sd	s1,360(sp)
   112f8:	842e                	mv	s0,a1
   112fa:	84aa                	mv	s1,a0
   112fc:	13000613          	li	a2,304
   11300:	4581                	li	a1,0
   11302:	854a                	mv	a0,s2
   11304:	fe86                	sd	ra,376(sp)
   11306:	223060ef          	jal	ra,17d28 <memset>
   1130a:	9491b823          	sd	s1,-1712(gp) # 24258 <__environ>
   1130e:	4501                	li	a0,0
   11310:	00351793          	slli	a5,a0,0x3
   11314:	97a6                	add	a5,a5,s1
   11316:	639c                	ld	a5,0(a5)
   11318:	0505                	addi	a0,a0,1
   1131a:	fbfd                	bnez	a5,11310 <__init_libc+0x24>
   1131c:	050e                	slli	a0,a0,0x3
   1131e:	9526                	add	a0,a0,s1
   11320:	63818793          	addi	a5,gp,1592 # 24f40 <__libc>
   11324:	eb88                	sd	a0,16(a5)
   11326:	63818493          	addi	s1,gp,1592 # 24f40 <__libc>
   1132a:	02500713          	li	a4,37
   1132e:	611c                	ld	a5,0(a0)
   11330:	e7cd                	bnez	a5,113da <__init_libc+0xee>
   11332:	774a                	ld	a4,176(sp)
   11334:	62e1b823          	sd	a4,1584(gp) # 24f38 <__hwcap>
   11338:	7752                	ld	a4,304(sp)
   1133a:	6ae1b423          	sd	a4,1704(gp) # 24fb0 <__sysinfo>
   1133e:	7786                	ld	a5,96(sp)
   11340:	fc9c                	sd	a5,56(s1)
   11342:	e419                	bnez	s0,11350 <__init_libc+0x64>
   11344:	7432                	ld	s0,296(sp)
   11346:	e409                	bnez	s0,11350 <__init_libc+0x64>
   11348:	0001f437          	lui	s0,0x1f
   1134c:	5b040413          	addi	s0,s0,1456 # 1f5b0 <__clzdi2+0x3dc>
   11350:	8c81b423          	sd	s0,-1848(gp) # 241d0 <__progname_full>
   11354:	8c81b823          	sd	s0,-1840(gp) # 241d8 <__progname>
   11358:	02f00693          	li	a3,47
   1135c:	0405                	addi	s0,s0,1
   1135e:	fff44703          	lbu	a4,-1(s0)
   11362:	e751                	bnez	a4,113ee <__init_libc+0x102>
   11364:	854a                	mv	a0,s2
   11366:	05a080ef          	jal	ra,193c0 <__init_tls>
   1136a:	756e                	ld	a0,248(sp)
   1136c:	f7fff0ef          	jal	ra,112ea <__init_ssp>
   11370:	672a                	ld	a4,136(sp)
   11372:	67ca                	ld	a5,144(sp)
   11374:	00f71863          	bne	a4,a5,11384 <__init_libc+0x98>
   11378:	676a                	ld	a4,152(sp)
   1137a:	778a                	ld	a5,160(sp)
   1137c:	00f71463          	bne	a4,a5,11384 <__init_libc+0x98>
   11380:	77ae                	ld	a5,232(sp)
   11382:	c3c9                	beqz	a5,11404 <__init_libc+0x118>
   11384:	f002                	sd	zero,32(sp)
   11386:	4785                	li	a5,1
   11388:	f402                	sd	zero,40(sp)
   1138a:	d03e                	sw	a5,32(sp)
   1138c:	4789                	li	a5,2
   1138e:	ec02                	sd	zero,24(sp)
   11390:	d43e                	sw	a5,40(sp)
   11392:	e402                	sd	zero,8(sp)
   11394:	e802                	sd	zero,16(sp)
   11396:	04900893          	li	a7,73
   1139a:	0828                	addi	a0,sp,24
   1139c:	458d                	li	a1,3
   1139e:	0030                	addi	a2,sp,8
   113a0:	4681                	li	a3,0
   113a2:	4721                	li	a4,8
   113a4:	00000073          	ecall
   113a8:	00020737          	lui	a4,0x20
   113ac:	083c                	addi	a5,sp,24
   113ae:	0001f837          	lui	a6,0x1f
   113b2:	0709                	addi	a4,a4,2
   113b4:	0067d683          	lhu	a3,6(a5)
   113b8:	0206f693          	andi	a3,a3,32
   113bc:	ce9d                	beqz	a3,113fa <__init_libc+0x10e>
   113be:	03800893          	li	a7,56
   113c2:	f9c00513          	li	a0,-100
   113c6:	75080593          	addi	a1,a6,1872 # 1f750 <__clzdi2+0x57c>
   113ca:	863a                	mv	a2,a4
   113cc:	00000073          	ecall
   113d0:	02055563          	bgez	a0,113fa <__init_libc+0x10e>
   113d4:	00000023          	sb	zero,0(zero) # 0 <main-0x100e8>
   113d8:	9002                	ebreak
   113da:	00f76863          	bltu	a4,a5,113ea <__init_libc+0xfe>
   113de:	1294                	addi	a3,sp,352
   113e0:	078e                	slli	a5,a5,0x3
   113e2:	97b6                	add	a5,a5,a3
   113e4:	6514                	ld	a3,8(a0)
   113e6:	ecd7b823          	sd	a3,-304(a5)
   113ea:	0541                	addi	a0,a0,16
   113ec:	b789                	j	1132e <__init_libc+0x42>
   113ee:	00d71463          	bne	a4,a3,113f6 <__init_libc+0x10a>
   113f2:	8c81b823          	sd	s0,-1840(gp) # 241d8 <__progname>
   113f6:	0405                	addi	s0,s0,1
   113f8:	b79d                	j	1135e <__init_libc+0x72>
   113fa:	07a1                	addi	a5,a5,8
   113fc:	faf91ce3          	bne	s2,a5,113b4 <__init_libc+0xc8>
   11400:	4785                	li	a5,1
   11402:	c49c                	sw	a5,8(s1)
   11404:	70f6                	ld	ra,376(sp)
   11406:	7456                	ld	s0,368(sp)
   11408:	74b6                	ld	s1,360(sp)
   1140a:	7916                	ld	s2,352(sp)
   1140c:	6119                	addi	sp,sp,384
   1140e:	8082                	ret

0000000000011410 <__libc_start_init>:
   11410:	1101                	addi	sp,sp,-32
   11412:	e822                	sd	s0,16(sp)
   11414:	e426                	sd	s1,8(sp)
   11416:	00024437          	lui	s0,0x24
   1141a:	000244b7          	lui	s1,0x24
   1141e:	ec06                	sd	ra,24(sp)
   11420:	ff040413          	addi	s0,s0,-16 # 23ff0 <__frame_dummy_init_array_entry>
   11424:	ec5ff0ef          	jal	ra,112e8 <_init>
   11428:	ff848493          	addi	s1,s1,-8 # 23ff8 <__do_global_dtors_aux_fini_array_entry>
   1142c:	00946763          	bltu	s0,s1,1143a <__libc_start_init+0x2a>
   11430:	60e2                	ld	ra,24(sp)
   11432:	6442                	ld	s0,16(sp)
   11434:	64a2                	ld	s1,8(sp)
   11436:	6105                	addi	sp,sp,32
   11438:	8082                	ret
   1143a:	601c                	ld	a5,0(s0)
   1143c:	0421                	addi	s0,s0,8
   1143e:	9782                	jalr	a5
   11440:	b7f5                	j	1142c <__libc_start_init+0x1c>

0000000000011442 <__libc_start_main>:
   11442:	7179                	addi	sp,sp,-48
   11444:	f022                	sd	s0,32(sp)
   11446:	8432                	mv	s0,a2
   11448:	00158613          	addi	a2,a1,1
   1144c:	ec26                	sd	s1,24(sp)
   1144e:	060e                	slli	a2,a2,0x3
   11450:	84ae                	mv	s1,a1
   11452:	600c                	ld	a1,0(s0)
   11454:	9622                	add	a2,a2,s0
   11456:	e84a                	sd	s2,16(sp)
   11458:	892a                	mv	s2,a0
   1145a:	8532                	mv	a0,a2
   1145c:	f406                	sd	ra,40(sp)
   1145e:	e432                	sd	a2,8(sp)
   11460:	e8dff0ef          	jal	ra,112ec <__init_libc>
   11464:	fadff0ef          	jal	ra,11410 <__libc_start_init>
   11468:	6622                	ld	a2,8(sp)
   1146a:	85a2                	mv	a1,s0
   1146c:	8526                	mv	a0,s1
   1146e:	9902                	jalr	s2
   11470:	036000ef          	jal	ra,114a6 <exit>

0000000000011474 <__funcs_on_exit>:
   11474:	8082                	ret

0000000000011476 <__libc_exit_fini>:
   11476:	1101                	addi	sp,sp,-32
   11478:	e822                	sd	s0,16(sp)
   1147a:	e426                	sd	s1,8(sp)
   1147c:	00024437          	lui	s0,0x24
   11480:	000244b7          	lui	s1,0x24
   11484:	ec06                	sd	ra,24(sp)
   11486:	00040413          	mv	s0,s0
   1148a:	ff848493          	addi	s1,s1,-8 # 23ff8 <__do_global_dtors_aux_fini_array_entry>
   1148e:	0084e863          	bltu	s1,s0,1149e <__libc_exit_fini+0x28>
   11492:	6442                	ld	s0,16(sp)
   11494:	60e2                	ld	ra,24(sp)
   11496:	64a2                	ld	s1,8(sp)
   11498:	6105                	addi	sp,sp,32
   1149a:	fdbff06f          	j	11474 <__funcs_on_exit>
   1149e:	1461                	addi	s0,s0,-8
   114a0:	601c                	ld	a5,0(s0)
   114a2:	9782                	jalr	a5
   114a4:	b7ed                	j	1148e <__libc_exit_fini+0x18>

00000000000114a6 <exit>:
   114a6:	1101                	addi	sp,sp,-32
   114a8:	e42a                	sd	a0,8(sp)
   114aa:	ec06                	sd	ra,24(sp)
   114ac:	fc9ff0ef          	jal	ra,11474 <__funcs_on_exit>
   114b0:	fc7ff0ef          	jal	ra,11476 <__libc_exit_fini>
   114b4:	5dc0b0ef          	jal	ra,1ca90 <__stdio_exit>
   114b8:	6522                	ld	a0,8(sp)
   114ba:	03a080ef          	jal	ra,194f4 <_Exit>

00000000000114be <__nl_langinfo_l>:
   114be:	6741                	lui	a4,0x10
   114c0:	fff70613          	addi	a2,a4,-1 # ffff <main-0xe9>
   114c4:	4839                	li	a6,14
   114c6:	41055793          	srai	a5,a0,0x10
   114ca:	00c576b3          	and	a3,a0,a2
   114ce:	01051c63          	bne	a0,a6,114e6 <__nl_langinfo_l+0x28>
   114d2:	8792                	mv	a5,tp
   114d4:	fc07b783          	ld	a5,-64(a5)
   114d8:	639c                	ld	a5,0(a5)
   114da:	c3d9                	beqz	a5,11560 <__nl_langinfo_l+0xa2>
   114dc:	0001f537          	lui	a0,0x1f
   114e0:	74850513          	addi	a0,a0,1864 # 1f748 <__clzdi2+0x574>
   114e4:	8082                	ret
   114e6:	00c69c63          	bne	a3,a2,114fe <__nl_langinfo_l+0x40>
   114ea:	4715                	li	a4,5
   114ec:	08f74463          	blt	a4,a5,11574 <__nl_langinfo_l+0xb6>
   114f0:	078e                	slli	a5,a5,0x3
   114f2:	97ae                	add	a5,a5,a1
   114f4:	6398                	ld	a4,0(a5)
   114f6:	cb35                	beqz	a4,1156a <__nl_langinfo_l+0xac>
   114f8:	6388                	ld	a0,0(a5)
   114fa:	0541                	addi	a0,a0,16
   114fc:	8082                	ret
   114fe:	4609                	li	a2,2
   11500:	02c78963          	beq	a5,a2,11532 <__nl_langinfo_l+0x74>
   11504:	4615                	li	a2,5
   11506:	02c78f63          	beq	a5,a2,11544 <__nl_langinfo_l+0x86>
   1150a:	4605                	li	a2,1
   1150c:	06c79463          	bne	a5,a2,11574 <__nl_langinfo_l+0xb6>
   11510:	1779                	addi	a4,a4,-2
   11512:	8d79                	and	a0,a0,a4
   11514:	e125                	bnez	a0,11574 <__nl_langinfo_l+0xb6>
   11516:	87818513          	addi	a0,gp,-1928 # 24180 <c_numeric>
   1151a:	ee8d                	bnez	a3,11554 <__nl_langinfo_l+0x96>
   1151c:	4705                	li	a4,1
   1151e:	04e78f63          	beq	a5,a4,1157c <__nl_langinfo_l+0xbe>
   11522:	00054703          	lbu	a4,0(a0)
   11526:	cb39                	beqz	a4,1157c <__nl_langinfo_l+0xbe>
   11528:	078e                	slli	a5,a5,0x3
   1152a:	97ae                	add	a5,a5,a1
   1152c:	638c                	ld	a1,0(a5)
   1152e:	0160806f          	j	19544 <__lctrans>
   11532:	03100713          	li	a4,49
   11536:	02d74f63          	blt	a4,a3,11574 <__nl_langinfo_l+0xb6>
   1153a:	0001f537          	lui	a0,0x1f
   1153e:	76050513          	addi	a0,a0,1888 # 1f760 <c_time>
   11542:	bfe1                	j	1151a <__nl_langinfo_l+0x5c>
   11544:	1771                	addi	a4,a4,-4
   11546:	8d79                	and	a0,a0,a4
   11548:	e515                	bnez	a0,11574 <__nl_langinfo_l+0xb6>
   1154a:	00020537          	lui	a0,0x20
   1154e:	8a050513          	addi	a0,a0,-1888 # 1f8a0 <c_messages>
   11552:	b7e1                	j	1151a <__nl_langinfo_l+0x5c>
   11554:	00054703          	lbu	a4,0(a0)
   11558:	0505                	addi	a0,a0,1
   1155a:	ff6d                	bnez	a4,11554 <__nl_langinfo_l+0x96>
   1155c:	36fd                	addiw	a3,a3,-1
   1155e:	bf75                	j	1151a <__nl_langinfo_l+0x5c>
   11560:	00020537          	lui	a0,0x20
   11564:	8c050513          	addi	a0,a0,-1856 # 1f8c0 <c_messages+0x20>
   11568:	8082                	ret
   1156a:	00020537          	lui	a0,0x20
   1156e:	8b850513          	addi	a0,a0,-1864 # 1f8b8 <c_messages+0x18>
   11572:	8082                	ret
   11574:	0001f537          	lui	a0,0x1f
   11578:	5b050513          	addi	a0,a0,1456 # 1f5b0 <__clzdi2+0x3dc>
   1157c:	8082                	ret

000000000001157e <__nl_langinfo>:
   1157e:	8792                	mv	a5,tp
   11580:	fc07b583          	ld	a1,-64(a5)
   11584:	f3bff06f          	j	114be <__nl_langinfo_l>

0000000000011588 <setlocale>:
   11588:	7119                	addi	sp,sp,-128
   1158a:	f8a2                	sd	s0,112(sp)
   1158c:	fc86                	sd	ra,120(sp)
   1158e:	f4a6                	sd	s1,104(sp)
   11590:	f0ca                	sd	s2,96(sp)
   11592:	ecce                	sd	s3,88(sp)
   11594:	e8d2                	sd	s4,80(sp)
   11596:	e4d6                	sd	s5,72(sp)
   11598:	e0da                	sd	s6,64(sp)
   1159a:	fc5e                	sd	s7,56(sp)
   1159c:	f862                	sd	s8,48(sp)
   1159e:	f466                	sd	s9,40(sp)
   115a0:	f06a                	sd	s10,32(sp)
   115a2:	4419                	li	s0,6
   115a4:	12a46b63          	bltu	s0,a0,116da <setlocale+0x152>
   115a8:	8a2a                	mv	s4,a0
   115aa:	8d818513          	addi	a0,gp,-1832 # 241e0 <lock.2649>
   115ae:	892e                	mv	s2,a1
   115b0:	63818493          	addi	s1,gp,1592 # 24f40 <__libc>
   115b4:	56d060ef          	jal	ra,18320 <__lock>
   115b8:	0e8a1663          	bne	s4,s0,116a4 <setlocale+0x11c>
   115bc:	06090063          	beqz	s2,1161c <setlocale+0x94>
   115c0:	000207b7          	lui	a5,0x20
   115c4:	8c87b783          	ld	a5,-1848(a5) # 1f8c8 <c_messages+0x28>
   115c8:	e802                	sd	zero,16(sp)
   115ca:	ec02                	sd	zero,24(sp)
   115cc:	e43e                	sd	a5,8(sp)
   115ce:	4401                	li	s0,0
   115d0:	4bdd                	li	s7,23
   115d2:	4b19                	li	s6,6
   115d4:	03b00593          	li	a1,59
   115d8:	854a                	mv	a0,s2
   115da:	031060ef          	jal	ra,17e0a <__strchrnul>
   115de:	41250a33          	sub	s4,a0,s2
   115e2:	8aaa                	mv	s5,a0
   115e4:	034bc063          	blt	s7,s4,11604 <setlocale+0x7c>
   115e8:	8652                	mv	a2,s4
   115ea:	85ca                	mv	a1,s2
   115ec:	0028                	addi	a0,sp,8
   115ee:	3be060ef          	jal	ra,179ac <memcpy>
   115f2:	101c                	addi	a5,sp,32
   115f4:	9a3e                	add	s4,s4,a5
   115f6:	fe0a0423          	sb	zero,-24(s4)
   115fa:	000ac783          	lbu	a5,0(s5) # 1f000 <__trunctfdf2+0x5a>
   115fe:	c399                	beqz	a5,11604 <setlocale+0x7c>
   11600:	001a8913          	addi	s2,s5,1
   11604:	8522                	mv	a0,s0
   11606:	002c                	addi	a1,sp,8
   11608:	771070ef          	jal	ra,19578 <__get_locale>
   1160c:	00840793          	addi	a5,s0,8 # 24008 <f+0x8>
   11610:	078e                	slli	a5,a5,0x3
   11612:	97a6                	add	a5,a5,s1
   11614:	e388                	sd	a0,0(a5)
   11616:	2405                	addiw	s0,s0,1
   11618:	fb641ee3          	bne	s0,s6,115d4 <setlocale+0x4c>
   1161c:	00020c37          	lui	s8,0x20
   11620:	9b818a13          	addi	s4,gp,-1608 # 242c0 <buf>
   11624:	4b81                	li	s7,0
   11626:	4901                	li	s2,0
   11628:	9b818b13          	addi	s6,gp,-1608 # 242c0 <buf>
   1162c:	8b8c0c13          	addi	s8,s8,-1864 # 1f8b8 <c_messages+0x18>
   11630:	03b00d13          	li	s10,59
   11634:	4c99                	li	s9,6
   11636:	00890793          	addi	a5,s2,8
   1163a:	078e                	slli	a5,a5,0x3
   1163c:	97a6                	add	a5,a5,s1
   1163e:	639c                	ld	a5,0(a5)
   11640:	60b8                	ld	a4,64(s1)
   11642:	00f71363          	bne	a4,a5,11648 <setlocale+0xc0>
   11646:	2b85                	addiw	s7,s7,1
   11648:	8462                	mv	s0,s8
   1164a:	c399                	beqz	a5,11650 <setlocale+0xc8>
   1164c:	01078413          	addi	s0,a5,16
   11650:	8522                	mv	a0,s0
   11652:	053060ef          	jal	ra,17ea4 <strlen>
   11656:	8aaa                	mv	s5,a0
   11658:	862a                	mv	a2,a0
   1165a:	85a2                	mv	a1,s0
   1165c:	8552                	mv	a0,s4
   1165e:	34e060ef          	jal	ra,179ac <memcpy>
   11662:	015a07b3          	add	a5,s4,s5
   11666:	01a78023          	sb	s10,0(a5)
   1166a:	0a85                	addi	s5,s5,1
   1166c:	2905                	addiw	s2,s2,1
   1166e:	9a56                	add	s4,s4,s5
   11670:	fd9913e3          	bne	s2,s9,11636 <setlocale+0xae>
   11674:	fe0a0fa3          	sb	zero,-1(s4)
   11678:	8d818513          	addi	a0,gp,-1832 # 241e0 <lock.2649>
   1167c:	4ed060ef          	jal	ra,18368 <__unlock>
   11680:	012b8363          	beq	s7,s2,11686 <setlocale+0xfe>
   11684:	845a                	mv	s0,s6
   11686:	8522                	mv	a0,s0
   11688:	70e6                	ld	ra,120(sp)
   1168a:	7446                	ld	s0,112(sp)
   1168c:	74a6                	ld	s1,104(sp)
   1168e:	7906                	ld	s2,96(sp)
   11690:	69e6                	ld	s3,88(sp)
   11692:	6a46                	ld	s4,80(sp)
   11694:	6aa6                	ld	s5,72(sp)
   11696:	6b06                	ld	s6,64(sp)
   11698:	7be2                	ld	s7,56(sp)
   1169a:	7c42                	ld	s8,48(sp)
   1169c:	7ca2                	ld	s9,40(sp)
   1169e:	7d02                	ld	s10,32(sp)
   116a0:	6109                	addi	sp,sp,128
   116a2:	8082                	ret
   116a4:	008a0413          	addi	s0,s4,8
   116a8:	02090563          	beqz	s2,116d2 <setlocale+0x14a>
   116ac:	85ca                	mv	a1,s2
   116ae:	8552                	mv	a0,s4
   116b0:	040e                	slli	s0,s0,0x3
   116b2:	6c7070ef          	jal	ra,19578 <__get_locale>
   116b6:	94a2                	add	s1,s1,s0
   116b8:	e088                	sd	a0,0(s1)
   116ba:	01050413          	addi	s0,a0,16
   116be:	e509                	bnez	a0,116c8 <setlocale+0x140>
   116c0:	00020437          	lui	s0,0x20
   116c4:	8b840413          	addi	s0,s0,-1864 # 1f8b8 <c_messages+0x18>
   116c8:	8d818513          	addi	a0,gp,-1832 # 241e0 <lock.2649>
   116cc:	49d060ef          	jal	ra,18368 <__unlock>
   116d0:	bf5d                	j	11686 <setlocale+0xfe>
   116d2:	040e                	slli	s0,s0,0x3
   116d4:	9426                	add	s0,s0,s1
   116d6:	6008                	ld	a0,0(s0)
   116d8:	b7cd                	j	116ba <setlocale+0x132>
   116da:	4401                	li	s0,0
   116dc:	b76d                	j	11686 <setlocale+0xfe>

00000000000116de <__simple_malloc>:
   116de:	7139                	addi	sp,sp,-64
   116e0:	f822                	sd	s0,48(sp)
   116e2:	fc06                	sd	ra,56(sp)
   116e4:	f426                	sd	s1,40(sp)
   116e6:	f04a                	sd	s2,32(sp)
   116e8:	ec4e                	sd	s3,24(sp)
   116ea:	e852                	sd	s4,16(sp)
   116ec:	4405                	li	s0,1
   116ee:	c111                	beqz	a0,116f2 <__simple_malloc+0x14>
   116f0:	842a                	mv	s0,a0
   116f2:	4795                	li	a5,5
   116f4:	4985                	li	s3,1
   116f6:	a021                	j	116fe <__simple_malloc+0x20>
   116f8:	37fd                	addiw	a5,a5,-1
   116fa:	c781                	beqz	a5,11702 <__simple_malloc+0x24>
   116fc:	0986                	slli	s3,s3,0x1
   116fe:	fe89ede3          	bltu	s3,s0,116f8 <__simple_malloc+0x1a>
   11702:	8f018513          	addi	a0,gp,-1808 # 241f8 <lock.1490>
   11706:	41b060ef          	jal	ra,18320 <__lock>
   1170a:	8e81b703          	ld	a4,-1816(gp) # 241f0 <cur.1488>
   1170e:	57fd                	li	a5,-1
   11710:	17fe                	slli	a5,a5,0x3f
   11712:	19fd                	addi	s3,s3,-1
   11714:	40e004b3          	neg	s1,a4
   11718:	07bd                	addi	a5,a5,15
   1171a:	0134f4b3          	and	s1,s1,s3
   1171e:	89d2                	mv	s3,s4
   11720:	0287fa63          	bgeu	a5,s0,11754 <__simple_malloc+0x76>
   11724:	8e01b783          	ld	a5,-1824(gp) # 241e8 <end.1489>
   11728:	8f99                	sub	a5,a5,a4
   1172a:	0487f363          	bgeu	a5,s0,11770 <__simple_malloc+0x92>
   1172e:	0028                	addi	a0,sp,8
   11730:	e422                	sd	s0,8(sp)
   11732:	0ba080ef          	jal	ra,197ec <__expand_heap>
   11736:	e10d                	bnez	a0,11758 <__simple_malloc+0x7a>
   11738:	8f018513          	addi	a0,gp,-1808 # 241f8 <lock.1490>
   1173c:	42d060ef          	jal	ra,18368 <__unlock>
   11740:	4481                	li	s1,0
   11742:	70e2                	ld	ra,56(sp)
   11744:	7442                	ld	s0,48(sp)
   11746:	8526                	mv	a0,s1
   11748:	7902                	ld	s2,32(sp)
   1174a:	74a2                	ld	s1,40(sp)
   1174c:	69e2                	ld	s3,24(sp)
   1174e:	6a42                	ld	s4,16(sp)
   11750:	6121                	addi	sp,sp,64
   11752:	8082                	ret
   11754:	9426                	add	s0,s0,s1
   11756:	b7f9                	j	11724 <__simple_malloc+0x46>
   11758:	8e01b783          	ld	a5,-1824(gp) # 241e8 <end.1489>
   1175c:	00a78663          	beq	a5,a0,11768 <__simple_malloc+0x8a>
   11760:	8c05                	sub	s0,s0,s1
   11762:	8ea1b423          	sd	a0,-1816(gp) # 241f0 <cur.1488>
   11766:	4481                	li	s1,0
   11768:	67a2                	ld	a5,8(sp)
   1176a:	953e                	add	a0,a0,a5
   1176c:	8ea1b023          	sd	a0,-1824(gp) # 241e8 <end.1489>
   11770:	8e81b783          	ld	a5,-1816(gp) # 241f0 <cur.1488>
   11774:	8f018513          	addi	a0,gp,-1808 # 241f8 <lock.1490>
   11778:	943e                	add	s0,s0,a5
   1177a:	94be                	add	s1,s1,a5
   1177c:	8e81b423          	sd	s0,-1816(gp) # 241f0 <cur.1488>
   11780:	3e9060ef          	jal	ra,18368 <__unlock>
   11784:	bf7d                	j	11742 <__simple_malloc+0x64>

0000000000011786 <bin_index>:
   11786:	8115                	srli	a0,a0,0x5
   11788:	fff50793          	addi	a5,a0,-1
   1178c:	02000713          	li	a4,32
   11790:	00f76563          	bltu	a4,a5,1179a <bin_index+0x14>
   11794:	0007851b          	sext.w	a0,a5
   11798:	8082                	ret
   1179a:	1ff00713          	li	a4,511
   1179e:	00f76b63          	bltu	a4,a5,117b4 <bin_index+0x2e>
   117a2:	00020537          	lui	a0,0x20
   117a6:	8e050513          	addi	a0,a0,-1824 # 1f8e0 <bin_tab>
   117aa:	838d                	srli	a5,a5,0x3
   117ac:	97aa                	add	a5,a5,a0
   117ae:	ffc7c503          	lbu	a0,-4(a5)
   117b2:	8082                	ret
   117b4:	6709                	lui	a4,0x2
   117b6:	c0070713          	addi	a4,a4,-1024 # 1c00 <main-0xe4e8>
   117ba:	03f00513          	li	a0,63
   117be:	00f76b63          	bltu	a4,a5,117d4 <bin_index+0x4e>
   117c2:	00020537          	lui	a0,0x20
   117c6:	8e050513          	addi	a0,a0,-1824 # 1f8e0 <bin_tab>
   117ca:	839d                	srli	a5,a5,0x7
   117cc:	97aa                	add	a5,a5,a0
   117ce:	ffc7c503          	lbu	a0,-4(a5)
   117d2:	0541                	addi	a0,a0,16
   117d4:	8082                	ret

00000000000117d6 <adjust_size>:
   117d6:	6701b603          	ld	a2,1648(gp) # 24f78 <__libc+0x38>
   117da:	611c                	ld	a5,0(a0)
   117dc:	fbf00713          	li	a4,-65
   117e0:	8305                	srli	a4,a4,0x1
   117e2:	fff78693          	addi	a3,a5,-1
   117e6:	8f11                	sub	a4,a4,a2
   117e8:	02d77263          	bgeu	a4,a3,1180c <adjust_size+0x36>
   117ec:	cb99                	beqz	a5,11802 <adjust_size+0x2c>
   117ee:	1141                	addi	sp,sp,-16
   117f0:	e406                	sd	ra,8(sp)
   117f2:	4b9070ef          	jal	ra,194aa <__errno_location>
   117f6:	60a2                	ld	ra,8(sp)
   117f8:	47b1                	li	a5,12
   117fa:	c11c                	sw	a5,0(a0)
   117fc:	557d                	li	a0,-1
   117fe:	0141                	addi	sp,sp,16
   11800:	8082                	ret
   11802:	02000793          	li	a5,32
   11806:	e11c                	sd	a5,0(a0)
   11808:	4501                	li	a0,0
   1180a:	8082                	ret
   1180c:	02f78793          	addi	a5,a5,47
   11810:	9b81                	andi	a5,a5,-32
   11812:	bfd5                	j	11806 <adjust_size+0x30>

0000000000011814 <lock>:
   11814:	63818793          	addi	a5,gp,1592 # 24f40 <__libc>
   11818:	47dc                	lw	a5,12(a5)
   1181a:	2781                	sext.w	a5,a5
   1181c:	cf9d                	beqz	a5,1185a <lock+0x46>
   1181e:	1101                	addi	sp,sp,-32
   11820:	e822                	sd	s0,16(sp)
   11822:	e426                	sd	s1,8(sp)
   11824:	e04a                	sd	s2,0(sp)
   11826:	ec06                	sd	ra,24(sp)
   11828:	842a                	mv	s0,a0
   1182a:	4485                	li	s1,1
   1182c:	00450913          	addi	s2,a0,4
   11830:	100427af          	lr.w	a5,(s0)
   11834:	2781                	sext.w	a5,a5
   11836:	1894272f          	sc.w	a4,s1,(s0)
   1183a:	2701                	sext.w	a4,a4
   1183c:	fb75                	bnez	a4,11830 <lock+0x1c>
   1183e:	e799                	bnez	a5,1184c <lock+0x38>
   11840:	60e2                	ld	ra,24(sp)
   11842:	6442                	ld	s0,16(sp)
   11844:	64a2                	ld	s1,8(sp)
   11846:	6902                	ld	s2,0(sp)
   11848:	6105                	addi	sp,sp,32
   1184a:	8082                	ret
   1184c:	4685                	li	a3,1
   1184e:	4605                	li	a2,1
   11850:	85ca                	mv	a1,s2
   11852:	8522                	mv	a0,s0
   11854:	357060ef          	jal	ra,183aa <__wait>
   11858:	bfe1                	j	11830 <lock+0x1c>
   1185a:	8082                	ret

000000000001185c <lock_bin>:
   1185c:	1101                	addi	sp,sp,-32
   1185e:	e426                	sd	s1,8(sp)
   11860:	44e1                	li	s1,24
   11862:	029504b3          	mul	s1,a0,s1
   11866:	e822                	sd	s0,16(sp)
   11868:	a4818413          	addi	s0,gp,-1464 # 24350 <mal>
   1186c:	ec06                	sd	ra,24(sp)
   1186e:	00848513          	addi	a0,s1,8
   11872:	9522                	add	a0,a0,s0
   11874:	fa1ff0ef          	jal	ra,11814 <lock>
   11878:	00940533          	add	a0,s0,s1
   1187c:	691c                	ld	a5,16(a0)
   1187e:	e399                	bnez	a5,11884 <lock_bin+0x28>
   11880:	ed08                	sd	a0,24(a0)
   11882:	e908                	sd	a0,16(a0)
   11884:	60e2                	ld	ra,24(sp)
   11886:	6442                	ld	s0,16(sp)
   11888:	64a2                	ld	s1,8(sp)
   1188a:	6105                	addi	sp,sp,32
   1188c:	8082                	ret

000000000001188e <unlock>:
   1188e:	4118                	lw	a4,0(a0)
   11890:	87aa                	mv	a5,a0
   11892:	2701                	sext.w	a4,a4
   11894:	cb0d                	beqz	a4,118c6 <unlock+0x38>
   11896:	0330000f          	fence	rw,rw
   1189a:	00052023          	sw	zero,0(a0)
   1189e:	0330000f          	fence	rw,rw
   118a2:	4158                	lw	a4,4(a0)
   118a4:	2701                	sext.w	a4,a4
   118a6:	c305                	beqz	a4,118c6 <unlock+0x38>
   118a8:	06200893          	li	a7,98
   118ac:	08100593          	li	a1,129
   118b0:	4605                	li	a2,1
   118b2:	00000073          	ecall
   118b6:	fda00713          	li	a4,-38
   118ba:	00e51663          	bne	a0,a4,118c6 <unlock+0x38>
   118be:	853e                	mv	a0,a5
   118c0:	4585                	li	a1,1
   118c2:	00000073          	ecall
   118c6:	8082                	ret

00000000000118c8 <unbin>:
   118c8:	6d18                	ld	a4,24(a0)
   118ca:	691c                	ld	a5,16(a0)
   118cc:	04f71a63          	bne	a4,a5,11920 <unbin+0x58>
   118d0:	4785                	li	a5,1
   118d2:	00b795b3          	sll	a1,a5,a1
   118d6:	fff5c593          	not	a1,a1
   118da:	0005861b          	sext.w	a2,a1
   118de:	57fd                	li	a5,-1
   118e0:	00f60d63          	beq	a2,a5,118fa <unbin+0x32>
   118e4:	a4818713          	addi	a4,gp,-1464 # 24350 <mal>
   118e8:	100727af          	lr.w	a5,(a4)
   118ec:	2781                	sext.w	a5,a5
   118ee:	8ff1                	and	a5,a5,a2
   118f0:	18f726af          	sc.w	a3,a5,(a4)
   118f4:	0006879b          	sext.w	a5,a3
   118f8:	f7f5                	bnez	a5,118e4 <unbin+0x1c>
   118fa:	9581                	srai	a1,a1,0x20
   118fc:	57fd                	li	a5,-1
   118fe:	02f58163          	beq	a1,a5,11920 <unbin+0x58>
   11902:	2581                	sext.w	a1,a1
   11904:	a4818793          	addi	a5,gp,-1464 # 24350 <mal>
   11908:	00478693          	addi	a3,a5,4
   1190c:	1006a72f          	lr.w	a4,(a3)
   11910:	2701                	sext.w	a4,a4
   11912:	8f6d                	and	a4,a4,a1
   11914:	8636                	mv	a2,a3
   11916:	18e626af          	sc.w	a3,a4,(a2)
   1191a:	0006871b          	sext.w	a4,a3
   1191e:	f76d                	bnez	a4,11908 <unbin+0x40>
   11920:	6d18                	ld	a4,24(a0)
   11922:	691c                	ld	a5,16(a0)
   11924:	eb1c                	sd	a5,16(a4)
   11926:	ef98                	sd	a4,24(a5)
   11928:	651c                	ld	a5,8(a0)
   1192a:	0017e713          	ori	a4,a5,1
   1192e:	9bf9                	andi	a5,a5,-2
   11930:	e518                	sd	a4,8(a0)
   11932:	953e                	add	a0,a0,a5
   11934:	611c                	ld	a5,0(a0)
   11936:	0017e793          	ori	a5,a5,1
   1193a:	e11c                	sd	a5,0(a0)
   1193c:	8082                	ret

000000000001193e <alloc_rev>:
   1193e:	7139                	addi	sp,sp,-64
   11940:	ec4e                	sd	s3,24(sp)
   11942:	f04a                	sd	s2,32(sp)
   11944:	e852                	sd	s4,16(sp)
   11946:	fc06                	sd	ra,56(sp)
   11948:	f822                	sd	s0,48(sp)
   1194a:	f426                	sd	s1,40(sp)
   1194c:	892a                	mv	s2,a0
   1194e:	a4818993          	addi	s3,gp,-1464 # 24350 <mal>
   11952:	4a61                	li	s4,24
   11954:	00093483          	ld	s1,0(s2)
   11958:	0014f793          	andi	a5,s1,1
   1195c:	c399                	beqz	a5,11962 <alloc_rev+0x24>
   1195e:	4501                	li	a0,0
   11960:	a80d                	j	11992 <alloc_rev+0x54>
   11962:	8526                	mv	a0,s1
   11964:	e23ff0ef          	jal	ra,11786 <bin_index>
   11968:	e42a                	sd	a0,8(sp)
   1196a:	ef3ff0ef          	jal	ra,1185c <lock_bin>
   1196e:	65a2                	ld	a1,8(sp)
   11970:	00093503          	ld	a0,0(s2)
   11974:	03458433          	mul	s0,a1,s4
   11978:	0421                	addi	s0,s0,8
   1197a:	944e                	add	s0,s0,s3
   1197c:	02951363          	bne	a0,s1,119a2 <alloc_rev+0x64>
   11980:	9979                	andi	a0,a0,-2
   11982:	40a90533          	sub	a0,s2,a0
   11986:	f43ff0ef          	jal	ra,118c8 <unbin>
   1198a:	8522                	mv	a0,s0
   1198c:	f03ff0ef          	jal	ra,1188e <unlock>
   11990:	4505                	li	a0,1
   11992:	70e2                	ld	ra,56(sp)
   11994:	7442                	ld	s0,48(sp)
   11996:	74a2                	ld	s1,40(sp)
   11998:	7902                	ld	s2,32(sp)
   1199a:	69e2                	ld	s3,24(sp)
   1199c:	6a42                	ld	s4,16(sp)
   1199e:	6121                	addi	sp,sp,64
   119a0:	8082                	ret
   119a2:	8522                	mv	a0,s0
   119a4:	eebff0ef          	jal	ra,1188e <unlock>
   119a8:	b775                	j	11954 <alloc_rev+0x16>

00000000000119aa <alloc_fwd>:
   119aa:	7139                	addi	sp,sp,-64
   119ac:	ec4e                	sd	s3,24(sp)
   119ae:	f04a                	sd	s2,32(sp)
   119b0:	e852                	sd	s4,16(sp)
   119b2:	fc06                	sd	ra,56(sp)
   119b4:	f822                	sd	s0,48(sp)
   119b6:	f426                	sd	s1,40(sp)
   119b8:	892a                	mv	s2,a0
   119ba:	a4818993          	addi	s3,gp,-1464 # 24350 <mal>
   119be:	4a61                	li	s4,24
   119c0:	00893483          	ld	s1,8(s2)
   119c4:	0014f793          	andi	a5,s1,1
   119c8:	c399                	beqz	a5,119ce <alloc_fwd+0x24>
   119ca:	4501                	li	a0,0
   119cc:	a03d                	j	119fa <alloc_fwd+0x50>
   119ce:	8526                	mv	a0,s1
   119d0:	db7ff0ef          	jal	ra,11786 <bin_index>
   119d4:	e42a                	sd	a0,8(sp)
   119d6:	e87ff0ef          	jal	ra,1185c <lock_bin>
   119da:	65a2                	ld	a1,8(sp)
   119dc:	00893783          	ld	a5,8(s2)
   119e0:	03458433          	mul	s0,a1,s4
   119e4:	0421                	addi	s0,s0,8
   119e6:	944e                	add	s0,s0,s3
   119e8:	02979163          	bne	a5,s1,11a0a <alloc_fwd+0x60>
   119ec:	854a                	mv	a0,s2
   119ee:	edbff0ef          	jal	ra,118c8 <unbin>
   119f2:	8522                	mv	a0,s0
   119f4:	e9bff0ef          	jal	ra,1188e <unlock>
   119f8:	4505                	li	a0,1
   119fa:	70e2                	ld	ra,56(sp)
   119fc:	7442                	ld	s0,48(sp)
   119fe:	74a2                	ld	s1,40(sp)
   11a00:	7902                	ld	s2,32(sp)
   11a02:	69e2                	ld	s3,24(sp)
   11a04:	6a42                	ld	s4,16(sp)
   11a06:	6121                	addi	sp,sp,64
   11a08:	8082                	ret
   11a0a:	8522                	mv	a0,s0
   11a0c:	e83ff0ef          	jal	ra,1188e <unlock>
   11a10:	bf45                	j	119c0 <alloc_fwd+0x16>

0000000000011a12 <free>:
   11a12:	1c050963          	beqz	a0,11be4 <free+0x1d2>
   11a16:	ff853783          	ld	a5,-8(a0)
   11a1a:	7159                	addi	sp,sp,-112
   11a1c:	f0a2                	sd	s0,96(sp)
   11a1e:	f45e                	sd	s7,40(sp)
   11a20:	f486                	sd	ra,104(sp)
   11a22:	eca6                	sd	s1,88(sp)
   11a24:	e8ca                	sd	s2,80(sp)
   11a26:	e4ce                	sd	s3,72(sp)
   11a28:	e0d2                	sd	s4,64(sp)
   11a2a:	fc56                	sd	s5,56(sp)
   11a2c:	f85a                	sd	s6,48(sp)
   11a2e:	f062                	sd	s8,32(sp)
   11a30:	ec66                	sd	s9,24(sp)
   11a32:	e86a                	sd	s10,16(sp)
   11a34:	e46e                	sd	s11,8(sp)
   11a36:	0017f713          	andi	a4,a5,1
   11a3a:	ff050413          	addi	s0,a0,-16
   11a3e:	ffe7fb93          	andi	s7,a5,-2
   11a42:	ef05                	bnez	a4,11a7a <free+0x68>
   11a44:	ff053783          	ld	a5,-16(a0)
   11a48:	40f40533          	sub	a0,s0,a5
   11a4c:	017785b3          	add	a1,a5,s7
   11a50:	8b85                	andi	a5,a5,1
   11a52:	c781                	beqz	a5,11a5a <free+0x48>
   11a54:	00000023          	sb	zero,0(zero) # 0 <main-0x100e8>
   11a58:	9002                	ebreak
   11a5a:	7406                	ld	s0,96(sp)
   11a5c:	70a6                	ld	ra,104(sp)
   11a5e:	64e6                	ld	s1,88(sp)
   11a60:	6946                	ld	s2,80(sp)
   11a62:	69a6                	ld	s3,72(sp)
   11a64:	6a06                	ld	s4,64(sp)
   11a66:	7ae2                	ld	s5,56(sp)
   11a68:	7b42                	ld	s6,48(sp)
   11a6a:	7ba2                	ld	s7,40(sp)
   11a6c:	7c02                	ld	s8,32(sp)
   11a6e:	6ce2                	ld	s9,24(sp)
   11a70:	6d42                	ld	s10,16(sp)
   11a72:	6da2                	ld	s11,8(sp)
   11a74:	6165                	addi	sp,sp,112
   11a76:	6220006f          	j	12098 <__munmap>
   11a7a:	01740933          	add	s2,s0,s7
   11a7e:	00093703          	ld	a4,0(s2)
   11a82:	00e78563          	beq	a5,a4,11a8c <free+0x7a>
   11a86:	00000023          	sb	zero,0(zero) # 0 <main-0x100e8>
   11a8a:	9002                	ebreak
   11a8c:	a4818493          	addi	s1,gp,-1464 # 24350 <mal>
   11a90:	8a5e                	mv	s4,s7
   11a92:	4a81                	li	s5,0
   11a94:	60848c13          	addi	s8,s1,1544
   11a98:	4d61                	li	s10,24
   11a9a:	00028cb7          	lui	s9,0x28
   11a9e:	601c                	ld	a5,0(s0)
   11aa0:	00893703          	ld	a4,8(s2)
   11aa4:	8ff9                	and	a5,a5,a4
   11aa6:	8b85                	andi	a5,a5,1
   11aa8:	c3a1                	beqz	a5,11ae8 <free+0xd6>
   11aaa:	001a6793          	ori	a5,s4,1
   11aae:	e41c                	sd	a5,8(s0)
   11ab0:	00f93023          	sd	a5,0(s2)
   11ab4:	8552                	mv	a0,s4
   11ab6:	cd1ff0ef          	jal	ra,11786 <bin_index>
   11aba:	8b2a                	mv	s6,a0
   11abc:	03ab0db3          	mul	s11,s6,s10
   11ac0:	d9dff0ef          	jal	ra,1185c <lock_bin>
   11ac4:	8562                	mv	a0,s8
   11ac6:	d4fff0ef          	jal	ra,11814 <lock>
   11aca:	601c                	ld	a5,0(s0)
   11acc:	00893703          	ld	a4,8(s2)
   11ad0:	8ff9                	and	a5,a5,a4
   11ad2:	8b85                	andi	a5,a5,1
   11ad4:	008d8993          	addi	s3,s11,8
   11ad8:	99a6                	add	s3,s3,s1
   11ada:	ebb9                	bnez	a5,11b30 <free+0x11e>
   11adc:	8562                	mv	a0,s8
   11ade:	db1ff0ef          	jal	ra,1188e <unlock>
   11ae2:	854e                	mv	a0,s3
   11ae4:	dabff0ef          	jal	ra,1188e <unlock>
   11ae8:	8522                	mv	a0,s0
   11aea:	e55ff0ef          	jal	ra,1193e <alloc_rev>
   11aee:	cd19                	beqz	a0,11b0c <free+0xfa>
   11af0:	601c                	ld	a5,0(s0)
   11af2:	9bf9                	andi	a5,a5,-2
   11af4:	8c1d                	sub	s0,s0,a5
   11af6:	641c                	ld	a5,8(s0)
   11af8:	9bf9                	andi	a5,a5,-2
   11afa:	01778733          	add	a4,a5,s7
   11afe:	9a3e                	add	s4,s4,a5
   11b00:	00ecf663          	bgeu	s9,a4,11b0c <free+0xfa>
   11b04:	8f3d                	xor	a4,a4,a5
   11b06:	00e7f363          	bgeu	a5,a4,11b0c <free+0xfa>
   11b0a:	4a85                	li	s5,1
   11b0c:	854a                	mv	a0,s2
   11b0e:	e9dff0ef          	jal	ra,119aa <alloc_fwd>
   11b12:	d551                	beqz	a0,11a9e <free+0x8c>
   11b14:	00893783          	ld	a5,8(s2)
   11b18:	9bf9                	andi	a5,a5,-2
   11b1a:	01778733          	add	a4,a5,s7
   11b1e:	9a3e                	add	s4,s4,a5
   11b20:	00ecf663          	bgeu	s9,a4,11b2c <free+0x11a>
   11b24:	8f3d                	xor	a4,a4,a5
   11b26:	00e7f363          	bgeu	a5,a4,11b2c <free+0x11a>
   11b2a:	4a85                	li	s5,1
   11b2c:	993e                	add	s2,s2,a5
   11b2e:	bf85                	j	11a9e <free+0x8c>
   11b30:	609c                	ld	a5,0(s1)
   11b32:	0167d7b3          	srl	a5,a5,s6
   11b36:	8b85                	andi	a5,a5,1
   11b38:	c7bd                	beqz	a5,11ba6 <free+0x194>
   11b3a:	01443423          	sd	s4,8(s0)
   11b3e:	05018513          	addi	a0,gp,80 # 24958 <__global_pointer$+0x50>
   11b42:	01493023          	sd	s4,0(s2)
   11b46:	d49ff0ef          	jal	ra,1188e <unlock>
   11b4a:	4561                	li	a0,24
   11b4c:	02ab0533          	mul	a0,s6,a0
   11b50:	9da6                	add	s11,s11,s1
   11b52:	01b43823          	sd	s11,16(s0)
   11b56:	94aa                	add	s1,s1,a0
   11b58:	6c9c                	ld	a5,24(s1)
   11b5a:	ec1c                	sd	a5,24(s0)
   11b5c:	008dbc23          	sd	s0,24(s11)
   11b60:	6c1c                	ld	a5,24(s0)
   11b62:	eb80                	sd	s0,16(a5)
   11b64:	020a8063          	beqz	s5,11b84 <free+0x172>
   11b68:	6701b503          	ld	a0,1648(gp) # 24f78 <__libc+0x38>
   11b6c:	1901                	addi	s2,s2,-32
   11b6e:	4611                	li	a2,4
   11b70:	40a005b3          	neg	a1,a0
   11b74:	057d                	addi	a0,a0,31
   11b76:	9522                	add	a0,a0,s0
   11b78:	8d6d                	and	a0,a0,a1
   11b7a:	00b975b3          	and	a1,s2,a1
   11b7e:	8d89                	sub	a1,a1,a0
   11b80:	428000ef          	jal	ra,11fa8 <__madvise>
   11b84:	7406                	ld	s0,96(sp)
   11b86:	70a6                	ld	ra,104(sp)
   11b88:	64e6                	ld	s1,88(sp)
   11b8a:	6946                	ld	s2,80(sp)
   11b8c:	6a06                	ld	s4,64(sp)
   11b8e:	7ae2                	ld	s5,56(sp)
   11b90:	7b42                	ld	s6,48(sp)
   11b92:	7ba2                	ld	s7,40(sp)
   11b94:	7c02                	ld	s8,32(sp)
   11b96:	6ce2                	ld	s9,24(sp)
   11b98:	6d42                	ld	s10,16(sp)
   11b9a:	6da2                	ld	s11,8(sp)
   11b9c:	854e                	mv	a0,s3
   11b9e:	69a6                	ld	s3,72(sp)
   11ba0:	6165                	addi	sp,sp,112
   11ba2:	cedff06f          	j	1188e <unlock>
   11ba6:	4785                	li	a5,1
   11ba8:	016797b3          	sll	a5,a5,s6
   11bac:	0007859b          	sext.w	a1,a5
   11bb0:	e185                	bnez	a1,11bd0 <free+0x1be>
   11bb2:	9781                	srai	a5,a5,0x20
   11bb4:	d3d9                	beqz	a5,11b3a <free+0x128>
   11bb6:	2781                	sext.w	a5,a5
   11bb8:	00448693          	addi	a3,s1,4
   11bbc:	1006a72f          	lr.w	a4,(a3)
   11bc0:	2701                	sext.w	a4,a4
   11bc2:	8f5d                	or	a4,a4,a5
   11bc4:	18e6a62f          	sc.w	a2,a4,(a3)
   11bc8:	0006071b          	sext.w	a4,a2
   11bcc:	f775                	bnez	a4,11bb8 <free+0x1a6>
   11bce:	b7b5                	j	11b3a <free+0x128>
   11bd0:	1004a72f          	lr.w	a4,(s1)
   11bd4:	2701                	sext.w	a4,a4
   11bd6:	8f4d                	or	a4,a4,a1
   11bd8:	18e4a62f          	sc.w	a2,a4,(s1)
   11bdc:	0006071b          	sext.w	a4,a2
   11be0:	fb65                	bnez	a4,11bd0 <free+0x1be>
   11be2:	bfc1                	j	11bb2 <free+0x1a0>
   11be4:	8082                	ret

0000000000011be6 <trim>:
   11be6:	651c                	ld	a5,8(a0)
   11be8:	9bf9                	andi	a5,a5,-2
   11bea:	ff078713          	addi	a4,a5,-16
   11bee:	02e5f363          	bgeu	a1,a4,11c14 <trim+0x2e>
   11bf2:	00b50733          	add	a4,a0,a1
   11bf6:	0015e693          	ori	a3,a1,1
   11bfa:	40b785b3          	sub	a1,a5,a1
   11bfe:	0015e593          	ori	a1,a1,1
   11c02:	e314                	sd	a3,0(a4)
   11c04:	e70c                	sd	a1,8(a4)
   11c06:	97aa                	add	a5,a5,a0
   11c08:	e38c                	sd	a1,0(a5)
   11c0a:	e514                	sd	a3,8(a0)
   11c0c:	01070513          	addi	a0,a4,16
   11c10:	e03ff06f          	j	11a12 <free>
   11c14:	8082                	ret

0000000000011c16 <malloc>:
   11c16:	7159                	addi	sp,sp,-112
   11c18:	e42a                	sd	a0,8(sp)
   11c1a:	0028                	addi	a0,sp,8
   11c1c:	f486                	sd	ra,104(sp)
   11c1e:	f0a2                	sd	s0,96(sp)
   11c20:	eca6                	sd	s1,88(sp)
   11c22:	e8ca                	sd	s2,80(sp)
   11c24:	e4ce                	sd	s3,72(sp)
   11c26:	e0d2                	sd	s4,64(sp)
   11c28:	fc56                	sd	s5,56(sp)
   11c2a:	f85a                	sd	s6,48(sp)
   11c2c:	f45e                	sd	s7,40(sp)
   11c2e:	f062                	sd	s8,32(sp)
   11c30:	ba7ff0ef          	jal	ra,117d6 <adjust_size>
   11c34:	02055063          	bgez	a0,11c54 <malloc+0x3e>
   11c38:	4401                	li	s0,0
   11c3a:	8522                	mv	a0,s0
   11c3c:	70a6                	ld	ra,104(sp)
   11c3e:	7406                	ld	s0,96(sp)
   11c40:	64e6                	ld	s1,88(sp)
   11c42:	6946                	ld	s2,80(sp)
   11c44:	69a6                	ld	s3,72(sp)
   11c46:	6a06                	ld	s4,64(sp)
   11c48:	7ae2                	ld	s5,56(sp)
   11c4a:	7b42                	ld	s6,48(sp)
   11c4c:	7ba2                	ld	s7,40(sp)
   11c4e:	7c02                	ld	s8,32(sp)
   11c50:	6165                	addi	sp,sp,112
   11c52:	8082                	ret
   11c54:	67a2                	ld	a5,8(sp)
   11c56:	00038737          	lui	a4,0x38
   11c5a:	02f77d63          	bgeu	a4,a5,11c94 <malloc+0x7e>
   11c5e:	6701b703          	ld	a4,1648(gp) # 24f78 <__libc+0x38>
   11c62:	02200693          	li	a3,34
   11c66:	460d                	li	a2,3
   11c68:	00e78433          	add	s0,a5,a4
   11c6c:	043d                	addi	s0,s0,15
   11c6e:	40e00733          	neg	a4,a4
   11c72:	8c79                	and	s0,s0,a4
   11c74:	4781                	li	a5,0
   11c76:	577d                	li	a4,-1
   11c78:	85a2                	mv	a1,s0
   11c7a:	4501                	li	a0,0
   11c7c:	346000ef          	jal	ra,11fc2 <__mmap>
   11c80:	57fd                	li	a5,-1
   11c82:	faf50be3          	beq	a0,a5,11c38 <malloc+0x22>
   11c86:	1441                	addi	s0,s0,-16
   11c88:	47c1                	li	a5,16
   11c8a:	ed00                	sd	s0,24(a0)
   11c8c:	e91c                	sd	a5,16(a0)
   11c8e:	02050413          	addi	s0,a0,32
   11c92:	b765                	j	11c3a <malloc+0x24>
   11c94:	8395                	srli	a5,a5,0x5
   11c96:	fff78493          	addi	s1,a5,-1
   11c9a:	02000713          	li	a4,32
   11c9e:	04976963          	bltu	a4,s1,11cf0 <malloc+0xda>
   11ca2:	2481                	sext.w	s1,s1
   11ca4:	000247b7          	lui	a5,0x24
   11ca8:	1087bb03          	ld	s6,264(a5) # 24108 <_GLOBAL_OFFSET_TABLE_+0x10>
   11cac:	59fd                	li	s3,-1
   11cae:	00020a37          	lui	s4,0x20
   11cb2:	009999b3          	sll	s3,s3,s1
   11cb6:	a4818c13          	addi	s8,gp,-1464 # 24350 <mal>
   11cba:	8e0a0a13          	addi	s4,s4,-1824 # 1f8e0 <bin_tab>
   11cbe:	4ae1                	li	s5,24
   11cc0:	000c3783          	ld	a5,0(s8)
   11cc4:	0137f733          	and	a4,a5,s3
   11cc8:	e771                	bnez	a4,11d94 <malloc+0x17e>
   11cca:	67a2                	ld	a5,8(sp)
   11ccc:	90018513          	addi	a0,gp,-1792 # 24208 <heap_lock.3022>
   11cd0:	02078793          	addi	a5,a5,32
   11cd4:	ec3e                	sd	a5,24(sp)
   11cd6:	b3fff0ef          	jal	ra,11814 <lock>
   11cda:	0828                	addi	a0,sp,24
   11cdc:	311070ef          	jal	ra,197ec <__expand_heap>
   11ce0:	842a                	mv	s0,a0
   11ce2:	8526                	mv	a0,s1
   11ce4:	e81d                	bnez	s0,11d1a <malloc+0x104>
   11ce6:	90018513          	addi	a0,gp,-1792 # 24208 <heap_lock.3022>
   11cea:	ba5ff0ef          	jal	ra,1188e <unlock>
   11cee:	b7b1                	j	11c3a <malloc+0x24>
   11cf0:	00020737          	lui	a4,0x20
   11cf4:	17f9                	addi	a5,a5,-2
   11cf6:	1ff00693          	li	a3,511
   11cfa:	8e070713          	addi	a4,a4,-1824 # 1f8e0 <bin_tab>
   11cfe:	00f6e863          	bltu	a3,a5,11d0e <malloc+0xf8>
   11d02:	838d                	srli	a5,a5,0x3
   11d04:	97ba                	add	a5,a5,a4
   11d06:	ffc7c483          	lbu	s1,-4(a5)
   11d0a:	0485                	addi	s1,s1,1
   11d0c:	bf61                	j	11ca4 <malloc+0x8e>
   11d0e:	839d                	srli	a5,a5,0x7
   11d10:	97ba                	add	a5,a5,a4
   11d12:	ffc7c483          	lbu	s1,-4(a5)
   11d16:	04c5                	addi	s1,s1,17
   11d18:	b771                	j	11ca4 <malloc+0x8e>
   11d1a:	8f81b483          	ld	s1,-1800(gp) # 24200 <end.3023>
   11d1e:	873e                	mv	a4,a5
   11d20:	00940963          	beq	s0,s1,11d32 <malloc+0x11c>
   11d24:	67e2                	ld	a5,24(sp)
   11d26:	02040493          	addi	s1,s0,32
   11d2a:	1781                	addi	a5,a5,-32
   11d2c:	ec3e                	sd	a5,24(sp)
   11d2e:	4785                	li	a5,1
   11d30:	e81c                	sd	a5,16(s0)
   11d32:	67e2                	ld	a5,24(sp)
   11d34:	ff048413          	addi	s0,s1,-16
   11d38:	90018513          	addi	a0,gp,-1792 # 24208 <heap_lock.3022>
   11d3c:	00f486b3          	add	a3,s1,a5
   11d40:	8ed1bc23          	sd	a3,-1800(gp) # 24200 <end.3023>
   11d44:	0017e793          	ori	a5,a5,1
   11d48:	4705                	li	a4,1
   11d4a:	fef6b823          	sd	a5,-16(a3)
   11d4e:	fee6bc23          	sd	a4,-8(a3)
   11d52:	fef4bc23          	sd	a5,-8(s1)
   11d56:	b39ff0ef          	jal	ra,1188e <unlock>
   11d5a:	ec040fe3          	beqz	s0,11c38 <malloc+0x22>
   11d5e:	8522                	mv	a0,s0
   11d60:	bdfff0ef          	jal	ra,1193e <alloc_rev>
   11d64:	c115                	beqz	a0,11d88 <malloc+0x172>
   11d66:	ff04b783          	ld	a5,-16(s1)
   11d6a:	ff84b683          	ld	a3,-8(s1)
   11d6e:	9bf9                	andi	a5,a5,-2
   11d70:	40f407b3          	sub	a5,s0,a5
   11d74:	6798                	ld	a4,8(a5)
   11d76:	9b79                	andi	a4,a4,-2
   11d78:	9736                	add	a4,a4,a3
   11d7a:	e798                	sd	a4,8(a5)
   11d7c:	ff84b503          	ld	a0,-8(s1)
   11d80:	9979                	andi	a0,a0,-2
   11d82:	942a                	add	s0,s0,a0
   11d84:	e018                	sd	a4,0(s0)
   11d86:	843e                	mv	s0,a5
   11d88:	65a2                	ld	a1,8(sp)
   11d8a:	8522                	mv	a0,s0
   11d8c:	0441                	addi	s0,s0,16
   11d8e:	e59ff0ef          	jal	ra,11be6 <trim>
   11d92:	b565                	j	11c3a <malloc+0x24>
   11d94:	40e007b3          	neg	a5,a4
   11d98:	8ff9                	and	a5,a5,a4
   11d9a:	036787b3          	mul	a5,a5,s6
   11d9e:	93e9                	srli	a5,a5,0x3a
   11da0:	97d2                	add	a5,a5,s4
   11da2:	0407cb83          	lbu	s7,64(a5)
   11da6:	000b891b          	sext.w	s2,s7
   11daa:	854a                	mv	a0,s2
   11dac:	ab1ff0ef          	jal	ra,1185c <lock_bin>
   11db0:	035907b3          	mul	a5,s2,s5
   11db4:	97e2                	add	a5,a5,s8
   11db6:	6b80                	ld	s0,16(a5)
   11db8:	035b87b3          	mul	a5,s7,s5
   11dbc:	00878b93          	addi	s7,a5,8
   11dc0:	97e2                	add	a5,a5,s8
   11dc2:	9be2                	add	s7,s7,s8
   11dc4:	06f40c63          	beq	s0,a5,11e3c <malloc+0x226>
   11dc8:	02700793          	li	a5,39
   11dcc:	0327d263          	bge	a5,s2,11df0 <malloc+0x1da>
   11dd0:	2489                	addiw	s1,s1,2
   11dd2:	69a2                	ld	s3,8(sp)
   11dd4:	0324c363          	blt	s1,s2,11dfa <malloc+0x1e4>
   11dd8:	03f00793          	li	a5,63
   11ddc:	00f91a63          	bne	s2,a5,11df0 <malloc+0x1da>
   11de0:	6404                	ld	s1,8(s0)
   11de2:	000387b7          	lui	a5,0x38
   11de6:	98f9                	andi	s1,s1,-2
   11de8:	41348733          	sub	a4,s1,s3
   11dec:	00e7e963          	bltu	a5,a4,11dfe <malloc+0x1e8>
   11df0:	85ca                	mv	a1,s2
   11df2:	8522                	mv	a0,s0
   11df4:	ad5ff0ef          	jal	ra,118c8 <unbin>
   11df8:	a835                	j	11e34 <malloc+0x21e>
   11dfa:	6404                	ld	s1,8(s0)
   11dfc:	98f9                	andi	s1,s1,-2
   11dfe:	41348a33          	sub	s4,s1,s3
   11e02:	8552                	mv	a0,s4
   11e04:	983ff0ef          	jal	ra,11786 <bin_index>
   11e08:	fea914e3          	bne	s2,a0,11df0 <malloc+0x1da>
   11e0c:	6c18                	ld	a4,24(s0)
   11e0e:	6814                	ld	a3,16(s0)
   11e10:	013407b3          	add	a5,s0,s3
   11e14:	ef98                	sd	a4,24(a5)
   11e16:	eb94                	sd	a3,16(a5)
   11e18:	eb1c                	sd	a5,16(a4)
   11e1a:	6b98                	ld	a4,16(a5)
   11e1c:	0019e993          	ori	s3,s3,1
   11e20:	94a2                	add	s1,s1,s0
   11e22:	ef1c                	sd	a5,24(a4)
   11e24:	0137b023          	sd	s3,0(a5) # 38000 <_end+0x13048>
   11e28:	0147b423          	sd	s4,8(a5)
   11e2c:	0144b023          	sd	s4,0(s1)
   11e30:	01343423          	sd	s3,8(s0)
   11e34:	855e                	mv	a0,s7
   11e36:	a59ff0ef          	jal	ra,1188e <unlock>
   11e3a:	b7b9                	j	11d88 <malloc+0x172>
   11e3c:	855e                	mv	a0,s7
   11e3e:	a51ff0ef          	jal	ra,1188e <unlock>
   11e42:	bdbd                	j	11cc0 <malloc+0xaa>

0000000000011e44 <__malloc0>:
   11e44:	1141                	addi	sp,sp,-16
   11e46:	e022                	sd	s0,0(sp)
   11e48:	e406                	sd	ra,8(sp)
   11e4a:	842a                	mv	s0,a0
   11e4c:	dcbff0ef          	jal	ra,11c16 <malloc>
   11e50:	c919                	beqz	a0,11e66 <__malloc0+0x22>
   11e52:	ff853783          	ld	a5,-8(a0)
   11e56:	8b85                	andi	a5,a5,1
   11e58:	c799                	beqz	a5,11e66 <__malloc0+0x22>
   11e5a:	041d                	addi	s0,s0,7
   11e5c:	9861                	andi	s0,s0,-8
   11e5e:	942a                	add	s0,s0,a0
   11e60:	87aa                	mv	a5,a0
   11e62:	00879663          	bne	a5,s0,11e6e <__malloc0+0x2a>
   11e66:	60a2                	ld	ra,8(sp)
   11e68:	6402                	ld	s0,0(sp)
   11e6a:	0141                	addi	sp,sp,16
   11e6c:	8082                	ret
   11e6e:	6398                	ld	a4,0(a5)
   11e70:	c319                	beqz	a4,11e76 <__malloc0+0x32>
   11e72:	0007b023          	sd	zero,0(a5)
   11e76:	07a1                	addi	a5,a5,8
   11e78:	b7ed                	j	11e62 <__malloc0+0x1e>

0000000000011e7a <realloc>:
   11e7a:	711d                	addi	sp,sp,-96
   11e7c:	ec86                	sd	ra,88(sp)
   11e7e:	e8a2                	sd	s0,80(sp)
   11e80:	e4a6                	sd	s1,72(sp)
   11e82:	e0ca                	sd	s2,64(sp)
   11e84:	fc4e                	sd	s3,56(sp)
   11e86:	f852                	sd	s4,48(sp)
   11e88:	f456                	sd	s5,40(sp)
   11e8a:	f05a                	sd	s6,32(sp)
   11e8c:	ec5e                	sd	s7,24(sp)
   11e8e:	e42e                	sd	a1,8(sp)
   11e90:	e10d                	bnez	a0,11eb2 <realloc+0x38>
   11e92:	852e                	mv	a0,a1
   11e94:	d83ff0ef          	jal	ra,11c16 <malloc>
   11e98:	842a                	mv	s0,a0
   11e9a:	8522                	mv	a0,s0
   11e9c:	60e6                	ld	ra,88(sp)
   11e9e:	6446                	ld	s0,80(sp)
   11ea0:	64a6                	ld	s1,72(sp)
   11ea2:	6906                	ld	s2,64(sp)
   11ea4:	79e2                	ld	s3,56(sp)
   11ea6:	7a42                	ld	s4,48(sp)
   11ea8:	7aa2                	ld	s5,40(sp)
   11eaa:	7b02                	ld	s6,32(sp)
   11eac:	6be2                	ld	s7,24(sp)
   11eae:	6125                	addi	sp,sp,96
   11eb0:	8082                	ret
   11eb2:	84aa                	mv	s1,a0
   11eb4:	0028                	addi	a0,sp,8
   11eb6:	921ff0ef          	jal	ra,117d6 <adjust_size>
   11eba:	0e054563          	bltz	a0,11fa4 <realloc+0x12a>
   11ebe:	ff84b783          	ld	a5,-8(s1)
   11ec2:	ff048b13          	addi	s6,s1,-16
   11ec6:	0017f713          	andi	a4,a5,1
   11eca:	ffe7f993          	andi	s3,a5,-2
   11ece:	e349                	bnez	a4,11f50 <realloc+0xd6>
   11ed0:	ff04ba03          	ld	s4,-16(s1)
   11ed4:	6522                	ld	a0,8(sp)
   11ed6:	001a7793          	andi	a5,s4,1
   11eda:	014985b3          	add	a1,s3,s4
   11ede:	01450bb3          	add	s7,a0,s4
   11ee2:	c781                	beqz	a5,11eea <realloc+0x70>
   11ee4:	00000023          	sb	zero,0(zero) # 0 <main-0x100e8>
   11ee8:	9002                	ebreak
   11eea:	63818713          	addi	a4,gp,1592 # 24f40 <__libc>
   11eee:	7f18                	ld	a4,56(a4)
   11ef0:	63818a93          	addi	s5,gp,1592 # 24f40 <__libc>
   11ef4:	02ebf163          	bgeu	s7,a4,11f16 <realloc+0x9c>
   11ef8:	e02e                	sd	a1,0(sp)
   11efa:	d1dff0ef          	jal	ra,11c16 <malloc>
   11efe:	842a                	mv	s0,a0
   11f00:	6582                	ld	a1,0(sp)
   11f02:	c911                	beqz	a0,11f16 <realloc+0x9c>
   11f04:	6622                	ld	a2,8(sp)
   11f06:	1641                	addi	a2,a2,-16
   11f08:	85a6                	mv	a1,s1
   11f0a:	2a3050ef          	jal	ra,179ac <memcpy>
   11f0e:	8526                	mv	a0,s1
   11f10:	b03ff0ef          	jal	ra,11a12 <free>
   11f14:	b759                	j	11e9a <realloc+0x20>
   11f16:	038ab783          	ld	a5,56(s5)
   11f1a:	8426                	mv	s0,s1
   11f1c:	fff78913          	addi	s2,a5,-1
   11f20:	995e                	add	s2,s2,s7
   11f22:	40f007b3          	neg	a5,a5
   11f26:	0127f933          	and	s2,a5,s2
   11f2a:	f72588e3          	beq	a1,s2,11e9a <realloc+0x20>
   11f2e:	4685                	li	a3,1
   11f30:	864a                	mv	a2,s2
   11f32:	414b0533          	sub	a0,s6,s4
   11f36:	10c000ef          	jal	ra,12042 <__mremap>
   11f3a:	57fd                	li	a5,-1
   11f3c:	04f50a63          	beq	a0,a5,11f90 <realloc+0x116>
   11f40:	01450433          	add	s0,a0,s4
   11f44:	41490933          	sub	s2,s2,s4
   11f48:	01243423          	sd	s2,8(s0)
   11f4c:	0441                	addi	s0,s0,16
   11f4e:	b7b1                	j	11e9a <realloc+0x20>
   11f50:	013b0433          	add	s0,s6,s3
   11f54:	6018                	ld	a4,0(s0)
   11f56:	f8e797e3          	bne	a5,a4,11ee4 <realloc+0x6a>
   11f5a:	6722                	ld	a4,8(sp)
   11f5c:	87ce                	mv	a5,s3
   11f5e:	00e9fc63          	bgeu	s3,a4,11f76 <realloc+0xfc>
   11f62:	8522                	mv	a0,s0
   11f64:	a47ff0ef          	jal	ra,119aa <alloc_fwd>
   11f68:	87ce                	mv	a5,s3
   11f6a:	c511                	beqz	a0,11f76 <realloc+0xfc>
   11f6c:	6418                	ld	a4,8(s0)
   11f6e:	9b79                	andi	a4,a4,-2
   11f70:	013707b3          	add	a5,a4,s3
   11f74:	943a                	add	s0,s0,a4
   11f76:	0017e713          	ori	a4,a5,1
   11f7a:	65a2                	ld	a1,8(sp)
   11f7c:	fee4bc23          	sd	a4,-8(s1)
   11f80:	e018                	sd	a4,0(s0)
   11f82:	00b7e763          	bltu	a5,a1,11f90 <realloc+0x116>
   11f86:	855a                	mv	a0,s6
   11f88:	c5fff0ef          	jal	ra,11be6 <trim>
   11f8c:	8426                	mv	s0,s1
   11f8e:	b731                	j	11e9a <realloc+0x20>
   11f90:	6522                	ld	a0,8(sp)
   11f92:	1541                	addi	a0,a0,-16
   11f94:	c83ff0ef          	jal	ra,11c16 <malloc>
   11f98:	842a                	mv	s0,a0
   11f9a:	f00500e3          	beqz	a0,11e9a <realloc+0x20>
   11f9e:	ff098613          	addi	a2,s3,-16
   11fa2:	b79d                	j	11f08 <realloc+0x8e>
   11fa4:	4401                	li	s0,0
   11fa6:	bdd5                	j	11e9a <realloc+0x20>

0000000000011fa8 <__madvise>:
   11fa8:	1141                	addi	sp,sp,-16
   11faa:	e406                	sd	ra,8(sp)
   11fac:	0e900893          	li	a7,233
   11fb0:	00000073          	ecall
   11fb4:	56a070ef          	jal	ra,1951e <__syscall_ret>
   11fb8:	60a2                	ld	ra,8(sp)
   11fba:	2501                	sext.w	a0,a0
   11fbc:	0141                	addi	sp,sp,16
   11fbe:	8082                	ret

0000000000011fc0 <dummy>:
   11fc0:	8082                	ret

0000000000011fc2 <__mmap>:
   11fc2:	7139                	addi	sp,sp,-64
   11fc4:	f822                	sd	s0,48(sp)
   11fc6:	fc06                	sd	ra,56(sp)
   11fc8:	8436                	mv	s0,a3
   11fca:	f426                	sd	s1,40(sp)
   11fcc:	03479693          	slli	a3,a5,0x34
   11fd0:	ca99                	beqz	a3,11fe6 <__mmap+0x24>
   11fd2:	4d8070ef          	jal	ra,194aa <__errno_location>
   11fd6:	47d9                	li	a5,22
   11fd8:	70e2                	ld	ra,56(sp)
   11fda:	7442                	ld	s0,48(sp)
   11fdc:	c11c                	sw	a5,0(a0)
   11fde:	74a2                	ld	s1,40(sp)
   11fe0:	557d                	li	a0,-1
   11fe2:	6121                	addi	sp,sp,64
   11fe4:	8082                	ret
   11fe6:	56f5                	li	a3,-3
   11fe8:	8285                	srli	a3,a3,0x1
   11fea:	00b6f663          	bgeu	a3,a1,11ff6 <__mmap+0x34>
   11fee:	4bc070ef          	jal	ra,194aa <__errno_location>
   11ff2:	47b1                	li	a5,12
   11ff4:	b7d5                	j	11fd8 <__mmap+0x16>
   11ff6:	01047693          	andi	a3,s0,16
   11ffa:	84aa                	mv	s1,a0
   11ffc:	ca99                	beqz	a3,12012 <__mmap+0x50>
   11ffe:	ec3e                	sd	a5,24(sp)
   12000:	e83a                	sd	a4,16(sp)
   12002:	e432                	sd	a2,8(sp)
   12004:	e02e                	sd	a1,0(sp)
   12006:	625060ef          	jal	ra,18e2a <__vm_wait>
   1200a:	67e2                	ld	a5,24(sp)
   1200c:	6742                	ld	a4,16(sp)
   1200e:	6622                	ld	a2,8(sp)
   12010:	6582                	ld	a1,0(sp)
   12012:	0de00893          	li	a7,222
   12016:	8526                	mv	a0,s1
   12018:	86a2                	mv	a3,s0
   1201a:	00000073          	ecall
   1201e:	57fd                	li	a5,-1
   12020:	00f51a63          	bne	a0,a5,12034 <__mmap+0x72>
   12024:	e881                	bnez	s1,12034 <__mmap+0x72>
   12026:	03047413          	andi	s0,s0,48
   1202a:	02000793          	li	a5,32
   1202e:	00f41363          	bne	s0,a5,12034 <__mmap+0x72>
   12032:	5551                	li	a0,-12
   12034:	7442                	ld	s0,48(sp)
   12036:	70e2                	ld	ra,56(sp)
   12038:	74a2                	ld	s1,40(sp)
   1203a:	6121                	addi	sp,sp,64
   1203c:	4e20706f          	j	1951e <__syscall_ret>

0000000000012040 <dummy>:
   12040:	8082                	ret

0000000000012042 <__mremap>:
   12042:	711d                	addi	sp,sp,-96
   12044:	e4be                	sd	a5,72(sp)
   12046:	57f5                	li	a5,-3
   12048:	fc06                	sd	ra,56(sp)
   1204a:	e0ba                	sd	a4,64(sp)
   1204c:	e8c2                	sd	a6,80(sp)
   1204e:	ecc6                	sd	a7,88(sp)
   12050:	8385                	srli	a5,a5,0x1
   12052:	00c7fa63          	bgeu	a5,a2,12066 <__mremap+0x24>
   12056:	454070ef          	jal	ra,194aa <__errno_location>
   1205a:	47b1                	li	a5,12
   1205c:	c11c                	sw	a5,0(a0)
   1205e:	557d                	li	a0,-1
   12060:	70e2                	ld	ra,56(sp)
   12062:	6125                	addi	sp,sp,96
   12064:	8082                	ret
   12066:	0026f793          	andi	a5,a3,2
   1206a:	4701                	li	a4,0
   1206c:	cf91                	beqz	a5,12088 <__mremap+0x46>
   1206e:	ec36                	sd	a3,24(sp)
   12070:	e832                	sd	a2,16(sp)
   12072:	e42e                	sd	a1,8(sp)
   12074:	e02a                	sd	a0,0(sp)
   12076:	5b5060ef          	jal	ra,18e2a <__vm_wait>
   1207a:	6706                	ld	a4,64(sp)
   1207c:	66e2                	ld	a3,24(sp)
   1207e:	6642                	ld	a2,16(sp)
   12080:	65a2                	ld	a1,8(sp)
   12082:	6502                	ld	a0,0(sp)
   12084:	009c                	addi	a5,sp,64
   12086:	f43e                	sd	a5,40(sp)
   12088:	0d800893          	li	a7,216
   1208c:	00000073          	ecall
   12090:	48e070ef          	jal	ra,1951e <__syscall_ret>
   12094:	b7f1                	j	12060 <__mremap+0x1e>

0000000000012096 <dummy>:
   12096:	8082                	ret

0000000000012098 <__munmap>:
   12098:	1101                	addi	sp,sp,-32
   1209a:	ec06                	sd	ra,24(sp)
   1209c:	e42a                	sd	a0,8(sp)
   1209e:	e02e                	sd	a1,0(sp)
   120a0:	58b060ef          	jal	ra,18e2a <__vm_wait>
   120a4:	0d700893          	li	a7,215
   120a8:	6522                	ld	a0,8(sp)
   120aa:	6582                	ld	a1,0(sp)
   120ac:	00000073          	ecall
   120b0:	46e070ef          	jal	ra,1951e <__syscall_ret>
   120b4:	60e2                	ld	ra,24(sp)
   120b6:	2501                	sext.w	a0,a0
   120b8:	6105                	addi	sp,sp,32
   120ba:	8082                	ret

00000000000120bc <mbrtowc>:
   120bc:	1101                	addi	sp,sp,-32
   120be:	ec06                	sd	ra,24(sp)
   120c0:	e299                	bnez	a3,120c6 <mbrtowc+0xa>
   120c2:	90818693          	addi	a3,gp,-1784 # 24210 <internal_state.2825>
   120c6:	4298                	lw	a4,0(a3)
   120c8:	ed81                	bnez	a1,120e0 <mbrtowc+0x24>
   120ca:	4781                	li	a5,0
   120cc:	cb1d                	beqz	a4,12102 <mbrtowc+0x46>
   120ce:	0006a023          	sw	zero,0(a3)
   120d2:	3d8070ef          	jal	ra,194aa <__errno_location>
   120d6:	05400793          	li	a5,84
   120da:	c11c                	sw	a5,0(a0)
   120dc:	57fd                	li	a5,-1
   120de:	a015                	j	12102 <mbrtowc+0x46>
   120e0:	e111                	bnez	a0,120e4 <mbrtowc+0x28>
   120e2:	0068                	addi	a0,sp,12
   120e4:	57f9                	li	a5,-2
   120e6:	ce11                	beqz	a2,12102 <mbrtowc+0x46>
   120e8:	e735                	bnez	a4,12154 <mbrtowc+0x98>
   120ea:	0005c783          	lbu	a5,0(a1)
   120ee:	0187971b          	slliw	a4,a5,0x18
   120f2:	4187571b          	sraiw	a4,a4,0x18
   120f6:	00074a63          	bltz	a4,1210a <mbrtowc+0x4e>
   120fa:	2781                	sext.w	a5,a5
   120fc:	c11c                	sw	a5,0(a0)
   120fe:	00f037b3          	snez	a5,a5
   12102:	60e2                	ld	ra,24(sp)
   12104:	853e                	mv	a0,a5
   12106:	6105                	addi	sp,sp,32
   12108:	8082                	ret
   1210a:	8812                	mv	a6,tp
   1210c:	fc083803          	ld	a6,-64(a6)
   12110:	00083803          	ld	a6,0(a6)
   12114:	00081863          	bnez	a6,12124 <mbrtowc+0x68>
   12118:	67b9                	lui	a5,0xe
   1211a:	17fd                	addi	a5,a5,-1
   1211c:	8f7d                	and	a4,a4,a5
   1211e:	c118                	sw	a4,0(a0)
   12120:	4785                	li	a5,1
   12122:	b7c5                	j	12102 <mbrtowc+0x46>
   12124:	f3e7879b          	addiw	a5,a5,-194
   12128:	0007881b          	sext.w	a6,a5
   1212c:	03200713          	li	a4,50
   12130:	f9076fe3          	bltu	a4,a6,120ce <mbrtowc+0x12>
   12134:	1782                	slli	a5,a5,0x20
   12136:	00022737          	lui	a4,0x22
   1213a:	30070713          	addi	a4,a4,768 # 22300 <__fsmu8>
   1213e:	83f9                	srli	a5,a5,0x1e
   12140:	97ba                	add	a5,a5,a4
   12142:	fff60893          	addi	a7,a2,-1
   12146:	4398                	lw	a4,0(a5)
   12148:	0585                	addi	a1,a1,1
   1214a:	00089663          	bnez	a7,12156 <mbrtowc+0x9a>
   1214e:	c298                	sw	a4,0(a3)
   12150:	57f9                	li	a5,-2
   12152:	bf45                	j	12102 <mbrtowc+0x46>
   12154:	88b2                	mv	a7,a2
   12156:	0005c303          	lbu	t1,0(a1)
   1215a:	41a7581b          	sraiw	a6,a4,0x1a
   1215e:	0033531b          	srliw	t1,t1,0x3
   12162:	0068083b          	addw	a6,a6,t1
   12166:	3341                	addiw	t1,t1,-16
   12168:	00686833          	or	a6,a6,t1
   1216c:	ff887813          	andi	a6,a6,-8
   12170:	2801                	sext.w	a6,a6
   12172:	f4081ee3          	bnez	a6,120ce <mbrtowc+0x12>
   12176:	03f00313          	li	t1,63
   1217a:	0585                	addi	a1,a1,1
   1217c:	fff5c803          	lbu	a6,-1(a1)
   12180:	0067171b          	slliw	a4,a4,0x6
   12184:	18fd                	addi	a7,a7,-1
   12186:	f808081b          	addiw	a6,a6,-128
   1218a:	00e86733          	or	a4,a6,a4
   1218e:	2701                	sext.w	a4,a4
   12190:	0007079b          	sext.w	a5,a4
   12194:	0007cb63          	bltz	a5,121aa <mbrtowc+0xee>
   12198:	c11c                	sw	a5,0(a0)
   1219a:	02061793          	slli	a5,a2,0x20
   1219e:	9381                	srli	a5,a5,0x20
   121a0:	0006a023          	sw	zero,0(a3)
   121a4:	411787b3          	sub	a5,a5,a7
   121a8:	bfa9                	j	12102 <mbrtowc+0x46>
   121aa:	fa0882e3          	beqz	a7,1214e <mbrtowc+0x92>
   121ae:	0005c783          	lbu	a5,0(a1)
   121b2:	f807879b          	addiw	a5,a5,-128
   121b6:	fcf372e3          	bgeu	t1,a5,1217a <mbrtowc+0xbe>
   121ba:	bf11                	j	120ce <mbrtowc+0x12>

00000000000121bc <mbstowcs>:
   121bc:	1101                	addi	sp,sp,-32
   121be:	e42e                	sd	a1,8(sp)
   121c0:	4681                	li	a3,0
   121c2:	002c                	addi	a1,sp,8
   121c4:	ec06                	sd	ra,24(sp)
   121c6:	021070ef          	jal	ra,199e6 <mbsrtowcs>
   121ca:	60e2                	ld	ra,24(sp)
   121cc:	6105                	addi	sp,sp,32
   121ce:	8082                	ret

00000000000121d0 <__fork_handler>:
   121d0:	8082                	ret

00000000000121d2 <fork>:
   121d2:	7175                	addi	sp,sp,-144
   121d4:	557d                	li	a0,-1
   121d6:	e506                	sd	ra,136(sp)
   121d8:	e122                	sd	s0,128(sp)
   121da:	ff7ff0ef          	jal	ra,121d0 <__fork_handler>
   121de:	850a                	mv	a0,sp
   121e0:	6d0030ef          	jal	ra,158b0 <__block_all_sigs>
   121e4:	0dc00893          	li	a7,220
   121e8:	4545                	li	a0,17
   121ea:	4581                	li	a1,0
   121ec:	00000073          	ecall
   121f0:	32e070ef          	jal	ra,1951e <__syscall_ret>
   121f4:	0005041b          	sext.w	s0,a0
   121f8:	e005                	bnez	s0,12218 <fork+0x46>
   121fa:	8792                	mv	a5,tp
   121fc:	0b200893          	li	a7,178
   12200:	00000073          	ecall
   12204:	fa07b823          	sd	zero,-80(a5) # dfb0 <main-0x2138>
   12208:	f2a7a823          	sw	a0,-208(a5)
   1220c:	fa07b423          	sd	zero,-88(a5)
   12210:	63818793          	addi	a5,gp,1592 # 24f40 <__libc>
   12214:	0007a623          	sw	zero,12(a5)
   12218:	850a                	mv	a0,sp
   1221a:	6be030ef          	jal	ra,158d8 <__restore_sigs>
   1221e:	00143513          	seqz	a0,s0
   12222:	fafff0ef          	jal	ra,121d0 <__fork_handler>
   12226:	8522                	mv	a0,s0
   12228:	60aa                	ld	ra,136(sp)
   1222a:	640a                	ld	s0,128(sp)
   1222c:	6149                	addi	sp,sp,144
   1222e:	8082                	ret

0000000000012230 <wait>:
   12230:	85aa                	mv	a1,a0
   12232:	4601                	li	a2,0
   12234:	557d                	li	a0,-1
   12236:	0040006f          	j	1223a <waitpid>

000000000001223a <waitpid>:
   1223a:	1141                	addi	sp,sp,-16
   1223c:	86b2                	mv	a3,a2
   1223e:	4801                	li	a6,0
   12240:	862e                	mv	a2,a1
   12242:	4781                	li	a5,0
   12244:	85aa                	mv	a1,a0
   12246:	4701                	li	a4,0
   12248:	10400513          	li	a0,260
   1224c:	e406                	sd	ra,8(sp)
   1224e:	158060ef          	jal	ra,183a6 <__syscall_cp>
   12252:	2cc070ef          	jal	ra,1951e <__syscall_ret>
   12256:	60a2                	ld	ra,8(sp)
   12258:	2501                	sext.w	a0,a0
   1225a:	0141                	addi	sp,sp,16
   1225c:	8082                	ret

000000000001225e <tre_stack_pop_int>:
   1225e:	455c                	lw	a5,12(a0)
   12260:	6918                	ld	a4,16(a0)
   12262:	fff7869b          	addiw	a3,a5,-1
   12266:	c554                	sw	a3,12(a0)
   12268:	068e                	slli	a3,a3,0x3
   1226a:	9736                	add	a4,a4,a3
   1226c:	4308                	lw	a0,0(a4)
   1226e:	8082                	ret

0000000000012270 <tre_stack_pop_voidptr>:
   12270:	455c                	lw	a5,12(a0)
   12272:	6918                	ld	a4,16(a0)
   12274:	fff7869b          	addiw	a3,a5,-1
   12278:	c554                	sw	a3,12(a0)
   1227a:	068e                	slli	a3,a3,0x3
   1227c:	9736                	add	a4,a4,a3
   1227e:	6308                	ld	a0,0(a4)
   12280:	8082                	ret

0000000000012282 <tre_compare_lit>:
   12282:	611c                	ld	a5,0(a0)
   12284:	6388                	ld	a0,0(a5)
   12286:	619c                	ld	a5,0(a1)
   12288:	639c                	ld	a5,0(a5)
   1228a:	9d1d                	subw	a0,a0,a5
   1228c:	8082                	ret

000000000001228e <tre_stack_destroy>:
   1228e:	1141                	addi	sp,sp,-16
   12290:	e022                	sd	s0,0(sp)
   12292:	842a                	mv	s0,a0
   12294:	6908                	ld	a0,16(a0)
   12296:	e406                	sd	ra,8(sp)
   12298:	f7aff0ef          	jal	ra,11a12 <free>
   1229c:	8522                	mv	a0,s0
   1229e:	6402                	ld	s0,0(sp)
   122a0:	60a2                	ld	ra,8(sp)
   122a2:	0141                	addi	sp,sp,16
   122a4:	f6eff06f          	j	11a12 <free>

00000000000122a8 <tre_stack_push>:
   122a8:	455c                	lw	a5,12(a0)
   122aa:	4114                	lw	a3,0(a0)
   122ac:	00d7db63          	bge	a5,a3,122c2 <tre_stack_push+0x1a>
   122b0:	6918                	ld	a4,16(a0)
   122b2:	00379693          	slli	a3,a5,0x3
   122b6:	2785                	addiw	a5,a5,1
   122b8:	9736                	add	a4,a4,a3
   122ba:	e30c                	sd	a1,0(a4)
   122bc:	c55c                	sw	a5,12(a0)
   122be:	4501                	li	a0,0
   122c0:	8082                	ret
   122c2:	4158                	lw	a4,4(a0)
   122c4:	00e6cb63          	blt	a3,a4,122da <tre_stack_push+0x32>
   122c8:	4531                	li	a0,12
   122ca:	8082                	ret
   122cc:	4531                	li	a0,12
   122ce:	60e2                	ld	ra,24(sp)
   122d0:	6442                	ld	s0,16(sp)
   122d2:	64a2                	ld	s1,8(sp)
   122d4:	6902                	ld	s2,0(sp)
   122d6:	6105                	addi	sp,sp,32
   122d8:	8082                	ret
   122da:	451c                	lw	a5,8(a0)
   122dc:	1101                	addi	sp,sp,-32
   122de:	e04a                	sd	s2,0(sp)
   122e0:	ec06                	sd	ra,24(sp)
   122e2:	e822                	sd	s0,16(sp)
   122e4:	e426                	sd	s1,8(sp)
   122e6:	9ebd                	addw	a3,a3,a5
   122e8:	893a                	mv	s2,a4
   122ea:	00e6d363          	bge	a3,a4,122f0 <tre_stack_push+0x48>
   122ee:	8936                	mv	s2,a3
   122f0:	842a                	mv	s0,a0
   122f2:	6908                	ld	a0,16(a0)
   122f4:	84ae                	mv	s1,a1
   122f6:	0009059b          	sext.w	a1,s2
   122fa:	058e                	slli	a1,a1,0x3
   122fc:	b7fff0ef          	jal	ra,11e7a <realloc>
   12300:	d571                	beqz	a0,122cc <tre_stack_push+0x24>
   12302:	e808                	sd	a0,16(s0)
   12304:	01242023          	sw	s2,0(s0)
   12308:	85a6                	mv	a1,s1
   1230a:	8522                	mv	a0,s0
   1230c:	f9dff0ef          	jal	ra,122a8 <tre_stack_push>
   12310:	4501                	li	a0,0
   12312:	bf75                	j	122ce <tre_stack_push+0x26>

0000000000012314 <tre_stack_push_voidptr>:
   12314:	f95ff06f          	j	122a8 <tre_stack_push>

0000000000012318 <tre_match_empty>:
   12318:	7159                	addi	sp,sp,-112
   1231a:	f0a2                	sd	s0,96(sp)
   1231c:	eca6                	sd	s1,88(sp)
   1231e:	e8ca                	sd	s2,80(sp)
   12320:	e4ce                	sd	s3,72(sp)
   12322:	fc56                	sd	s5,56(sp)
   12324:	f486                	sd	ra,104(sp)
   12326:	e0d2                	sd	s4,64(sp)
   12328:	f85a                	sd	s6,48(sp)
   1232a:	f45e                	sd	s7,40(sp)
   1232c:	f062                	sd	s8,32(sp)
   1232e:	ec66                	sd	s9,24(sp)
   12330:	e86a                	sd	s10,16(sp)
   12332:	e46e                	sd	s11,8(sp)
   12334:	842a                	mv	s0,a0
   12336:	8932                	mv	s2,a2
   12338:	89b6                	mv	s3,a3
   1233a:	84ba                	mv	s1,a4
   1233c:	00c52a83          	lw	s5,12(a0)
   12340:	c319                	beqz	a4,12346 <tre_match_empty+0x2e>
   12342:	00072023          	sw	zero,0(a4)
   12346:	8522                	mv	a0,s0
   12348:	fcdff0ef          	jal	ra,12314 <tre_stack_push_voidptr>
   1234c:	8c2a                	mv	s8,a0
   1234e:	4b05                	li	s6,1
   12350:	5bf5                	li	s7,-3
   12352:	5a7d                	li	s4,-1
   12354:	020c1463          	bnez	s8,1237c <tre_match_empty+0x64>
   12358:	5cf9                	li	s9,-2
   1235a:	4d09                	li	s10,2
   1235c:	4d8d                	li	s11,3
   1235e:	a821                	j	12376 <tre_match_empty+0x5e>
   12360:	8522                	mv	a0,s0
   12362:	f0fff0ef          	jal	ra,12270 <tre_stack_pop_voidptr>
   12366:	411c                	lw	a5,0(a0)
   12368:	09678f63          	beq	a5,s6,12406 <tre_match_empty+0xee>
   1236c:	cb85                	beqz	a5,1239c <tre_match_empty+0x84>
   1236e:	0ba78863          	beq	a5,s10,1241e <tre_match_empty+0x106>
   12372:	07b78d63          	beq	a5,s11,123ec <tre_match_empty+0xd4>
   12376:	445c                	lw	a5,12(s0)
   12378:	fefac4e3          	blt	s5,a5,12360 <tre_match_empty+0x48>
   1237c:	70a6                	ld	ra,104(sp)
   1237e:	7406                	ld	s0,96(sp)
   12380:	8562                	mv	a0,s8
   12382:	64e6                	ld	s1,88(sp)
   12384:	6946                	ld	s2,80(sp)
   12386:	69a6                	ld	s3,72(sp)
   12388:	6a06                	ld	s4,64(sp)
   1238a:	7ae2                	ld	s5,56(sp)
   1238c:	7b42                	ld	s6,48(sp)
   1238e:	7ba2                	ld	s7,40(sp)
   12390:	7c02                	ld	s8,32(sp)
   12392:	6ce2                	ld	s9,24(sp)
   12394:	6d42                	ld	s10,16(sp)
   12396:	6da2                	ld	s11,8(sp)
   12398:	6165                	addi	sp,sp,112
   1239a:	8082                	ret
   1239c:	651c                	ld	a5,8(a0)
   1239e:	6398                	ld	a4,0(a5)
   123a0:	01770d63          	beq	a4,s7,123ba <tre_match_empty+0xa2>
   123a4:	fd9719e3          	bne	a4,s9,12376 <tre_match_empty+0x5e>
   123a8:	fc0987e3          	beqz	s3,12376 <tre_match_empty+0x5e>
   123ac:	679c                	ld	a5,8(a5)
   123ae:	0009a703          	lw	a4,0(s3)
   123b2:	8fd9                	or	a5,a5,a4
   123b4:	00f9a023          	sw	a5,0(s3)
   123b8:	bf7d                	j	12376 <tre_match_empty+0x5e>
   123ba:	6794                	ld	a3,8(a5)
   123bc:	fa06cde3          	bltz	a3,12376 <tre_match_empty+0x5e>
   123c0:	02090163          	beqz	s2,123e2 <tre_match_empty+0xca>
   123c4:	874a                	mv	a4,s2
   123c6:	4781                	li	a5,0
   123c8:	4310                	lw	a2,0(a4)
   123ca:	0785                	addi	a5,a5,1
   123cc:	00065863          	bgez	a2,123dc <tre_match_empty+0xc4>
   123d0:	078a                	slli	a5,a5,0x2
   123d2:	c314                	sw	a3,0(a4)
   123d4:	97ca                	add	a5,a5,s2
   123d6:	0147a023          	sw	s4,0(a5)
   123da:	a021                	j	123e2 <tre_match_empty+0xca>
   123dc:	0711                	addi	a4,a4,4
   123de:	fec695e3          	bne	a3,a2,123c8 <tre_match_empty+0xb0>
   123e2:	d8d1                	beqz	s1,12376 <tre_match_empty+0x5e>
   123e4:	409c                	lw	a5,0(s1)
   123e6:	2785                	addiw	a5,a5,1
   123e8:	c09c                	sw	a5,0(s1)
   123ea:	b771                	j	12376 <tre_match_empty+0x5e>
   123ec:	651c                	ld	a5,8(a0)
   123ee:	638c                	ld	a1,0(a5)
   123f0:	4998                	lw	a4,16(a1)
   123f2:	c711                	beqz	a4,123fe <tre_match_empty+0xe6>
   123f4:	8522                	mv	a0,s0
   123f6:	f1fff0ef          	jal	ra,12314 <tre_stack_push_voidptr>
   123fa:	8c2a                	mv	s8,a0
   123fc:	bfa1                	j	12354 <tre_match_empty+0x3c>
   123fe:	678c                	ld	a1,8(a5)
   12400:	499c                	lw	a5,16(a1)
   12402:	dbb5                	beqz	a5,12376 <tre_match_empty+0x5e>
   12404:	bfc5                	j	123f4 <tre_match_empty+0xdc>
   12406:	00853c83          	ld	s9,8(a0)
   1240a:	8522                	mv	a0,s0
   1240c:	000cb583          	ld	a1,0(s9) # 28000 <_end+0x3048>
   12410:	f05ff0ef          	jal	ra,12314 <tre_stack_push_voidptr>
   12414:	8c2a                	mv	s8,a0
   12416:	fd1d                	bnez	a0,12354 <tre_match_empty+0x3c>
   12418:	008cb583          	ld	a1,8(s9)
   1241c:	bfe1                	j	123f4 <tre_match_empty+0xdc>
   1241e:	651c                	ld	a5,8(a0)
   12420:	638c                	ld	a1,0(a5)
   12422:	bff9                	j	12400 <tre_match_empty+0xe8>

0000000000012424 <tre_stack_push_int>:
   12424:	1582                	slli	a1,a1,0x20
   12426:	9181                	srli	a1,a1,0x20
   12428:	e81ff06f          	j	122a8 <tre_stack_push>

000000000001242c <tre_new_lit>:
   1242c:	495c                	lw	a5,20(a0)
   1242e:	4918                	lw	a4,16(a0)
   12430:	1101                	addi	sp,sp,-32
   12432:	e822                	sd	s0,16(sp)
   12434:	ec06                	sd	ra,24(sp)
   12436:	e426                	sd	s1,8(sp)
   12438:	842a                	mv	s0,a0
   1243a:	02f74463          	blt	a4,a5,12462 <tre_new_lit+0x36>
   1243e:	6721                	lui	a4,0x8
   12440:	00e7c863          	blt	a5,a4,12450 <tre_new_lit+0x24>
   12444:	4501                	li	a0,0
   12446:	60e2                	ld	ra,24(sp)
   12448:	6442                	ld	s0,16(sp)
   1244a:	64a2                	ld	s1,8(sp)
   1244c:	6105                	addi	sp,sp,32
   1244e:	8082                	ret
   12450:	6508                	ld	a0,8(a0)
   12452:	0017959b          	slliw	a1,a5,0x1
   12456:	c84c                	sw	a1,20(s0)
   12458:	058e                	slli	a1,a1,0x3
   1245a:	a21ff0ef          	jal	ra,11e7a <realloc>
   1245e:	d17d                	beqz	a0,12444 <tre_new_lit+0x18>
   12460:	e408                	sd	a0,8(s0)
   12462:	481c                	lw	a5,16(s0)
   12464:	6404                	ld	s1,8(s0)
   12466:	6008                	ld	a0,0(s0)
   12468:	0017871b          	addiw	a4,a5,1
   1246c:	c818                	sw	a4,16(s0)
   1246e:	078e                	slli	a5,a5,0x3
   12470:	02800713          	li	a4,40
   12474:	4685                	li	a3,1
   12476:	4601                	li	a2,0
   12478:	4581                	li	a1,0
   1247a:	94be                	add	s1,s1,a5
   1247c:	36e030ef          	jal	ra,157ea <__tre_mem_alloc_impl>
   12480:	e088                	sd	a0,0(s1)
   12482:	b7d1                	j	12446 <tre_new_lit+0x1a>

0000000000012484 <tre_ast_new_node>:
   12484:	1101                	addi	sp,sp,-32
   12486:	e822                	sd	s0,16(sp)
   12488:	e426                	sd	s1,8(sp)
   1248a:	8432                	mv	s0,a2
   1248c:	84ae                	mv	s1,a1
   1248e:	03000713          	li	a4,48
   12492:	4685                	li	a3,1
   12494:	4601                	li	a2,0
   12496:	4581                	li	a1,0
   12498:	ec06                	sd	ra,24(sp)
   1249a:	350030ef          	jal	ra,157ea <__tre_mem_alloc_impl>
   1249e:	c511                	beqz	a0,124aa <tre_ast_new_node+0x26>
   124a0:	c811                	beqz	s0,124b4 <tre_ast_new_node+0x30>
   124a2:	57fd                	li	a5,-1
   124a4:	e500                	sd	s0,8(a0)
   124a6:	c104                	sw	s1,0(a0)
   124a8:	e91c                	sd	a5,16(a0)
   124aa:	60e2                	ld	ra,24(sp)
   124ac:	6442                	ld	s0,16(sp)
   124ae:	64a2                	ld	s1,8(sp)
   124b0:	6105                	addi	sp,sp,32
   124b2:	8082                	ret
   124b4:	4501                	li	a0,0
   124b6:	bfd5                	j	124aa <tre_ast_new_node+0x26>

00000000000124b8 <tre_ast_new_iter>:
   124b8:	7139                	addi	sp,sp,-64
   124ba:	f426                	sd	s1,40(sp)
   124bc:	f04a                	sd	s2,32(sp)
   124be:	ec4e                	sd	s3,24(sp)
   124c0:	e852                	sd	s4,16(sp)
   124c2:	892e                	mv	s2,a1
   124c4:	8a32                	mv	s4,a2
   124c6:	4581                	li	a1,0
   124c8:	4601                	li	a2,0
   124ca:	89b6                	mv	s3,a3
   124cc:	84ba                	mv	s1,a4
   124ce:	4685                	li	a3,1
   124d0:	4761                	li	a4,24
   124d2:	f822                	sd	s0,48(sp)
   124d4:	e456                	sd	s5,8(sp)
   124d6:	fc06                	sd	ra,56(sp)
   124d8:	8aaa                	mv	s5,a0
   124da:	310030ef          	jal	ra,157ea <__tre_mem_alloc_impl>
   124de:	842a                	mv	s0,a0
   124e0:	862a                	mv	a2,a0
   124e2:	4589                	li	a1,2
   124e4:	8556                	mv	a0,s5
   124e6:	f9fff0ef          	jal	ra,12484 <tre_ast_new_node>
   124ea:	c10d                	beqz	a0,1250c <tre_ast_new_iter+0x54>
   124ec:	01044703          	lbu	a4,16(s0)
   124f0:	8885                	andi	s1,s1,1
   124f2:	01243023          	sd	s2,0(s0)
   124f6:	9b79                	andi	a4,a4,-2
   124f8:	8f45                	or	a4,a4,s1
   124fa:	00e40823          	sb	a4,16(s0)
   124fe:	01892783          	lw	a5,24(s2)
   12502:	01442423          	sw	s4,8(s0)
   12506:	01342623          	sw	s3,12(s0)
   1250a:	cd1c                	sw	a5,24(a0)
   1250c:	70e2                	ld	ra,56(sp)
   1250e:	7442                	ld	s0,48(sp)
   12510:	74a2                	ld	s1,40(sp)
   12512:	7902                	ld	s2,32(sp)
   12514:	69e2                	ld	s3,24(sp)
   12516:	6a42                	ld	s4,16(sp)
   12518:	6aa2                	ld	s5,8(sp)
   1251a:	6121                	addi	sp,sp,64
   1251c:	8082                	ret

000000000001251e <tre_ast_new_literal>:
   1251e:	7179                	addi	sp,sp,-48
   12520:	ec26                	sd	s1,24(sp)
   12522:	e84a                	sd	s2,16(sp)
   12524:	e44e                	sd	s3,8(sp)
   12526:	8932                	mv	s2,a2
   12528:	89ae                	mv	s3,a1
   1252a:	4601                	li	a2,0
   1252c:	4581                	li	a1,0
   1252e:	84b6                	mv	s1,a3
   12530:	02800713          	li	a4,40
   12534:	4685                	li	a3,1
   12536:	f022                	sd	s0,32(sp)
   12538:	e052                	sd	s4,0(sp)
   1253a:	f406                	sd	ra,40(sp)
   1253c:	8a2a                	mv	s4,a0
   1253e:	2ac030ef          	jal	ra,157ea <__tre_mem_alloc_impl>
   12542:	842a                	mv	s0,a0
   12544:	862a                	mv	a2,a0
   12546:	4581                	li	a1,0
   12548:	8552                	mv	a0,s4
   1254a:	f3bff0ef          	jal	ra,12484 <tre_ast_new_node>
   1254e:	c511                	beqz	a0,1255a <tre_ast_new_literal+0x3c>
   12550:	01343023          	sd	s3,0(s0)
   12554:	01243423          	sd	s2,8(s0)
   12558:	c804                	sw	s1,16(s0)
   1255a:	70a2                	ld	ra,40(sp)
   1255c:	7402                	ld	s0,32(sp)
   1255e:	64e2                	ld	s1,24(sp)
   12560:	6942                	ld	s2,16(sp)
   12562:	69a2                	ld	s3,8(sp)
   12564:	6a02                	ld	s4,0(sp)
   12566:	6145                	addi	sp,sp,48
   12568:	8082                	ret

000000000001256a <tre_add_tag_left>:
   1256a:	7179                	addi	sp,sp,-48
   1256c:	f022                	sd	s0,32(sp)
   1256e:	e44e                	sd	s3,8(sp)
   12570:	842e                	mv	s0,a1
   12572:	89b2                	mv	s3,a2
   12574:	4741                	li	a4,16
   12576:	4681                	li	a3,0
   12578:	4601                	li	a2,0
   1257a:	4581                	li	a1,0
   1257c:	e84a                	sd	s2,16(sp)
   1257e:	f406                	sd	ra,40(sp)
   12580:	ec26                	sd	s1,24(sp)
   12582:	892a                	mv	s2,a0
   12584:	266030ef          	jal	ra,157ea <__tre_mem_alloc_impl>
   12588:	e909                	bnez	a0,1259a <tre_add_tag_left+0x30>
   1258a:	4531                	li	a0,12
   1258c:	70a2                	ld	ra,40(sp)
   1258e:	7402                	ld	s0,32(sp)
   12590:	64e2                	ld	s1,24(sp)
   12592:	6942                	ld	s2,16(sp)
   12594:	69a2                	ld	s3,8(sp)
   12596:	6145                	addi	sp,sp,48
   12598:	8082                	ret
   1259a:	84aa                	mv	s1,a0
   1259c:	56fd                	li	a3,-1
   1259e:	864e                	mv	a2,s3
   125a0:	55f5                	li	a1,-3
   125a2:	854a                	mv	a0,s2
   125a4:	f7bff0ef          	jal	ra,1251e <tre_ast_new_literal>
   125a8:	e088                	sd	a0,0(s1)
   125aa:	d165                	beqz	a0,1258a <tre_add_tag_left+0x20>
   125ac:	03000713          	li	a4,48
   125b0:	4681                	li	a3,0
   125b2:	4601                	li	a2,0
   125b4:	4581                	li	a1,0
   125b6:	854a                	mv	a0,s2
   125b8:	232030ef          	jal	ra,157ea <__tre_mem_alloc_impl>
   125bc:	e488                	sd	a0,8(s1)
   125be:	d571                	beqz	a0,1258a <tre_add_tag_left+0x20>
   125c0:	641c                	ld	a5,8(s0)
   125c2:	e51c                	sd	a5,8(a0)
   125c4:	401c                	lw	a5,0(s0)
   125c6:	00053c23          	sd	zero,24(a0)
   125ca:	02053023          	sd	zero,32(a0)
   125ce:	c11c                	sw	a5,0(a0)
   125d0:	57fd                	li	a5,-1
   125d2:	e91c                	sd	a5,16(a0)
   125d4:	02053423          	sd	zero,40(a0)
   125d8:	4785                	li	a5,1
   125da:	e404                	sd	s1,8(s0)
   125dc:	c01c                	sw	a5,0(s0)
   125de:	4501                	li	a0,0
   125e0:	b775                	j	1258c <tre_add_tag_left+0x22>

00000000000125e2 <tre_add_tag_right>:
   125e2:	7179                	addi	sp,sp,-48
   125e4:	f022                	sd	s0,32(sp)
   125e6:	e44e                	sd	s3,8(sp)
   125e8:	842e                	mv	s0,a1
   125ea:	89b2                	mv	s3,a2
   125ec:	4741                	li	a4,16
   125ee:	4681                	li	a3,0
   125f0:	4601                	li	a2,0
   125f2:	4581                	li	a1,0
   125f4:	e84a                	sd	s2,16(sp)
   125f6:	f406                	sd	ra,40(sp)
   125f8:	ec26                	sd	s1,24(sp)
   125fa:	892a                	mv	s2,a0
   125fc:	1ee030ef          	jal	ra,157ea <__tre_mem_alloc_impl>
   12600:	e909                	bnez	a0,12612 <tre_add_tag_right+0x30>
   12602:	4531                	li	a0,12
   12604:	70a2                	ld	ra,40(sp)
   12606:	7402                	ld	s0,32(sp)
   12608:	64e2                	ld	s1,24(sp)
   1260a:	6942                	ld	s2,16(sp)
   1260c:	69a2                	ld	s3,8(sp)
   1260e:	6145                	addi	sp,sp,48
   12610:	8082                	ret
   12612:	84aa                	mv	s1,a0
   12614:	56fd                	li	a3,-1
   12616:	864e                	mv	a2,s3
   12618:	55f5                	li	a1,-3
   1261a:	854a                	mv	a0,s2
   1261c:	f03ff0ef          	jal	ra,1251e <tre_ast_new_literal>
   12620:	e488                	sd	a0,8(s1)
   12622:	d165                	beqz	a0,12602 <tre_add_tag_right+0x20>
   12624:	03000713          	li	a4,48
   12628:	4681                	li	a3,0
   1262a:	4601                	li	a2,0
   1262c:	4581                	li	a1,0
   1262e:	854a                	mv	a0,s2
   12630:	1ba030ef          	jal	ra,157ea <__tre_mem_alloc_impl>
   12634:	e088                	sd	a0,0(s1)
   12636:	d571                	beqz	a0,12602 <tre_add_tag_right+0x20>
   12638:	641c                	ld	a5,8(s0)
   1263a:	e51c                	sd	a5,8(a0)
   1263c:	401c                	lw	a5,0(s0)
   1263e:	00053c23          	sd	zero,24(a0)
   12642:	02053023          	sd	zero,32(a0)
   12646:	c11c                	sw	a5,0(a0)
   12648:	57fd                	li	a5,-1
   1264a:	e91c                	sd	a5,16(a0)
   1264c:	02053423          	sd	zero,40(a0)
   12650:	4785                	li	a5,1
   12652:	e404                	sd	s1,8(s0)
   12654:	c01c                	sw	a5,0(s0)
   12656:	4501                	li	a0,0
   12658:	b775                	j	12604 <tre_add_tag_right+0x22>

000000000001265a <tre_set_empty>:
   1265a:	1141                	addi	sp,sp,-16
   1265c:	03800713          	li	a4,56
   12660:	4685                	li	a3,1
   12662:	4601                	li	a2,0
   12664:	4581                	li	a1,0
   12666:	e406                	sd	ra,8(sp)
   12668:	182030ef          	jal	ra,157ea <__tre_mem_alloc_impl>
   1266c:	c501                	beqz	a0,12674 <tre_set_empty+0x1a>
   1266e:	57fd                	li	a5,-1
   12670:	e11c                	sd	a5,0(a0)
   12672:	c51c                	sw	a5,8(a0)
   12674:	60a2                	ld	ra,8(sp)
   12676:	0141                	addi	sp,sp,16
   12678:	8082                	ret

000000000001267a <tre_set_one>:
   1267a:	7139                	addi	sp,sp,-64
   1267c:	f822                	sd	s0,48(sp)
   1267e:	f426                	sd	s1,40(sp)
   12680:	f04a                	sd	s2,32(sp)
   12682:	ec4e                	sd	s3,24(sp)
   12684:	8932                	mv	s2,a2
   12686:	89ae                	mv	s3,a1
   12688:	84b6                	mv	s1,a3
   1268a:	843a                	mv	s0,a4
   1268c:	4685                	li	a3,1
   1268e:	07000713          	li	a4,112
   12692:	4601                	li	a2,0
   12694:	4581                	li	a1,0
   12696:	fc06                	sd	ra,56(sp)
   12698:	e43e                	sd	a5,8(sp)
   1269a:	e042                	sd	a6,0(sp)
   1269c:	14e030ef          	jal	ra,157ea <__tre_mem_alloc_impl>
   126a0:	cd19                	beqz	a0,126be <tre_set_one+0x44>
   126a2:	67a2                	ld	a5,8(sp)
   126a4:	6802                	ld	a6,0(sp)
   126a6:	01352023          	sw	s3,0(a0)
   126aa:	f51c                	sd	a5,40(a0)
   126ac:	57fd                	li	a5,-1
   126ae:	01252223          	sw	s2,4(a0)
   126b2:	c504                	sw	s1,8(a0)
   126b4:	f100                	sd	s0,32(a0)
   126b6:	03052823          	sw	a6,48(a0)
   126ba:	fd1c                	sd	a5,56(a0)
   126bc:	c13c                	sw	a5,64(a0)
   126be:	70e2                	ld	ra,56(sp)
   126c0:	7442                	ld	s0,48(sp)
   126c2:	74a2                	ld	s1,40(sp)
   126c4:	7902                	ld	s2,32(sp)
   126c6:	69e2                	ld	s3,24(sp)
   126c8:	6121                	addi	sp,sp,64
   126ca:	8082                	ret

00000000000126cc <tre_set_union>:
   126cc:	711d                	addi	sp,sp,-96
   126ce:	e4a6                	sd	s1,72(sp)
   126d0:	e0ca                	sd	s2,64(sp)
   126d2:	fc4e                	sd	s3,56(sp)
   126d4:	ec5e                	sd	s7,24(sp)
   126d6:	e862                	sd	s8,16(sp)
   126d8:	ec86                	sd	ra,88(sp)
   126da:	e8a2                	sd	s0,80(sp)
   126dc:	f852                	sd	s4,48(sp)
   126de:	f456                	sd	s5,40(sp)
   126e0:	f05a                	sd	s6,32(sp)
   126e2:	e466                	sd	s9,8(sp)
   126e4:	e06a                	sd	s10,0(sp)
   126e6:	89aa                	mv	s3,a0
   126e8:	892e                	mv	s2,a1
   126ea:	84b2                	mv	s1,a2
   126ec:	8c36                	mv	s8,a3
   126ee:	8bba                	mv	s7,a4
   126f0:	4781                	li	a5,0
   126f2:	00078c9b          	sext.w	s9,a5
   126f6:	000c0a63          	beqz	s8,1270a <tre_set_union+0x3e>
   126fa:	0785                	addi	a5,a5,1
   126fc:	00279713          	slli	a4,a5,0x2
   12700:	9762                	add	a4,a4,s8
   12702:	ffc72703          	lw	a4,-4(a4) # 7ffc <main-0x80ec>
   12706:	fe0756e3          	bgez	a4,126f2 <tre_set_union+0x26>
   1270a:	4701                	li	a4,0
   1270c:	03800613          	li	a2,56
   12710:	0007079b          	sext.w	a5,a4
   12714:	0705                	addi	a4,a4,1
   12716:	02c706b3          	mul	a3,a4,a2
   1271a:	96ca                	add	a3,a3,s2
   1271c:	fc86a683          	lw	a3,-56(a3)
   12720:	fe06d8e3          	bgez	a3,12710 <tre_set_union+0x44>
   12724:	4681                	li	a3,0
   12726:	03800713          	li	a4,56
   1272a:	0006859b          	sext.w	a1,a3
   1272e:	0685                	addi	a3,a3,1
   12730:	02e68633          	mul	a2,a3,a4
   12734:	9626                	add	a2,a2,s1
   12736:	fc862603          	lw	a2,-56(a2)
   1273a:	fe0658e3          	bgez	a2,1272a <tre_set_union+0x5e>
   1273e:	9fad                	addw	a5,a5,a1
   12740:	2785                	addiw	a5,a5,1
   12742:	02e78733          	mul	a4,a5,a4
   12746:	4685                	li	a3,1
   12748:	4601                	li	a2,0
   1274a:	4581                	li	a1,0
   1274c:	854e                	mv	a0,s3
   1274e:	09c030ef          	jal	ra,157ea <__tre_mem_alloc_impl>
   12752:	8b2a                	mv	s6,a0
   12754:	c505                	beqz	a0,1277c <tre_set_union+0xb0>
   12756:	8a2a                	mv	s4,a0
   12758:	4401                	li	s0,0
   1275a:	5d7d                	li	s10,-1
   1275c:	00092783          	lw	a5,0(s2)
   12760:	0207de63          	bgez	a5,1279c <tre_set_union+0xd0>
   12764:	03800793          	li	a5,56
   12768:	02f40433          	mul	s0,s0,a5
   1276c:	5a7d                	li	s4,-1
   1276e:	945a                	add	s0,s0,s6
   12770:	409c                	lw	a5,0(s1)
   12772:	0e07df63          	bgez	a5,12870 <tre_set_union+0x1a4>
   12776:	57fd                	li	a5,-1
   12778:	c01c                	sw	a5,0(s0)
   1277a:	a011                	j	1277e <tre_set_union+0xb2>
   1277c:	4b01                	li	s6,0
   1277e:	60e6                	ld	ra,88(sp)
   12780:	6446                	ld	s0,80(sp)
   12782:	855a                	mv	a0,s6
   12784:	64a6                	ld	s1,72(sp)
   12786:	6906                	ld	s2,64(sp)
   12788:	79e2                	ld	s3,56(sp)
   1278a:	7a42                	ld	s4,48(sp)
   1278c:	7aa2                	ld	s5,40(sp)
   1278e:	7b02                	ld	s6,32(sp)
   12790:	6be2                	ld	s7,24(sp)
   12792:	6c42                	ld	s8,16(sp)
   12794:	6ca2                	ld	s9,8(sp)
   12796:	6d02                	ld	s10,0(sp)
   12798:	6125                	addi	sp,sp,96
   1279a:	8082                	ret
   1279c:	00fa2023          	sw	a5,0(s4)
   127a0:	00492783          	lw	a5,4(s2)
   127a4:	01093683          	ld	a3,16(s2)
   127a8:	00fa2223          	sw	a5,4(s4)
   127ac:	00892783          	lw	a5,8(s2)
   127b0:	00fa2423          	sw	a5,8(s4)
   127b4:	01892783          	lw	a5,24(s2)
   127b8:	00fbe7b3          	or	a5,s7,a5
   127bc:	00fa2c23          	sw	a5,24(s4)
   127c0:	02093783          	ld	a5,32(s2)
   127c4:	02fa3023          	sd	a5,32(s4)
   127c8:	02893783          	ld	a5,40(s2)
   127cc:	02fa3423          	sd	a5,40(s4)
   127d0:	03092783          	lw	a5,48(s2)
   127d4:	02fa2823          	sw	a5,48(s4)
   127d8:	ea99                	bnez	a3,127ee <tre_set_union+0x122>
   127da:	060c1863          	bnez	s8,1284a <tre_set_union+0x17e>
   127de:	000a3823          	sd	zero,16(s4)
   127e2:	2405                	addiw	s0,s0,1
   127e4:	03890913          	addi	s2,s2,56
   127e8:	038a0a13          	addi	s4,s4,56
   127ec:	bf85                	j	1275c <tre_set_union+0x90>
   127ee:	4781                	li	a5,0
   127f0:	00078a9b          	sext.w	s5,a5
   127f4:	0785                	addi	a5,a5,1
   127f6:	00279713          	slli	a4,a5,0x2
   127fa:	9736                	add	a4,a4,a3
   127fc:	ffc72703          	lw	a4,-4(a4)
   12800:	fe0758e3          	bgez	a4,127f0 <tre_set_union+0x124>
   12804:	019a873b          	addw	a4,s5,s9
   12808:	2705                	addiw	a4,a4,1
   1280a:	070a                	slli	a4,a4,0x2
   1280c:	4681                	li	a3,0
   1280e:	4601                	li	a2,0
   12810:	4581                	li	a1,0
   12812:	854e                	mv	a0,s3
   12814:	7d7020ef          	jal	ra,157ea <__tre_mem_alloc_impl>
   12818:	d135                	beqz	a0,1277c <tre_set_union+0xb0>
   1281a:	4781                	li	a5,0
   1281c:	0007869b          	sext.w	a3,a5
   12820:	00279713          	slli	a4,a5,0x2
   12824:	0356c563          	blt	a3,s5,1284e <tre_set_union+0x182>
   12828:	002a9793          	slli	a5,s5,0x2
   1282c:	97aa                	add	a5,a5,a0
   1282e:	4701                	li	a4,0
   12830:	0007069b          	sext.w	a3,a4
   12834:	0396c563          	blt	a3,s9,1285e <tre_set_union+0x192>
   12838:	015c87b3          	add	a5,s9,s5
   1283c:	078a                	slli	a5,a5,0x2
   1283e:	97aa                	add	a5,a5,a0
   12840:	01a7a023          	sw	s10,0(a5)
   12844:	00aa3823          	sd	a0,16(s4)
   12848:	bf69                	j	127e2 <tre_set_union+0x116>
   1284a:	4a81                	li	s5,0
   1284c:	bf65                	j	12804 <tre_set_union+0x138>
   1284e:	01093683          	ld	a3,16(s2)
   12852:	0785                	addi	a5,a5,1
   12854:	96ba                	add	a3,a3,a4
   12856:	4294                	lw	a3,0(a3)
   12858:	972a                	add	a4,a4,a0
   1285a:	c314                	sw	a3,0(a4)
   1285c:	b7c1                	j	1281c <tre_set_union+0x150>
   1285e:	00271693          	slli	a3,a4,0x2
   12862:	96e2                	add	a3,a3,s8
   12864:	4294                	lw	a3,0(a3)
   12866:	0705                	addi	a4,a4,1
   12868:	0791                	addi	a5,a5,4
   1286a:	fed7ae23          	sw	a3,-4(a5)
   1286e:	b7c9                	j	12830 <tre_set_union+0x164>
   12870:	c01c                	sw	a5,0(s0)
   12872:	40dc                	lw	a5,4(s1)
   12874:	c05c                	sw	a5,4(s0)
   12876:	449c                	lw	a5,8(s1)
   12878:	c41c                	sw	a5,8(s0)
   1287a:	4c9c                	lw	a5,24(s1)
   1287c:	cc1c                	sw	a5,24(s0)
   1287e:	709c                	ld	a5,32(s1)
   12880:	f01c                	sd	a5,32(s0)
   12882:	749c                	ld	a5,40(s1)
   12884:	f41c                	sd	a5,40(s0)
   12886:	589c                	lw	a5,48(s1)
   12888:	d81c                	sw	a5,48(s0)
   1288a:	689c                	ld	a5,16(s1)
   1288c:	eb81                	bnez	a5,1289c <tre_set_union+0x1d0>
   1288e:	00043823          	sd	zero,16(s0)
   12892:	03840413          	addi	s0,s0,56
   12896:	03848493          	addi	s1,s1,56
   1289a:	bdd9                	j	12770 <tre_set_union+0xa4>
   1289c:	4901                	li	s2,0
   1289e:	4394                	lw	a3,0(a5)
   128a0:	0019071b          	addiw	a4,s2,1
   128a4:	0791                	addi	a5,a5,4
   128a6:	0206d863          	bgez	a3,128d6 <tre_set_union+0x20a>
   128aa:	070a                	slli	a4,a4,0x2
   128ac:	4681                	li	a3,0
   128ae:	4601                	li	a2,0
   128b0:	4581                	li	a1,0
   128b2:	854e                	mv	a0,s3
   128b4:	737020ef          	jal	ra,157ea <__tre_mem_alloc_impl>
   128b8:	ec0502e3          	beqz	a0,1277c <tre_set_union+0xb0>
   128bc:	4781                	li	a5,0
   128be:	0007869b          	sext.w	a3,a5
   128c2:	00279713          	slli	a4,a5,0x2
   128c6:	0126ca63          	blt	a3,s2,128da <tre_set_union+0x20e>
   128ca:	090a                	slli	s2,s2,0x2
   128cc:	992a                	add	s2,s2,a0
   128ce:	01492023          	sw	s4,0(s2)
   128d2:	e808                	sd	a0,16(s0)
   128d4:	bf7d                	j	12892 <tre_set_union+0x1c6>
   128d6:	893a                	mv	s2,a4
   128d8:	b7d9                	j	1289e <tre_set_union+0x1d2>
   128da:	6894                	ld	a3,16(s1)
   128dc:	0785                	addi	a5,a5,1
   128de:	96ba                	add	a3,a3,a4
   128e0:	4294                	lw	a3,0(a3)
   128e2:	972a                	add	a4,a4,a0
   128e4:	c314                	sw	a3,0(a4)
   128e6:	bfe1                	j	128be <tre_set_union+0x1f2>

00000000000128e8 <parse_dup_count>:
   128e8:	57fd                	li	a5,-1
   128ea:	c19c                	sw	a5,0(a1)
   128ec:	00054783          	lbu	a5,0(a0)
   128f0:	4725                	li	a4,9
   128f2:	fd07879b          	addiw	a5,a5,-48
   128f6:	02f76a63          	bltu	a4,a5,1292a <parse_dup_count+0x42>
   128fa:	0005a023          	sw	zero,0(a1)
   128fe:	4629                	li	a2,10
   12900:	4825                	li	a6,9
   12902:	0ff00693          	li	a3,255
   12906:	419c                	lw	a5,0(a1)
   12908:	00054703          	lbu	a4,0(a0)
   1290c:	0505                	addi	a0,a0,1
   1290e:	02f607bb          	mulw	a5,a2,a5
   12912:	fd07071b          	addiw	a4,a4,-48
   12916:	9f3d                	addw	a4,a4,a5
   12918:	c198                	sw	a4,0(a1)
   1291a:	00054783          	lbu	a5,0(a0)
   1291e:	fd07879b          	addiw	a5,a5,-48
   12922:	00f86463          	bltu	a6,a5,1292a <parse_dup_count+0x42>
   12926:	fee6d0e3          	bge	a3,a4,12906 <parse_dup_count+0x1e>
   1292a:	8082                	ret

000000000001292c <tre_purge_regset.isra.2>:
   1292c:	86aa                	mv	a3,a0
   1292e:	429c                	lw	a5,0(a3)
   12930:	0007d563          	bgez	a5,1293a <tre_purge_regset.isra.2+0xe>
   12934:	57fd                	li	a5,-1
   12936:	c11c                	sw	a5,0(a0)
   12938:	8082                	ret
   1293a:	4017d713          	srai	a4,a5,0x1
   1293e:	00471813          	slli	a6,a4,0x4
   12942:	6198                	ld	a4,0(a1)
   12944:	8b85                	andi	a5,a5,1
   12946:	9742                	add	a4,a4,a6
   12948:	e781                	bnez	a5,12950 <tre_purge_regset.isra.2+0x24>
   1294a:	c310                	sw	a2,0(a4)
   1294c:	0691                	addi	a3,a3,4
   1294e:	b7c5                	j	1292e <tre_purge_regset.isra.2+0x2>
   12950:	c350                	sw	a2,4(a4)
   12952:	bfed                	j	1294c <tre_purge_regset.isra.2+0x20>

0000000000012954 <tre_add_tags>:
   12954:	45dc                	lw	a5,12(a1)
   12956:	7155                	addi	sp,sp,-208
   12958:	e1a2                	sd	s0,192(sp)
   1295a:	fd26                	sd	s1,184(sp)
   1295c:	f94a                	sd	s2,176(sp)
   1295e:	e55e                	sd	s7,136(sp)
   12960:	e586                	sd	ra,200(sp)
   12962:	f54e                	sd	s3,168(sp)
   12964:	f152                	sd	s4,160(sp)
   12966:	ed56                	sd	s5,152(sp)
   12968:	e95a                	sd	s6,144(sp)
   1296a:	e162                	sd	s8,128(sp)
   1296c:	fce6                	sd	s9,120(sp)
   1296e:	f8ea                	sd	s10,112(sp)
   12970:	f4ee                	sd	s11,104(sp)
   12972:	ec2a                	sd	a0,24(sp)
   12974:	e4be                	sd	a5,72(sp)
   12976:	842e                	mv	s0,a1
   12978:	8932                	mv	s2,a2
   1297a:	84b6                	mv	s1,a3
   1297c:	4b85                	li	s7,1
   1297e:	c901                	beqz	a0,1298e <tre_add_tags+0x3a>
   12980:	c699                	beqz	a3,1298e <tre_add_tags+0x3a>
   12982:	62bc                	ld	a5,64(a3)
   12984:	0406a823          	sw	zero,80(a3)
   12988:	577d                	li	a4,-1
   1298a:	c398                	sw	a4,0(a5)
   1298c:	4b81                	li	s7,0
   1298e:	58c8                	lw	a0,52(s1)
   12990:	4d31                	li	s10,12
   12992:	2505                	addiw	a0,a0,1
   12994:	0015151b          	slliw	a0,a0,0x1
   12998:	1502                	slli	a0,a0,0x20
   1299a:	8179                	srli	a0,a0,0x1e
   1299c:	a7aff0ef          	jal	ra,11c16 <malloc>
   129a0:	e82a                	sd	a0,16(sp)
   129a2:	c129                	beqz	a0,129e4 <tre_add_tags+0x90>
   129a4:	59fd                	li	s3,-1
   129a6:	01352023          	sw	s3,0(a0)
   129aa:	58c8                	lw	a0,52(s1)
   129ac:	2505                	addiw	a0,a0,1
   129ae:	1502                	slli	a0,a0,0x20
   129b0:	8179                	srli	a0,a0,0x1e
   129b2:	a64ff0ef          	jal	ra,11c16 <malloc>
   129b6:	8c2a                	mv	s8,a0
   129b8:	e509                	bnez	a0,129c2 <tre_add_tags+0x6e>
   129ba:	6542                	ld	a0,16(sp)
   129bc:	856ff0ef          	jal	ra,11a12 <free>
   129c0:	a015                	j	129e4 <tre_add_tags+0x90>
   129c2:	01352023          	sw	s3,0(a0)
   129c6:	58c8                	lw	a0,52(s1)
   129c8:	2505                	addiw	a0,a0,1
   129ca:	1502                	slli	a0,a0,0x20
   129cc:	8175                	srli	a0,a0,0x1d
   129ce:	a48ff0ef          	jal	ra,11c16 <malloc>
   129d2:	f42a                	sd	a0,40(sp)
   129d4:	e905                	bnez	a0,12a04 <tre_add_tags+0xb0>
   129d6:	6542                	ld	a0,16(sp)
   129d8:	4d31                	li	s10,12
   129da:	838ff0ef          	jal	ra,11a12 <free>
   129de:	8562                	mv	a0,s8
   129e0:	832ff0ef          	jal	ra,11a12 <free>
   129e4:	60ae                	ld	ra,200(sp)
   129e6:	640e                	ld	s0,192(sp)
   129e8:	856a                	mv	a0,s10
   129ea:	74ea                	ld	s1,184(sp)
   129ec:	794a                	ld	s2,176(sp)
   129ee:	79aa                	ld	s3,168(sp)
   129f0:	7a0a                	ld	s4,160(sp)
   129f2:	6aea                	ld	s5,152(sp)
   129f4:	6b4a                	ld	s6,144(sp)
   129f6:	6baa                	ld	s7,136(sp)
   129f8:	6c0a                	ld	s8,128(sp)
   129fa:	7ce6                	ld	s9,120(sp)
   129fc:	7d46                	ld	s10,112(sp)
   129fe:	7da6                	ld	s11,104(sp)
   12a00:	6169                	addi	sp,sp,208
   12a02:	8082                	ret
   12a04:	58d4                	lw	a3,52(s1)
   12a06:	4701                	li	a4,0
   12a08:	567d                	li	a2,-1
   12a0a:	75a2                	ld	a1,40(sp)
   12a0c:	02071793          	slli	a5,a4,0x20
   12a10:	83f5                	srli	a5,a5,0x1d
   12a12:	97ae                	add	a5,a5,a1
   12a14:	c390                	sw	a2,0(a5)
   12a16:	2705                	addiw	a4,a4,1
   12a18:	fee6f9e3          	bgeu	a3,a4,12a0a <tre_add_tags+0xb6>
   12a1c:	85ca                	mv	a1,s2
   12a1e:	8522                	mv	a0,s0
   12a20:	8f5ff0ef          	jal	ra,12314 <tre_stack_push_voidptr>
   12a24:	4581                	li	a1,0
   12a26:	8522                	mv	a0,s0
   12a28:	9fdff0ef          	jal	ra,12424 <tre_stack_push_int>
   12a2c:	00020737          	lui	a4,0x20
   12a30:	96070793          	addi	a5,a4,-1696 # 1f960 <debruijn64.1943+0x40>
   12a34:	6942                	ld	s2,16(sp)
   12a36:	e8be                	sd	a5,80(sp)
   12a38:	02048793          	addi	a5,s1,32
   12a3c:	8d2a                	mv	s10,a0
   12a3e:	e402                	sd	zero,8(sp)
   12a40:	5b7d                	li	s6,-1
   12a42:	4a05                	li	s4,1
   12a44:	4981                	li	s3,0
   12a46:	4d81                	li	s11,0
   12a48:	4c81                	li	s9,0
   12a4a:	f83e                	sd	a5,48(sp)
   12a4c:	4458                	lw	a4,12(s0)
   12a4e:	67a6                	ld	a5,72(sp)
   12a50:	04e7cc63          	blt	a5,a4,12aa8 <tre_add_tags+0x154>
   12a54:	020b9c63          	bnez	s7,12a8c <tre_add_tags+0x138>
   12a58:	864e                	mv	a2,s3
   12a5a:	02048593          	addi	a1,s1,32
   12a5e:	854a                	mv	a0,s2
   12a60:	ecdff0ef          	jal	ra,1292c <tre_purge_regset.isra.2>
   12a64:	020b4463          	bltz	s6,12a8c <tre_add_tags+0x138>
   12a68:	60b4                	ld	a3,64(s1)
   12a6a:	4701                	li	a4,0
   12a6c:	8636                	mv	a2,a3
   12a6e:	85b2                	mv	a1,a2
   12a70:	4188                	lw	a0,0(a1)
   12a72:	0705                	addi	a4,a4,1
   12a74:	0611                	addi	a2,a2,4
   12a76:	fe055ce3          	bgez	a0,12a6e <tre_add_tags+0x11a>
   12a7a:	070a                	slli	a4,a4,0x2
   12a7c:	9736                	add	a4,a4,a3
   12a7e:	0135a023          	sw	s3,0(a1)
   12a82:	56fd                	li	a3,-1
   12a84:	01672023          	sw	s6,0(a4)
   12a88:	c354                	sw	a3,4(a4)
   12a8a:	2d85                	addiw	s11,s11,1
   12a8c:	6542                	ld	a0,16(sp)
   12a8e:	0594a823          	sw	s9,80(s1)
   12a92:	0594a423          	sw	s9,72(s1)
   12a96:	05b4a623          	sw	s11,76(s1)
   12a9a:	f79fe0ef          	jal	ra,11a12 <free>
   12a9e:	8562                	mv	a0,s8
   12aa0:	f73fe0ef          	jal	ra,11a12 <free>
   12aa4:	7522                	ld	a0,40(sp)
   12aa6:	bf19                	j	129bc <tre_add_tags+0x68>
   12aa8:	fa0d16e3          	bnez	s10,12a54 <tre_add_tags+0x100>
   12aac:	8522                	mv	a0,s0
   12aae:	fb0ff0ef          	jal	ra,1225e <tre_stack_pop_int>
   12ab2:	4799                	li	a5,6
   12ab4:	f8a7ece3          	bltu	a5,a0,12a4c <tre_add_tags+0xf8>
   12ab8:	67c6                	ld	a5,80(sp)
   12aba:	1502                	slli	a0,a0,0x20
   12abc:	8179                	srli	a0,a0,0x1e
   12abe:	953e                	add	a0,a0,a5
   12ac0:	4118                	lw	a4,0(a0)
   12ac2:	8702                	jr	a4
   12ac4:	8522                	mv	a0,s0
   12ac6:	f98ff0ef          	jal	ra,1225e <tre_stack_pop_int>
   12aca:	86ca                	mv	a3,s2
   12acc:	4701                	li	a4,0
   12ace:	8636                	mv	a2,a3
   12ad0:	420c                	lw	a1,0(a2)
   12ad2:	0705                	addi	a4,a4,1
   12ad4:	0691                	addi	a3,a3,4
   12ad6:	fe05dce3          	bgez	a1,12ace <tre_add_tags+0x17a>
   12ada:	0015151b          	slliw	a0,a0,0x1
   12ade:	2505                	addiw	a0,a0,1
   12ae0:	070a                	slli	a4,a4,0x2
   12ae2:	974a                	add	a4,a4,s2
   12ae4:	c208                	sw	a0,0(a2)
   12ae6:	56fd                	li	a3,-1
   12ae8:	c314                	sw	a3,0(a4)
   12aea:	4701                	li	a4,0
   12aec:	00470693          	addi	a3,a4,4
   12af0:	00dc0633          	add	a2,s8,a3
   12af4:	ffc62603          	lw	a2,-4(a2)
   12af8:	00065763          	bgez	a2,12b06 <tre_add_tags+0x1b2>
   12afc:	9762                	add	a4,a4,s8
   12afe:	56fd                	li	a3,-1
   12b00:	fed72e23          	sw	a3,-4(a4)
   12b04:	b7a1                	j	12a4c <tre_add_tags+0xf8>
   12b06:	8736                	mv	a4,a3
   12b08:	b7d5                	j	12aec <tre_add_tags+0x198>
   12b0a:	8522                	mv	a0,s0
   12b0c:	f64ff0ef          	jal	ra,12270 <tre_stack_pop_voidptr>
   12b10:	4954                	lw	a3,20(a0)
   12b12:	8aaa                	mv	s5,a0
   12b14:	0806c363          	bltz	a3,12b9a <tre_add_tags+0x246>
   12b18:	864a                	mv	a2,s2
   12b1a:	4701                	li	a4,0
   12b1c:	85b2                	mv	a1,a2
   12b1e:	4188                	lw	a0,0(a1)
   12b20:	0705                	addi	a4,a4,1
   12b22:	0611                	addi	a2,a2,4
   12b24:	fe055ce3          	bgez	a0,12b1c <tre_add_tags+0x1c8>
   12b28:	0016961b          	slliw	a2,a3,0x1
   12b2c:	070a                	slli	a4,a4,0x2
   12b2e:	c190                	sw	a2,0(a1)
   12b30:	974a                	add	a4,a4,s2
   12b32:	567d                	li	a2,-1
   12b34:	c310                	sw	a2,0(a4)
   12b36:	040b9563          	bnez	s7,12b80 <tre_add_tags+0x22c>
   12b3a:	4701                	li	a4,0
   12b3c:	0007051b          	sext.w	a0,a4
   12b40:	0705                	addi	a4,a4,1
   12b42:	00271613          	slli	a2,a4,0x2
   12b46:	9662                	add	a2,a2,s8
   12b48:	ffc62603          	lw	a2,-4(a2)
   12b4c:	fe0658e3          	bgez	a2,12b3c <tre_add_tags+0x1e8>
   12b50:	7098                	ld	a4,32(s1)
   12b52:	0692                	slli	a3,a3,0x4
   12b54:	f036                	sd	a3,32(sp)
   12b56:	9736                	add	a4,a4,a3
   12b58:	00073423          	sd	zero,8(a4)
   12b5c:	c115                	beqz	a0,12b80 <tre_add_tags+0x22c>
   12b5e:	2505                	addiw	a0,a0,1
   12b60:	050a                	slli	a0,a0,0x2
   12b62:	8b4ff0ef          	jal	ra,11c16 <malloc>
   12b66:	50050363          	beqz	a0,1306c <tre_add_tags+0x718>
   12b6a:	7098                	ld	a4,32(s1)
   12b6c:	7682                	ld	a3,32(sp)
   12b6e:	96ba                	add	a3,a3,a4
   12b70:	e688                	sd	a0,8(a3)
   12b72:	8762                	mv	a4,s8
   12b74:	4314                	lw	a3,0(a4)
   12b76:	0711                	addi	a4,a4,4
   12b78:	0406df63          	bgez	a3,12bd6 <tre_add_tags+0x282>
   12b7c:	577d                	li	a4,-1
   12b7e:	c118                	sw	a4,0(a0)
   12b80:	014aa583          	lw	a1,20(s5)
   12b84:	8522                	mv	a0,s0
   12b86:	89fff0ef          	jal	ra,12424 <tre_stack_push_int>
   12b8a:	4e051363          	bnez	a0,13070 <tre_add_tags+0x71c>
   12b8e:	4599                	li	a1,6
   12b90:	8522                	mv	a0,s0
   12b92:	893ff0ef          	jal	ra,12424 <tre_stack_push_int>
   12b96:	4c051d63          	bnez	a0,13070 <tre_add_tags+0x71c>
   12b9a:	000aa703          	lw	a4,0(s5)
   12b9e:	4785                	li	a5,1
   12ba0:	0af70d63          	beq	a4,a5,12c5a <tre_add_tags+0x306>
   12ba4:	cf05                	beqz	a4,12bdc <tre_add_tags+0x288>
   12ba6:	4689                	li	a3,2
   12ba8:	14d70663          	beq	a4,a3,12cf4 <tre_add_tags+0x3a0>
   12bac:	468d                	li	a3,3
   12bae:	22d70d63          	beq	a4,a3,12de8 <tre_add_tags+0x494>
   12bb2:	014aa583          	lw	a1,20(s5)
   12bb6:	e805cbe3          	bltz	a1,12a4c <tre_add_tags+0xf8>
   12bba:	86e2                	mv	a3,s8
   12bbc:	4701                	li	a4,0
   12bbe:	8636                	mv	a2,a3
   12bc0:	4208                	lw	a0,0(a2)
   12bc2:	0705                	addi	a4,a4,1
   12bc4:	0691                	addi	a3,a3,4
   12bc6:	fe055ce3          	bgez	a0,12bbe <tre_add_tags+0x26a>
   12bca:	070a                	slli	a4,a4,0x2
   12bcc:	c20c                	sw	a1,0(a2)
   12bce:	9762                	add	a4,a4,s8
   12bd0:	56fd                	li	a3,-1
   12bd2:	c314                	sw	a3,0(a4)
   12bd4:	bda5                	j	12a4c <tre_add_tags+0xf8>
   12bd6:	c114                	sw	a3,0(a0)
   12bd8:	0511                	addi	a0,a0,4
   12bda:	bf69                	j	12b74 <tre_add_tags+0x220>
   12bdc:	008ab703          	ld	a4,8(s5)
   12be0:	6318                	ld	a4,0(a4)
   12be2:	00075563          	bgez	a4,12bec <tre_add_tags+0x298>
   12be6:	56f1                	li	a3,-4
   12be8:	fcd715e3          	bne	a4,a3,12bb2 <tre_add_tags+0x25e>
   12bec:	00092703          	lw	a4,0(s2)
   12bf0:	fc0741e3          	bltz	a4,12bb2 <tre_add_tags+0x25e>
   12bf4:	040b9f63          	bnez	s7,12c52 <tre_add_tags+0x2fe>
   12bf8:	6562                	ld	a0,24(sp)
   12bfa:	864e                	mv	a2,s3
   12bfc:	85d6                	mv	a1,s5
   12bfe:	96dff0ef          	jal	ra,1256a <tre_add_tag_left>
   12c02:	7c98                	ld	a4,56(s1)
   12c04:	67a2                	ld	a5,8(sp)
   12c06:	00299693          	slli	a3,s3,0x2
   12c0a:	9736                	add	a4,a4,a3
   12c0c:	c31c                	sw	a5,0(a4)
   12c0e:	8d2a                	mv	s10,a0
   12c10:	020b4563          	bltz	s6,12c3a <tre_add_tags+0x2e6>
   12c14:	60b4                	ld	a3,64(s1)
   12c16:	4701                	li	a4,0
   12c18:	8636                	mv	a2,a3
   12c1a:	85b2                	mv	a1,a2
   12c1c:	4188                	lw	a0,0(a1)
   12c1e:	0705                	addi	a4,a4,1
   12c20:	0611                	addi	a2,a2,4
   12c22:	fe055ce3          	bgez	a0,12c1a <tre_add_tags+0x2c6>
   12c26:	070a                	slli	a4,a4,0x2
   12c28:	9736                	add	a4,a4,a3
   12c2a:	0135a023          	sw	s3,0(a1)
   12c2e:	56fd                	li	a3,-1
   12c30:	01672023          	sw	s6,0(a4)
   12c34:	c354                	sw	a3,4(a4)
   12c36:	2d85                	addiw	s11,s11,1
   12c38:	5b7d                	li	s6,-1
   12c3a:	75c2                	ld	a1,48(sp)
   12c3c:	864e                	mv	a2,s3
   12c3e:	854a                	mv	a0,s2
   12c40:	cedff0ef          	jal	ra,1292c <tre_purge_regset.isra.2>
   12c44:	577d                	li	a4,-1
   12c46:	89d2                	mv	s3,s4
   12c48:	00e92023          	sw	a4,0(s2)
   12c4c:	2c85                	addiw	s9,s9,1
   12c4e:	2a05                	addiw	s4,s4,1
   12c50:	b78d                	j	12bb2 <tre_add_tags+0x25e>
   12c52:	4785                	li	a5,1
   12c54:	00faae23          	sw	a5,28(s5)
   12c58:	b7f5                	j	12c44 <tre_add_tags+0x2f0>
   12c5a:	008ab783          	ld	a5,8(s5)
   12c5e:	85d6                	mv	a1,s5
   12c60:	8522                	mv	a0,s0
   12c62:	6398                	ld	a4,0(a5)
   12c64:	679c                	ld	a5,8(a5)
   12c66:	f03a                	sd	a4,32(sp)
   12c68:	fc3e                	sd	a5,56(sp)
   12c6a:	eaaff0ef          	jal	ra,12314 <tre_stack_push_voidptr>
   12c6e:	8d2a                	mv	s10,a0
   12c70:	f129                	bnez	a0,12bb2 <tre_add_tags+0x25e>
   12c72:	4595                	li	a1,5
   12c74:	8522                	mv	a0,s0
   12c76:	faeff0ef          	jal	ra,12424 <tre_stack_push_int>
   12c7a:	8d2a                	mv	s10,a0
   12c7c:	f91d                	bnez	a0,12bb2 <tre_add_tags+0x25e>
   12c7e:	75e2                	ld	a1,56(sp)
   12c80:	8522                	mv	a0,s0
   12c82:	e92ff0ef          	jal	ra,12314 <tre_stack_push_voidptr>
   12c86:	8d2a                	mv	s10,a0
   12c88:	f50d                	bnez	a0,12bb2 <tre_add_tags+0x25e>
   12c8a:	4581                	li	a1,0
   12c8c:	8522                	mv	a0,s0
   12c8e:	f96ff0ef          	jal	ra,12424 <tre_stack_push_int>
   12c92:	8d2a                	mv	s10,a0
   12c94:	fd19                	bnez	a0,12bb2 <tre_add_tags+0x25e>
   12c96:	7782                	ld	a5,32(sp)
   12c98:	8522                	mv	a0,s0
   12c9a:	4fcc                	lw	a1,28(a5)
   12c9c:	014585bb          	addw	a1,a1,s4
   12ca0:	f84ff0ef          	jal	ra,12424 <tre_stack_push_int>
   12ca4:	8d2a                	mv	s10,a0
   12ca6:	f00516e3          	bnez	a0,12bb2 <tre_add_tags+0x25e>
   12caa:	7782                	ld	a5,32(sp)
   12cac:	55fd                	li	a1,-1
   12cae:	4fdc                	lw	a5,28(a5)
   12cb0:	00f05863          	blez	a5,12cc0 <tre_add_tags+0x36c>
   12cb4:	77e2                	ld	a5,56(sp)
   12cb6:	4fdc                	lw	a5,28(a5)
   12cb8:	00f05463          	blez	a5,12cc0 <tre_add_tags+0x36c>
   12cbc:	85d2                	mv	a1,s4
   12cbe:	2a05                	addiw	s4,s4,1
   12cc0:	8522                	mv	a0,s0
   12cc2:	f62ff0ef          	jal	ra,12424 <tre_stack_push_int>
   12cc6:	8d2a                	mv	s10,a0
   12cc8:	ee0515e3          	bnez	a0,12bb2 <tre_add_tags+0x25e>
   12ccc:	4591                	li	a1,4
   12cce:	8522                	mv	a0,s0
   12cd0:	f54ff0ef          	jal	ra,12424 <tre_stack_push_int>
   12cd4:	8d2a                	mv	s10,a0
   12cd6:	ec051ee3          	bnez	a0,12bb2 <tre_add_tags+0x25e>
   12cda:	7582                	ld	a1,32(sp)
   12cdc:	8522                	mv	a0,s0
   12cde:	e36ff0ef          	jal	ra,12314 <tre_stack_push_voidptr>
   12ce2:	8d2a                	mv	s10,a0
   12ce4:	ec0517e3          	bnez	a0,12bb2 <tre_add_tags+0x25e>
   12ce8:	4581                	li	a1,0
   12cea:	8522                	mv	a0,s0
   12cec:	f38ff0ef          	jal	ra,12424 <tre_stack_push_int>
   12cf0:	8d2a                	mv	s10,a0
   12cf2:	b5c1                	j	12bb2 <tre_add_tags+0x25e>
   12cf4:	008ab783          	ld	a5,8(s5)
   12cf8:	f03e                	sd	a5,32(sp)
   12cfa:	0c0b8d63          	beqz	s7,12dd4 <tre_add_tags+0x480>
   12cfe:	00092783          	lw	a5,0(s2)
   12d02:	85de                	mv	a1,s7
   12d04:	0007d663          	bgez	a5,12d10 <tre_add_tags+0x3bc>
   12d08:	7782                	ld	a5,32(sp)
   12d0a:	0107c583          	lbu	a1,16(a5)
   12d0e:	8985                	andi	a1,a1,1
   12d10:	8522                	mv	a0,s0
   12d12:	f12ff0ef          	jal	ra,12424 <tre_stack_push_int>
   12d16:	8d2a                	mv	s10,a0
   12d18:	e8051de3          	bnez	a0,12bb2 <tre_add_tags+0x25e>
   12d1c:	85d6                	mv	a1,s5
   12d1e:	8522                	mv	a0,s0
   12d20:	df4ff0ef          	jal	ra,12314 <tre_stack_push_voidptr>
   12d24:	8d2a                	mv	s10,a0
   12d26:	e80516e3          	bnez	a0,12bb2 <tre_add_tags+0x25e>
   12d2a:	4585                	li	a1,1
   12d2c:	8522                	mv	a0,s0
   12d2e:	ef6ff0ef          	jal	ra,12424 <tre_stack_push_int>
   12d32:	8d2a                	mv	s10,a0
   12d34:	e6051fe3          	bnez	a0,12bb2 <tre_add_tags+0x25e>
   12d38:	7782                	ld	a5,32(sp)
   12d3a:	8522                	mv	a0,s0
   12d3c:	638c                	ld	a1,0(a5)
   12d3e:	dd6ff0ef          	jal	ra,12314 <tre_stack_push_voidptr>
   12d42:	8d2a                	mv	s10,a0
   12d44:	e60517e3          	bnez	a0,12bb2 <tre_add_tags+0x25e>
   12d48:	4581                	li	a1,0
   12d4a:	8522                	mv	a0,s0
   12d4c:	ed8ff0ef          	jal	ra,12424 <tre_stack_push_int>
   12d50:	8d2a                	mv	s10,a0
   12d52:	e60510e3          	bnez	a0,12bb2 <tre_add_tags+0x25e>
   12d56:	00092703          	lw	a4,0(s2)
   12d5a:	00075763          	bgez	a4,12d68 <tre_add_tags+0x414>
   12d5e:	7782                	ld	a5,32(sp)
   12d60:	0107c703          	lbu	a4,16(a5)
   12d64:	8b05                	andi	a4,a4,1
   12d66:	c72d                	beqz	a4,12dd0 <tre_add_tags+0x47c>
   12d68:	040b9e63          	bnez	s7,12dc4 <tre_add_tags+0x470>
   12d6c:	6562                	ld	a0,24(sp)
   12d6e:	864e                	mv	a2,s3
   12d70:	85d6                	mv	a1,s5
   12d72:	ff8ff0ef          	jal	ra,1256a <tre_add_tag_left>
   12d76:	7782                	ld	a5,32(sp)
   12d78:	7c98                	ld	a4,56(s1)
   12d7a:	00299613          	slli	a2,s3,0x2
   12d7e:	0107c683          	lbu	a3,16(a5)
   12d82:	8d2a                	mv	s10,a0
   12d84:	9732                	add	a4,a4,a2
   12d86:	8a85                	andi	a3,a3,1
   12d88:	4785                	li	a5,1
   12d8a:	e291                	bnez	a3,12d8e <tre_add_tags+0x43a>
   12d8c:	67a2                	ld	a5,8(sp)
   12d8e:	c31c                	sw	a5,0(a4)
   12d90:	020b4563          	bltz	s6,12dba <tre_add_tags+0x466>
   12d94:	60b4                	ld	a3,64(s1)
   12d96:	4701                	li	a4,0
   12d98:	8636                	mv	a2,a3
   12d9a:	85b2                	mv	a1,a2
   12d9c:	4188                	lw	a0,0(a1)
   12d9e:	0705                	addi	a4,a4,1
   12da0:	0611                	addi	a2,a2,4
   12da2:	fe055ce3          	bgez	a0,12d9a <tre_add_tags+0x446>
   12da6:	070a                	slli	a4,a4,0x2
   12da8:	9736                	add	a4,a4,a3
   12daa:	0135a023          	sw	s3,0(a1)
   12dae:	56fd                	li	a3,-1
   12db0:	01672023          	sw	s6,0(a4)
   12db4:	c354                	sw	a3,4(a4)
   12db6:	2d85                	addiw	s11,s11,1
   12db8:	5b7d                	li	s6,-1
   12dba:	75c2                	ld	a1,48(sp)
   12dbc:	864e                	mv	a2,s3
   12dbe:	854a                	mv	a0,s2
   12dc0:	b6dff0ef          	jal	ra,1292c <tre_purge_regset.isra.2>
   12dc4:	577d                	li	a4,-1
   12dc6:	89d2                	mv	s3,s4
   12dc8:	00e92023          	sw	a4,0(s2)
   12dcc:	2c85                	addiw	s9,s9,1
   12dce:	2a05                	addiw	s4,s4,1
   12dd0:	e402                	sd	zero,8(sp)
   12dd2:	b3c5                	j	12bb2 <tre_add_tags+0x25e>
   12dd4:	85ce                	mv	a1,s3
   12dd6:	8522                	mv	a0,s0
   12dd8:	e4cff0ef          	jal	ra,12424 <tre_stack_push_int>
   12ddc:	8d2a                	mv	s10,a0
   12dde:	dc051ae3          	bnez	a0,12bb2 <tre_add_tags+0x25e>
   12de2:	7782                	ld	a5,32(sp)
   12de4:	6b8c                	ld	a1,16(a5)
   12de6:	b725                	j	12d0e <tre_add_tags+0x3ba>
   12de8:	008ab783          	ld	a5,8(s5)
   12dec:	6398                	ld	a4,0(a5)
   12dee:	679c                	ld	a5,8(a5)
   12df0:	f03a                	sd	a4,32(sp)
   12df2:	fc3e                	sd	a5,56(sp)
   12df4:	00092783          	lw	a5,0(s2)
   12df8:	1407c063          	bltz	a5,12f38 <tre_add_tags+0x5e4>
   12dfc:	001a059b          	addiw	a1,s4,1
   12e00:	8752                	mv	a4,s4
   12e02:	8522                	mv	a0,s0
   12e04:	e0ba                	sd	a4,64(sp)
   12e06:	e1eff0ef          	jal	ra,12424 <tre_stack_push_int>
   12e0a:	8d2a                	mv	s10,a0
   12e0c:	6706                	ld	a4,64(sp)
   12e0e:	da0512e3          	bnez	a0,12bb2 <tre_add_tags+0x25e>
   12e12:	85ba                	mv	a1,a4
   12e14:	8522                	mv	a0,s0
   12e16:	e0eff0ef          	jal	ra,12424 <tre_stack_push_int>
   12e1a:	8d2a                	mv	s10,a0
   12e1c:	d8051be3          	bnez	a0,12bb2 <tre_add_tags+0x25e>
   12e20:	85ca                	mv	a1,s2
   12e22:	8522                	mv	a0,s0
   12e24:	cf0ff0ef          	jal	ra,12314 <tre_stack_push_voidptr>
   12e28:	8d2a                	mv	s10,a0
   12e2a:	d80514e3          	bnez	a0,12bb2 <tre_add_tags+0x25e>
   12e2e:	00092583          	lw	a1,0(s2)
   12e32:	8522                	mv	a0,s0
   12e34:	fff5c593          	not	a1,a1
   12e38:	01f5d59b          	srliw	a1,a1,0x1f
   12e3c:	de8ff0ef          	jal	ra,12424 <tre_stack_push_int>
   12e40:	8d2a                	mv	s10,a0
   12e42:	d60518e3          	bnez	a0,12bb2 <tre_add_tags+0x25e>
   12e46:	85d6                	mv	a1,s5
   12e48:	8522                	mv	a0,s0
   12e4a:	ccaff0ef          	jal	ra,12314 <tre_stack_push_voidptr>
   12e4e:	8d2a                	mv	s10,a0
   12e50:	d60511e3          	bnez	a0,12bb2 <tre_add_tags+0x25e>
   12e54:	75e2                	ld	a1,56(sp)
   12e56:	8522                	mv	a0,s0
   12e58:	cbcff0ef          	jal	ra,12314 <tre_stack_push_voidptr>
   12e5c:	8d2a                	mv	s10,a0
   12e5e:	d4051ae3          	bnez	a0,12bb2 <tre_add_tags+0x25e>
   12e62:	7582                	ld	a1,32(sp)
   12e64:	8522                	mv	a0,s0
   12e66:	caeff0ef          	jal	ra,12314 <tre_stack_push_voidptr>
   12e6a:	8d2a                	mv	s10,a0
   12e6c:	d40513e3          	bnez	a0,12bb2 <tre_add_tags+0x25e>
   12e70:	458d                	li	a1,3
   12e72:	8522                	mv	a0,s0
   12e74:	db0ff0ef          	jal	ra,12424 <tre_stack_push_int>
   12e78:	8d2a                	mv	s10,a0
   12e7a:	d2051ce3          	bnez	a0,12bb2 <tre_add_tags+0x25e>
   12e7e:	75e2                	ld	a1,56(sp)
   12e80:	8522                	mv	a0,s0
   12e82:	c92ff0ef          	jal	ra,12314 <tre_stack_push_voidptr>
   12e86:	8d2a                	mv	s10,a0
   12e88:	d20515e3          	bnez	a0,12bb2 <tre_add_tags+0x25e>
   12e8c:	4581                	li	a1,0
   12e8e:	8522                	mv	a0,s0
   12e90:	d94ff0ef          	jal	ra,12424 <tre_stack_push_int>
   12e94:	8d2a                	mv	s10,a0
   12e96:	d0051ee3          	bnez	a0,12bb2 <tre_add_tags+0x25e>
   12e9a:	4589                	li	a1,2
   12e9c:	8522                	mv	a0,s0
   12e9e:	d86ff0ef          	jal	ra,12424 <tre_stack_push_int>
   12ea2:	8d2a                	mv	s10,a0
   12ea4:	d00517e3          	bnez	a0,12bb2 <tre_add_tags+0x25e>
   12ea8:	7582                	ld	a1,32(sp)
   12eaa:	8522                	mv	a0,s0
   12eac:	c68ff0ef          	jal	ra,12314 <tre_stack_push_voidptr>
   12eb0:	8d2a                	mv	s10,a0
   12eb2:	d00510e3          	bnez	a0,12bb2 <tre_add_tags+0x25e>
   12eb6:	4581                	li	a1,0
   12eb8:	8522                	mv	a0,s0
   12eba:	d6aff0ef          	jal	ra,12424 <tre_stack_push_int>
   12ebe:	8d2a                	mv	s10,a0
   12ec0:	ce0519e3          	bnez	a0,12bb2 <tre_add_tags+0x25e>
   12ec4:	00092703          	lw	a4,0(s2)
   12ec8:	06074063          	bltz	a4,12f28 <tre_add_tags+0x5d4>
   12ecc:	040b9863          	bnez	s7,12f1c <tre_add_tags+0x5c8>
   12ed0:	6562                	ld	a0,24(sp)
   12ed2:	864e                	mv	a2,s3
   12ed4:	85d6                	mv	a1,s5
   12ed6:	e94ff0ef          	jal	ra,1256a <tre_add_tag_left>
   12eda:	7c98                	ld	a4,56(s1)
   12edc:	67a2                	ld	a5,8(sp)
   12ede:	00299693          	slli	a3,s3,0x2
   12ee2:	9736                	add	a4,a4,a3
   12ee4:	c31c                	sw	a5,0(a4)
   12ee6:	8d2a                	mv	s10,a0
   12ee8:	020b4563          	bltz	s6,12f12 <tre_add_tags+0x5be>
   12eec:	60b4                	ld	a3,64(s1)
   12eee:	4701                	li	a4,0
   12ef0:	8636                	mv	a2,a3
   12ef2:	85b2                	mv	a1,a2
   12ef4:	4188                	lw	a0,0(a1)
   12ef6:	0705                	addi	a4,a4,1
   12ef8:	0611                	addi	a2,a2,4
   12efa:	fe055ce3          	bgez	a0,12ef2 <tre_add_tags+0x59e>
   12efe:	070a                	slli	a4,a4,0x2
   12f00:	9736                	add	a4,a4,a3
   12f02:	0135a023          	sw	s3,0(a1)
   12f06:	56fd                	li	a3,-1
   12f08:	01672023          	sw	s6,0(a4)
   12f0c:	c354                	sw	a3,4(a4)
   12f0e:	2d85                	addiw	s11,s11,1
   12f10:	5b7d                	li	s6,-1
   12f12:	75c2                	ld	a1,48(sp)
   12f14:	864e                	mv	a2,s3
   12f16:	854a                	mv	a0,s2
   12f18:	a15ff0ef          	jal	ra,1292c <tre_purge_regset.isra.2>
   12f1c:	577d                	li	a4,-1
   12f1e:	89d2                	mv	s3,s4
   12f20:	00e92023          	sw	a4,0(s2)
   12f24:	2c85                	addiw	s9,s9,1
   12f26:	2a05                	addiw	s4,s4,1
   12f28:	018aa703          	lw	a4,24(s5)
   12f2c:	c8e053e3          	blez	a4,12bb2 <tre_add_tags+0x25e>
   12f30:	001a099b          	addiw	s3,s4,1
   12f34:	2a09                	addiw	s4,s4,2
   12f36:	b9b5                	j	12bb2 <tre_add_tags+0x25e>
   12f38:	85d2                	mv	a1,s4
   12f3a:	874e                	mv	a4,s3
   12f3c:	b5d9                	j	12e02 <tre_add_tags+0x4ae>
   12f3e:	8522                	mv	a0,s0
   12f40:	b30ff0ef          	jal	ra,12270 <tre_stack_pop_voidptr>
   12f44:	020b8063          	beqz	s7,12f64 <tre_add_tags+0x610>
   12f48:	6514                	ld	a3,8(a0)
   12f4a:	f02a                	sd	a0,32(sp)
   12f4c:	8522                	mv	a0,s0
   12f4e:	6294                	ld	a3,0(a3)
   12f50:	5b7d                	li	s6,-1
   12f52:	01c6aa83          	lw	s5,28(a3)
   12f56:	b08ff0ef          	jal	ra,1225e <tre_stack_pop_int>
   12f5a:	7702                	ld	a4,32(sp)
   12f5c:	0155053b          	addw	a0,a0,s5
   12f60:	cf48                	sw	a0,28(a4)
   12f62:	b4ed                	j	12a4c <tre_add_tags+0xf8>
   12f64:	8522                	mv	a0,s0
   12f66:	af8ff0ef          	jal	ra,1225e <tre_stack_pop_int>
   12f6a:	8aaa                	mv	s5,a0
   12f6c:	8522                	mv	a0,s0
   12f6e:	af0ff0ef          	jal	ra,1225e <tre_stack_pop_int>
   12f72:	4785                	li	a5,1
   12f74:	e43e                	sd	a5,8(sp)
   12f76:	ac0a8be3          	beqz	s5,12a4c <tre_add_tags+0xf8>
   12f7a:	8b2a                	mv	s6,a0
   12f7c:	e402                	sd	zero,8(sp)
   12f7e:	b4f9                	j	12a4c <tre_add_tags+0xf8>
   12f80:	8522                	mv	a0,s0
   12f82:	adcff0ef          	jal	ra,1225e <tre_stack_pop_int>
   12f86:	8aaa                	mv	s5,a0
   12f88:	8522                	mv	a0,s0
   12f8a:	ad4ff0ef          	jal	ra,1225e <tre_stack_pop_int>
   12f8e:	8a2a                	mv	s4,a0
   12f90:	aa0acee3          	bltz	s5,12a4c <tre_add_tags+0xf8>
   12f94:	89d6                	mv	s3,s5
   12f96:	bc5d                	j	12a4c <tre_add_tags+0xf8>
   12f98:	8522                	mv	a0,s0
   12f9a:	ad6ff0ef          	jal	ra,12270 <tre_stack_pop_voidptr>
   12f9e:	aa0b87e3          	beqz	s7,12a4c <tre_add_tags+0xf8>
   12fa2:	6518                	ld	a4,8(a0)
   12fa4:	6714                	ld	a3,8(a4)
   12fa6:	6310                	ld	a2,0(a4)
   12fa8:	4ed4                	lw	a3,28(a3)
   12faa:	4e58                	lw	a4,28(a2)
   12fac:	9f35                	addw	a4,a4,a3
   12fae:	cd58                	sw	a4,28(a0)
   12fb0:	bc71                	j	12a4c <tre_add_tags+0xf8>
   12fb2:	0911                	addi	s2,s2,4
   12fb4:	00092703          	lw	a4,0(s2)
   12fb8:	fe075de3          	bgez	a4,12fb2 <tre_add_tags+0x65e>
   12fbc:	bc41                	j	12a4c <tre_add_tags+0xf8>
   12fbe:	8522                	mv	a0,s0
   12fc0:	ab0ff0ef          	jal	ra,12270 <tre_stack_pop_voidptr>
   12fc4:	e42a                	sd	a0,8(sp)
   12fc6:	8522                	mv	a0,s0
   12fc8:	aa8ff0ef          	jal	ra,12270 <tre_stack_pop_voidptr>
   12fcc:	e0aa                	sd	a0,64(sp)
   12fce:	8522                	mv	a0,s0
   12fd0:	aa0ff0ef          	jal	ra,12270 <tre_stack_pop_voidptr>
   12fd4:	8aaa                	mv	s5,a0
   12fd6:	8522                	mv	a0,s0
   12fd8:	a86ff0ef          	jal	ra,1225e <tre_stack_pop_int>
   12fdc:	65a2                	ld	a1,8(sp)
   12fde:	020b8263          	beqz	s7,13002 <tre_add_tags+0x6ae>
   12fe2:	008ab603          	ld	a2,8(s5)
   12fe6:	6218                	ld	a4,0(a2)
   12fe8:	6610                	ld	a2,8(a2)
   12fea:	4f58                	lw	a4,28(a4)
   12fec:	4e50                	lw	a2,28(a2)
   12fee:	9f31                	addw	a4,a4,a2
   12ff0:	9f29                	addw	a4,a4,a0
   12ff2:	018aa503          	lw	a0,24(s5)
   12ff6:	00a02533          	sgtz	a0,a0
   12ffa:	0506                	slli	a0,a0,0x1
   12ffc:	9f29                	addw	a4,a4,a0
   12ffe:	00eaae23          	sw	a4,28(s5)
   13002:	8522                	mv	a0,s0
   13004:	ecae                	sd	a1,88(sp)
   13006:	a6aff0ef          	jal	ra,12270 <tre_stack_pop_voidptr>
   1300a:	892a                	mv	s2,a0
   1300c:	8522                	mv	a0,s0
   1300e:	a50ff0ef          	jal	ra,1225e <tre_stack_pop_int>
   13012:	fc2a                	sd	a0,56(sp)
   13014:	8522                	mv	a0,s0
   13016:	a48ff0ef          	jal	ra,1225e <tre_stack_pop_int>
   1301a:	018aa703          	lw	a4,24(s5)
   1301e:	4785                	li	a5,1
   13020:	f02a                	sd	a0,32(sp)
   13022:	e43e                	sd	a5,8(sp)
   13024:	a2e054e3          	blez	a4,12a4c <tre_add_tags+0xf8>
   13028:	65e6                	ld	a1,88(sp)
   1302a:	020b9d63          	bnez	s7,13064 <tre_add_tags+0x710>
   1302e:	7662                	ld	a2,56(sp)
   13030:	6562                	ld	a0,24(sp)
   13032:	db0ff0ef          	jal	ra,125e2 <tre_add_tag_right>
   13036:	77e2                	ld	a5,56(sp)
   13038:	7c98                	ld	a4,56(s1)
   1303a:	8d2a                	mv	s10,a0
   1303c:	00279a93          	slli	s5,a5,0x2
   13040:	9aba                	add	s5,s5,a4
   13042:	4785                	li	a5,1
   13044:	00faa023          	sw	a5,0(s5)
   13048:	e519                	bnez	a0,13056 <tre_add_tags+0x702>
   1304a:	7602                	ld	a2,32(sp)
   1304c:	6586                	ld	a1,64(sp)
   1304e:	6562                	ld	a0,24(sp)
   13050:	d92ff0ef          	jal	ra,125e2 <tre_add_tag_right>
   13054:	8d2a                	mv	s10,a0
   13056:	7782                	ld	a5,32(sp)
   13058:	7c94                	ld	a3,56(s1)
   1305a:	00279713          	slli	a4,a5,0x2
   1305e:	9736                	add	a4,a4,a3
   13060:	4785                	li	a5,1
   13062:	c31c                	sw	a5,0(a4)
   13064:	4785                	li	a5,1
   13066:	2c89                	addiw	s9,s9,2
   13068:	e43e                	sd	a5,8(sp)
   1306a:	b2cd                	j	12a4c <tre_add_tags+0xf8>
   1306c:	4d31                	li	s10,12
   1306e:	baf9                	j	12a4c <tre_add_tags+0xf8>
   13070:	8d2a                	mv	s10,a0
   13072:	bae9                	j	12a4c <tre_add_tags+0xf8>

0000000000013074 <tre_make_trans>:
   13074:	711d                	addi	sp,sp,-96
   13076:	e4a6                	sd	s1,72(sp)
   13078:	e0ca                	sd	s2,64(sp)
   1307a:	ec86                	sd	ra,88(sp)
   1307c:	e8a2                	sd	s0,80(sp)
   1307e:	fc4e                	sd	s3,56(sp)
   13080:	f852                	sd	s4,48(sp)
   13082:	f456                	sd	s5,40(sp)
   13084:	f05a                	sd	s6,32(sp)
   13086:	ec5e                	sd	s7,24(sp)
   13088:	e862                	sd	s8,16(sp)
   1308a:	e466                	sd	s9,8(sp)
   1308c:	e06a                	sd	s10,0(sp)
   1308e:	84aa                	mv	s1,a0
   13090:	892e                	mv	s2,a1
   13092:	1c060163          	beqz	a2,13254 <tre_make_trans+0x1e0>
   13096:	8b32                	mv	s6,a2
   13098:	89ba                	mv	s3,a4
   1309a:	03800a13          	li	s4,56
   1309e:	5afd                	li	s5,-1
   130a0:	409c                	lw	a5,0(s1)
   130a2:	1a07cc63          	bltz	a5,1325a <tre_make_trans+0x1e6>
   130a6:	03890c13          	addi	s8,s2,56
   130aa:	57fd                	li	a5,-1
   130ac:	aa99                	j	13202 <tre_make_trans+0x18e>
   130ae:	14fc8863          	beq	s9,a5,131fe <tre_make_trans+0x18a>
   130b2:	409c                	lw	a5,0(s1)
   130b4:	078a                	slli	a5,a5,0x2
   130b6:	97ce                	add	a5,a5,s3
   130b8:	4380                	lw	s0,0(a5)
   130ba:	03440433          	mul	s0,s0,s4
   130be:	945a                	add	s0,s0,s6
   130c0:	641c                	ld	a5,8(s0)
   130c2:	e3d1                	bnez	a5,13146 <tre_make_trans+0xd2>
   130c4:	40dc                	lw	a5,4(s1)
   130c6:	7090                	ld	a2,32(s1)
   130c8:	04043023          	sd	zero,64(s0)
   130cc:	c01c                	sw	a5,0(s0)
   130ce:	449c                	lw	a5,8(s1)
   130d0:	c05c                	sw	a5,4(s0)
   130d2:	002c9793          	slli	a5,s9,0x2
   130d6:	97ce                	add	a5,a5,s3
   130d8:	439c                	lw	a5,0(a5)
   130da:	01942823          	sw	s9,16(s0)
   130de:	fe0c2703          	lw	a4,-32(s8)
   130e2:	034787b3          	mul	a5,a5,s4
   130e6:	97da                	add	a5,a5,s6
   130e8:	e41c                	sd	a5,8(s0)
   130ea:	4c9c                	lw	a5,24(s1)
   130ec:	8fd9                	or	a5,a5,a4
   130ee:	00c03733          	snez	a4,a2
   130f2:	070a                	slli	a4,a4,0x2
   130f4:	2781                	sext.w	a5,a5
   130f6:	8fd9                	or	a5,a5,a4
   130f8:	7498                	ld	a4,40(s1)
   130fa:	00e036b3          	snez	a3,a4
   130fe:	068e                	slli	a3,a3,0x3
   13100:	8fd5                	or	a5,a5,a3
   13102:	d01c                	sw	a5,32(s0)
   13104:	5894                	lw	a3,48(s1)
   13106:	0406c363          	bltz	a3,1314c <tre_make_trans+0xd8>
   1310a:	1007e793          	ori	a5,a5,256
   1310e:	d414                	sw	a3,40(s0)
   13110:	d01c                	sw	a5,32(s0)
   13112:	cb5d                	beqz	a4,131c8 <tre_make_trans+0x154>
   13114:	4501                	li	a0,0
   13116:	631c                	ld	a5,0(a4)
   13118:	2505                	addiw	a0,a0,1
   1311a:	0721                	addi	a4,a4,8
   1311c:	ffed                	bnez	a5,13116 <tre_make_trans+0xa2>
   1311e:	050e                	slli	a0,a0,0x3
   13120:	af7fe0ef          	jal	ra,11c16 <malloc>
   13124:	f808                	sd	a0,48(s0)
   13126:	e50d                	bnez	a0,13150 <tre_make_trans+0xdc>
   13128:	4531                	li	a0,12
   1312a:	60e6                	ld	ra,88(sp)
   1312c:	6446                	ld	s0,80(sp)
   1312e:	64a6                	ld	s1,72(sp)
   13130:	6906                	ld	s2,64(sp)
   13132:	79e2                	ld	s3,56(sp)
   13134:	7a42                	ld	s4,48(sp)
   13136:	7aa2                	ld	s5,40(sp)
   13138:	7b02                	ld	s6,32(sp)
   1313a:	6be2                	ld	s7,24(sp)
   1313c:	6c42                	ld	s8,16(sp)
   1313e:	6ca2                	ld	s9,8(sp)
   13140:	6d02                	ld	s10,0(sp)
   13142:	6125                	addi	sp,sp,96
   13144:	8082                	ret
   13146:	03840413          	addi	s0,s0,56
   1314a:	bf9d                	j	130c0 <tre_make_trans+0x4c>
   1314c:	f410                	sd	a2,40(s0)
   1314e:	b7d1                	j	13112 <tre_make_trans+0x9e>
   13150:	749c                	ld	a5,40(s1)
   13152:	6398                	ld	a4,0(a5)
   13154:	07a1                	addi	a5,a5,8
   13156:	e735                	bnez	a4,131c2 <tre_make_trans+0x14e>
   13158:	00053023          	sd	zero,0(a0)
   1315c:	6894                	ld	a3,16(s1)
   1315e:	4b81                	li	s7,0
   13160:	ce81                	beqz	a3,13178 <tre_make_trans+0x104>
   13162:	4781                	li	a5,0
   13164:	00078b9b          	sext.w	s7,a5
   13168:	0785                	addi	a5,a5,1
   1316a:	00279713          	slli	a4,a5,0x2
   1316e:	9736                	add	a4,a4,a3
   13170:	ffc72703          	lw	a4,-4(a4)
   13174:	fe0758e3          	bgez	a4,13164 <tre_make_trans+0xf0>
   13178:	fd8c3683          	ld	a3,-40(s8)
   1317c:	4d01                	li	s10,0
   1317e:	ce81                	beqz	a3,13196 <tre_make_trans+0x122>
   13180:	4781                	li	a5,0
   13182:	00078d1b          	sext.w	s10,a5
   13186:	0785                	addi	a5,a5,1
   13188:	00279713          	slli	a4,a5,0x2
   1318c:	9736                	add	a4,a4,a3
   1318e:	ffc72703          	lw	a4,-4(a4)
   13192:	fe0758e3          	bgez	a4,13182 <tre_make_trans+0x10e>
   13196:	6c08                	ld	a0,24(s0)
   13198:	c119                	beqz	a0,1319e <tre_make_trans+0x12a>
   1319a:	879fe0ef          	jal	ra,11a12 <free>
   1319e:	00043c23          	sd	zero,24(s0)
   131a2:	01ab87bb          	addw	a5,s7,s10
   131a6:	cbb9                	beqz	a5,131fc <tre_make_trans+0x188>
   131a8:	00178b9b          	addiw	s7,a5,1
   131ac:	002b9513          	slli	a0,s7,0x2
   131b0:	a67fe0ef          	jal	ra,11c16 <malloc>
   131b4:	ec08                	sd	a0,24(s0)
   131b6:	d92d                	beqz	a0,13128 <tre_make_trans+0xb4>
   131b8:	688c                	ld	a1,16(s1)
   131ba:	4681                	li	a3,0
   131bc:	c58d                	beqz	a1,131e6 <tre_make_trans+0x172>
   131be:	4701                	li	a4,0
   131c0:	a811                	j	131d4 <tre_make_trans+0x160>
   131c2:	e118                	sd	a4,0(a0)
   131c4:	0521                	addi	a0,a0,8
   131c6:	b771                	j	13152 <tre_make_trans+0xde>
   131c8:	02043823          	sd	zero,48(s0)
   131cc:	bf41                	j	1315c <tre_make_trans+0xe8>
   131ce:	97aa                	add	a5,a5,a0
   131d0:	c390                	sw	a2,0(a5)
   131d2:	0705                	addi	a4,a4,1
   131d4:	00271793          	slli	a5,a4,0x2
   131d8:	00f58633          	add	a2,a1,a5
   131dc:	4210                	lw	a2,0(a2)
   131de:	0007069b          	sext.w	a3,a4
   131e2:	fe0656e3          	bgez	a2,131ce <tre_make_trans+0x15a>
   131e6:	fd8c3703          	ld	a4,-40(s8)
   131ea:	87b6                	mv	a5,a3
   131ec:	c701                	beqz	a4,131f4 <tre_make_trans+0x180>
   131ee:	430c                	lw	a1,0(a4)
   131f0:	0205da63          	bgez	a1,13224 <tre_make_trans+0x1b0>
   131f4:	078a                	slli	a5,a5,0x2
   131f6:	97aa                	add	a5,a5,a0
   131f8:	0157a023          	sw	s5,0(a5)
   131fc:	87e6                	mv	a5,s9
   131fe:	038c0c13          	addi	s8,s8,56
   13202:	fc8c2c83          	lw	s9,-56(s8)
   13206:	ea0cd4e3          	bgez	s9,130ae <tre_make_trans+0x3a>
   1320a:	03848493          	addi	s1,s1,56
   1320e:	bd49                	j	130a0 <tre_make_trans+0x2c>
   13210:	0605                	addi	a2,a2,1
   13212:	00261813          	slli	a6,a2,0x2
   13216:	982a                	add	a6,a6,a0
   13218:	ffc82803          	lw	a6,-4(a6)
   1321c:	00b81563          	bne	a6,a1,13226 <tre_make_trans+0x1b2>
   13220:	0711                	addi	a4,a4,4
   13222:	b7f1                	j	131ee <tre_make_trans+0x17a>
   13224:	4601                	li	a2,0
   13226:	0006081b          	sext.w	a6,a2
   1322a:	fed843e3          	blt	a6,a3,13210 <tre_make_trans+0x19c>
   1322e:	00279613          	slli	a2,a5,0x2
   13232:	962a                	add	a2,a2,a0
   13234:	c20c                	sw	a1,0(a2)
   13236:	2785                	addiw	a5,a5,1
   13238:	b7e5                	j	13220 <tre_make_trans+0x1ac>
   1323a:	409c                	lw	a5,0(s1)
   1323c:	03870713          	addi	a4,a4,56
   13240:	078a                	slli	a5,a5,0x2
   13242:	97b6                	add	a5,a5,a3
   13244:	4390                	lw	a2,0(a5)
   13246:	2605                	addiw	a2,a2,1
   13248:	c390                	sw	a2,0(a5)
   1324a:	431c                	lw	a5,0(a4)
   1324c:	fe07d7e3          	bgez	a5,1323a <tre_make_trans+0x1c6>
   13250:	03848493          	addi	s1,s1,56
   13254:	409c                	lw	a5,0(s1)
   13256:	0007d463          	bgez	a5,1325e <tre_make_trans+0x1ea>
   1325a:	4501                	li	a0,0
   1325c:	b5f9                	j	1312a <tre_make_trans+0xb6>
   1325e:	874a                	mv	a4,s2
   13260:	b7ed                	j	1324a <tre_make_trans+0x1d6>

0000000000013262 <tre_ast_to_tnfa>:
   13262:	715d                	addi	sp,sp,-80
   13264:	e0a2                	sd	s0,64(sp)
   13266:	fc26                	sd	s1,56(sp)
   13268:	f84a                	sd	s2,48(sp)
   1326a:	f052                	sd	s4,32(sp)
   1326c:	ec56                	sd	s5,24(sp)
   1326e:	e85a                	sd	s6,16(sp)
   13270:	e45e                	sd	s7,8(sp)
   13272:	e486                	sd	ra,72(sp)
   13274:	f44e                	sd	s3,40(sp)
   13276:	842e                	mv	s0,a1
   13278:	84b2                	mv	s1,a2
   1327a:	8936                	mv	s2,a3
   1327c:	4a09                	li	s4,2
   1327e:	5afd                	li	s5,-1
   13280:	4b0d                	li	s6,3
   13282:	4b85                	li	s7,1
   13284:	411c                	lw	a5,0(a0)
   13286:	05478e63          	beq	a5,s4,132e2 <tre_ast_to_tnfa+0x80>
   1328a:	03678063          	beq	a5,s6,132aa <tre_ast_to_tnfa+0x48>
   1328e:	03778b63          	beq	a5,s7,132c4 <tre_ast_to_tnfa+0x62>
   13292:	4501                	li	a0,0
   13294:	60a6                	ld	ra,72(sp)
   13296:	6406                	ld	s0,64(sp)
   13298:	74e2                	ld	s1,56(sp)
   1329a:	7942                	ld	s2,48(sp)
   1329c:	79a2                	ld	s3,40(sp)
   1329e:	7a02                	ld	s4,32(sp)
   132a0:	6ae2                	ld	s5,24(sp)
   132a2:	6b42                	ld	s6,16(sp)
   132a4:	6ba2                	ld	s7,8(sp)
   132a6:	6161                	addi	sp,sp,80
   132a8:	8082                	ret
   132aa:	00853983          	ld	s3,8(a0)
   132ae:	0009b503          	ld	a0,0(s3)
   132b2:	86ca                	mv	a3,s2
   132b4:	8626                	mv	a2,s1
   132b6:	85a2                	mv	a1,s0
   132b8:	fabff0ef          	jal	ra,13262 <tre_ast_to_tnfa>
   132bc:	fd61                	bnez	a0,13294 <tre_ast_to_tnfa+0x32>
   132be:	0089b503          	ld	a0,8(s3)
   132c2:	b7c9                	j	13284 <tre_ast_to_tnfa+0x22>
   132c4:	00853983          	ld	s3,8(a0)
   132c8:	874a                	mv	a4,s2
   132ca:	86a6                	mv	a3,s1
   132cc:	0089b583          	ld	a1,8(s3)
   132d0:	0009b783          	ld	a5,0(s3)
   132d4:	8622                	mv	a2,s0
   132d6:	718c                	ld	a1,32(a1)
   132d8:	7788                	ld	a0,40(a5)
   132da:	d9bff0ef          	jal	ra,13074 <tre_make_trans>
   132de:	d961                	beqz	a0,132ae <tre_ast_to_tnfa+0x4c>
   132e0:	bf55                	j	13294 <tre_ast_to_tnfa+0x32>
   132e2:	00853983          	ld	s3,8(a0)
   132e6:	00c9a783          	lw	a5,12(s3)
   132ea:	01578563          	beq	a5,s5,132f4 <tre_ast_to_tnfa+0x92>
   132ee:	0009b503          	ld	a0,0(s3)
   132f2:	bf49                	j	13284 <tre_ast_to_tnfa+0x22>
   132f4:	0009b783          	ld	a5,0(s3)
   132f8:	874a                	mv	a4,s2
   132fa:	86a6                	mv	a3,s1
   132fc:	738c                	ld	a1,32(a5)
   132fe:	7788                	ld	a0,40(a5)
   13300:	8622                	mv	a2,s0
   13302:	d73ff0ef          	jal	ra,13074 <tre_make_trans>
   13306:	d565                	beqz	a0,132ee <tre_ast_to_tnfa+0x8c>
   13308:	b771                	j	13294 <tre_ast_to_tnfa+0x32>

000000000001330a <tre_ast_new_union>:
   1330a:	7179                	addi	sp,sp,-48
   1330c:	f022                	sd	s0,32(sp)
   1330e:	f406                	sd	ra,40(sp)
   13310:	ec26                	sd	s1,24(sp)
   13312:	e84a                	sd	s2,16(sp)
   13314:	e44e                	sd	s3,8(sp)
   13316:	8432                	mv	s0,a2
   13318:	c995                	beqz	a1,1334c <tre_ast_new_union+0x42>
   1331a:	4601                	li	a2,0
   1331c:	84ae                	mv	s1,a1
   1331e:	4741                	li	a4,16
   13320:	4581                	li	a1,0
   13322:	4685                	li	a3,1
   13324:	89aa                	mv	s3,a0
   13326:	4c4020ef          	jal	ra,157ea <__tre_mem_alloc_impl>
   1332a:	892a                	mv	s2,a0
   1332c:	862a                	mv	a2,a0
   1332e:	458d                	li	a1,3
   13330:	854e                	mv	a0,s3
   13332:	952ff0ef          	jal	ra,12484 <tre_ast_new_node>
   13336:	c11d                	beqz	a0,1335c <tre_ast_new_union+0x52>
   13338:	c811                	beqz	s0,1334c <tre_ast_new_union+0x42>
   1333a:	4c18                	lw	a4,24(s0)
   1333c:	4c9c                	lw	a5,24(s1)
   1333e:	00893423          	sd	s0,8(s2)
   13342:	00993023          	sd	s1,0(s2)
   13346:	9fb9                	addw	a5,a5,a4
   13348:	cd1c                	sw	a5,24(a0)
   1334a:	842a                	mv	s0,a0
   1334c:	8522                	mv	a0,s0
   1334e:	70a2                	ld	ra,40(sp)
   13350:	7402                	ld	s0,32(sp)
   13352:	64e2                	ld	s1,24(sp)
   13354:	6942                	ld	s2,16(sp)
   13356:	69a2                	ld	s3,8(sp)
   13358:	6145                	addi	sp,sp,48
   1335a:	8082                	ret
   1335c:	4401                	li	s0,0
   1335e:	b7fd                	j	1334c <tre_ast_new_union+0x42>

0000000000013360 <parse_bracket>:
   13360:	611c                	ld	a5,0(a0)
   13362:	d6010113          	addi	sp,sp,-672
   13366:	29213023          	sd	s2,640(sp)
   1336a:	f03e                	sd	a5,32(sp)
   1336c:	4785                	li	a5,1
   1336e:	1796                	slli	a5,a5,0x25
   13370:	892a                	mv	s2,a0
   13372:	10000513          	li	a0,256
   13376:	28813823          	sd	s0,656(sp)
   1337a:	27513423          	sd	s5,616(sp)
   1337e:	28113c23          	sd	ra,664(sp)
   13382:	28913423          	sd	s1,648(sp)
   13386:	27313c23          	sd	s3,632(sp)
   1338a:	27413823          	sd	s4,624(sp)
   1338e:	27613023          	sd	s6,608(sp)
   13392:	25713c23          	sd	s7,600(sp)
   13396:	25813823          	sd	s8,592(sp)
   1339a:	25913423          	sd	s9,584(sp)
   1339e:	8aae                	mv	s5,a1
   133a0:	f83e                	sd	a5,48(sp)
   133a2:	875fe0ef          	jal	ra,11c16 <malloc>
   133a6:	f42a                	sd	a0,40(sp)
   133a8:	4431                	li	s0,12
   133aa:	cd21                	beqz	a0,13402 <parse_bracket+0xa2>
   133ac:	000ac703          	lbu	a4,0(s5)
   133b0:	de02                	sw	zero,60(sp)
   133b2:	05e00693          	li	a3,94
   133b6:	fa270793          	addi	a5,a4,-94
   133ba:	0017b793          	seqz	a5,a5
   133be:	dc3e                	sw	a5,56(sp)
   133c0:	00d71363          	bne	a4,a3,133c6 <parse_bracket+0x66>
   133c4:	0a85                	addi	s5,s5,1
   133c6:	00110b37          	lui	s6,0x110
   133ca:	8456                	mv	s0,s5
   133cc:	5bfd                	li	s7,-1
   133ce:	03a00c13          	li	s8,58
   133d2:	1b7d                	addi	s6,s6,-1
   133d4:	567d                	li	a2,-1
   133d6:	85a2                	mv	a1,s0
   133d8:	0068                	addi	a0,sp,12
   133da:	09f060ef          	jal	ra,19c78 <mbtowc>
   133de:	00044783          	lbu	a5,0(s0)
   133e2:	04a04a63          	bgtz	a0,13436 <parse_bracket+0xd6>
   133e6:	4409                	li	s0,2
   133e8:	e391                	bnez	a5,133ec <parse_bracket+0x8c>
   133ea:	441d                	li	s0,7
   133ec:	4481                	li	s1,0
   133ee:	7522                	ld	a0,40(sp)
   133f0:	e22fe0ef          	jal	ra,11a12 <free>
   133f4:	02c92783          	lw	a5,44(s2)
   133f8:	00993823          	sd	s1,16(s2)
   133fc:	2785                	addiw	a5,a5,1
   133fe:	02f92623          	sw	a5,44(s2)
   13402:	8522                	mv	a0,s0
   13404:	29813083          	ld	ra,664(sp)
   13408:	29013403          	ld	s0,656(sp)
   1340c:	28813483          	ld	s1,648(sp)
   13410:	28013903          	ld	s2,640(sp)
   13414:	27813983          	ld	s3,632(sp)
   13418:	27013a03          	ld	s4,624(sp)
   1341c:	26813a83          	ld	s5,616(sp)
   13420:	26013b03          	ld	s6,608(sp)
   13424:	25813b83          	ld	s7,600(sp)
   13428:	25013c03          	ld	s8,592(sp)
   1342c:	24813c83          	ld	s9,584(sp)
   13430:	2a010113          	addi	sp,sp,672
   13434:	8082                	ret
   13436:	05d00713          	li	a4,93
   1343a:	02e79663          	bne	a5,a4,13466 <parse_bracket+0x106>
   1343e:	0c8a8c63          	beq	s5,s0,13516 <parse_bracket+0x1b6>
   13442:	57e2                	lw	a5,56(sp)
   13444:	0405                	addi	s0,s0,1
   13446:	00893c23          	sd	s0,24(s2)
   1344a:	1a079b63          	bnez	a5,13600 <parse_bracket+0x2a0>
   1344e:	4a01                	li	s4,0
   13450:	4981                	li	s3,0
   13452:	4481                	li	s1,0
   13454:	4401                	li	s0,0
   13456:	56c2                	lw	a3,48(sp)
   13458:	0009871b          	sext.w	a4,s3
   1345c:	77a2                	ld	a5,40(sp)
   1345e:	20d74d63          	blt	a4,a3,13678 <parse_bracket+0x318>
   13462:	4401                	li	s0,0
   13464:	b769                	j	133ee <parse_bracket+0x8e>
   13466:	02d00693          	li	a3,45
   1346a:	02d79063          	bne	a5,a3,1348a <parse_bracket+0x12a>
   1346e:	0a8a8463          	beq	s5,s0,13516 <parse_bracket+0x1b6>
   13472:	00144683          	lbu	a3,1(s0)
   13476:	0ae68063          	beq	a3,a4,13516 <parse_bracket+0x1b6>
   1347a:	00f69663          	bne	a3,a5,13486 <parse_bracket+0x126>
   1347e:	00244783          	lbu	a5,2(s0)
   13482:	08e79a63          	bne	a5,a4,13516 <parse_bracket+0x1b6>
   13486:	442d                	li	s0,11
   13488:	b795                	j	133ec <parse_bracket+0x8c>
   1348a:	05b00713          	li	a4,91
   1348e:	08e79463          	bne	a5,a4,13516 <parse_bracket+0x1b6>
   13492:	00144783          	lbu	a5,1(s0)
   13496:	02e00713          	li	a4,46
   1349a:	22e78a63          	beq	a5,a4,136ce <parse_bracket+0x36e>
   1349e:	03d00713          	li	a4,61
   134a2:	22e78663          	beq	a5,a4,136ce <parse_bracket+0x36e>
   134a6:	07879863          	bne	a5,s8,13516 <parse_bracket+0x1b6>
   134aa:	00240a13          	addi	s4,s0,2
   134ae:	4481                	li	s1,0
   134b0:	4739                	li	a4,14
   134b2:	009407b3          	add	a5,s0,s1
   134b6:	0027c783          	lbu	a5,2(a5)
   134ba:	0004899b          	sext.w	s3,s1
   134be:	c38d                	beqz	a5,134e0 <parse_bracket+0x180>
   134c0:	03879263          	bne	a5,s8,134e4 <parse_bracket+0x184>
   134c4:	8626                	mv	a2,s1
   134c6:	85d2                	mv	a1,s4
   134c8:	0808                	addi	a0,sp,16
   134ca:	4e2040ef          	jal	ra,179ac <memcpy>
   134ce:	049c                	addi	a5,sp,576
   134d0:	99be                	add	s3,s3,a5
   134d2:	0808                	addi	a0,sp,16
   134d4:	dc098823          	sb	zero,-560(s3)
   134d8:	2f9050ef          	jal	ra,18fd0 <wctype>
   134dc:	89aa                	mv	s3,a0
   134de:	e519                	bnez	a0,134ec <parse_bracket+0x18c>
   134e0:	4411                	li	s0,4
   134e2:	b729                	j	133ec <parse_bracket+0x8c>
   134e4:	0485                	addi	s1,s1,1
   134e6:	fce496e3          	bne	s1,a4,134b2 <parse_bracket+0x152>
   134ea:	bfdd                	j	134e0 <parse_bracket+0x180>
   134ec:	009a07b3          	add	a5,s4,s1
   134f0:	0017c703          	lbu	a4,1(a5)
   134f4:	05d00793          	li	a5,93
   134f8:	fef714e3          	bne	a4,a5,134e0 <parse_bracket+0x180>
   134fc:	00248413          	addi	s0,s1,2
   13500:	54e2                	lw	s1,56(sp)
   13502:	9452                	add	s0,s0,s4
   13504:	8a5a                	mv	s4,s6
   13506:	c0b9                	beqz	s1,1354c <parse_bracket+0x1ec>
   13508:	57f2                	lw	a5,60(sp)
   1350a:	03f00713          	li	a4,63
   1350e:	08f75f63          	bge	a4,a5,135ac <parse_bracket+0x24c>
   13512:	4431                	li	s0,12
   13514:	bde1                	j	133ec <parse_bracket+0x8c>
   13516:	942a                	add	s0,s0,a0
   13518:	00044703          	lbu	a4,0(s0)
   1351c:	02d00793          	li	a5,45
   13520:	44b2                	lw	s1,12(sp)
   13522:	08f71e63          	bne	a4,a5,135be <parse_bracket+0x25e>
   13526:	00144703          	lbu	a4,1(s0)
   1352a:	05d00793          	li	a5,93
   1352e:	08f70863          	beq	a4,a5,135be <parse_bracket+0x25e>
   13532:	0405                	addi	s0,s0,1
   13534:	567d                	li	a2,-1
   13536:	85a2                	mv	a1,s0
   13538:	0068                	addi	a0,sp,12
   1353a:	73e060ef          	jal	ra,19c78 <mbtowc>
   1353e:	4a32                	lw	s4,12(sp)
   13540:	f4a053e3          	blez	a0,13486 <parse_bracket+0x126>
   13544:	f49a41e3          	blt	s4,s1,13486 <parse_bracket+0x126>
   13548:	942a                	add	s0,s0,a0
   1354a:	4981                	li	s3,0
   1354c:	1008                	addi	a0,sp,32
   1354e:	edffe0ef          	jal	ra,1242c <tre_new_lit>
   13552:	d161                	beqz	a0,13512 <parse_bracket+0x1b2>
   13554:	03492783          	lw	a5,52(s2)
   13558:	e104                	sd	s1,0(a0)
   1355a:	01453423          	sd	s4,8(a0)
   1355e:	01353c23          	sd	s3,24(a0)
   13562:	01752823          	sw	s7,16(a0)
   13566:	8b89                	andi	a5,a5,2
   13568:	e60786e3          	beqz	a5,133d4 <parse_bracket+0x74>
   1356c:	e60994e3          	bnez	s3,133d4 <parse_bracket+0x74>
   13570:	e69a42e3          	blt	s4,s1,133d4 <parse_bracket+0x74>
   13574:	0004899b          	sext.w	s3,s1
   13578:	854e                	mv	a0,s3
   1357a:	2cd050ef          	jal	ra,19046 <iswlower>
   1357e:	2485                	addiw	s1,s1,1
   13580:	c931                	beqz	a0,135d4 <parse_bracket+0x274>
   13582:	854e                	mv	a0,s3
   13584:	547050ef          	jal	ra,192ca <towupper>
   13588:	00050c9b          	sext.w	s9,a0
   1358c:	001c899b          	addiw	s3,s9,1
   13590:	029a5963          	bge	s4,s1,135c2 <parse_bracket+0x262>
   13594:	1008                	addi	a0,sp,32
   13596:	e97fe0ef          	jal	ra,1242c <tre_new_lit>
   1359a:	dd25                	beqz	a0,13512 <parse_bracket+0x1b2>
   1359c:	39fd                	addiw	s3,s3,-1
   1359e:	01953023          	sd	s9,0(a0)
   135a2:	01353423          	sd	s3,8(a0)
   135a6:	01752823          	sw	s7,16(a0)
   135aa:	b7d9                	j	13570 <parse_bracket+0x210>
   135ac:	0017871b          	addiw	a4,a5,1
   135b0:	de3a                	sw	a4,60(sp)
   135b2:	078e                	slli	a5,a5,0x3
   135b4:	0498                	addi	a4,sp,576
   135b6:	97ba                	add	a5,a5,a4
   135b8:	e0a7b023          	sd	a0,-512(a5)
   135bc:	bd21                	j	133d4 <parse_bracket+0x74>
   135be:	8a26                	mv	s4,s1
   135c0:	b769                	j	1354a <parse_bracket+0x1ea>
   135c2:	8526                	mv	a0,s1
   135c4:	507050ef          	jal	ra,192ca <towupper>
   135c8:	2501                	sext.w	a0,a0
   135ca:	fd3515e3          	bne	a0,s3,13594 <parse_bracket+0x234>
   135ce:	2485                	addiw	s1,s1,1
   135d0:	2985                	addiw	s3,s3,1
   135d2:	bf7d                	j	13590 <parse_bracket+0x230>
   135d4:	854e                	mv	a0,s3
   135d6:	35d050ef          	jal	ra,19132 <iswupper>
   135da:	d959                	beqz	a0,13570 <parse_bracket+0x210>
   135dc:	854e                	mv	a0,s3
   135de:	503050ef          	jal	ra,192e0 <towlower>
   135e2:	00050c9b          	sext.w	s9,a0
   135e6:	001c899b          	addiw	s3,s9,1
   135ea:	fa9a45e3          	blt	s4,s1,13594 <parse_bracket+0x234>
   135ee:	8526                	mv	a0,s1
   135f0:	4f1050ef          	jal	ra,192e0 <towlower>
   135f4:	2501                	sext.w	a0,a0
   135f6:	f9351fe3          	bne	a0,s3,13594 <parse_bracket+0x234>
   135fa:	2485                	addiw	s1,s1,1
   135fc:	2985                	addiw	s3,s3,1
   135fe:	b7f5                	j	135ea <parse_bracket+0x28a>
   13600:	03492783          	lw	a5,52(s2)
   13604:	8b91                	andi	a5,a5,4
   13606:	cb99                	beqz	a5,1361c <parse_bracket+0x2bc>
   13608:	1008                	addi	a0,sp,32
   1360a:	e23fe0ef          	jal	ra,1242c <tre_new_lit>
   1360e:	f00502e3          	beqz	a0,13512 <parse_bracket+0x1b2>
   13612:	47a9                	li	a5,10
   13614:	e11c                	sd	a5,0(a0)
   13616:	e51c                	sd	a5,8(a0)
   13618:	57fd                	li	a5,-1
   1361a:	c91c                	sw	a5,16(a0)
   1361c:	7522                	ld	a0,40(sp)
   1361e:	55c2                	lw	a1,48(sp)
   13620:	000126b7          	lui	a3,0x12
   13624:	28268693          	addi	a3,a3,642 # 12282 <tre_compare_lit>
   13628:	4621                	li	a2,8
   1362a:	148040ef          	jal	ra,17772 <qsort>
   1362e:	1008                	addi	a0,sp,32
   13630:	dfdfe0ef          	jal	ra,1242c <tre_new_lit>
   13634:	ec050fe3          	beqz	a0,13512 <parse_bracket+0x1b2>
   13638:	001107b7          	lui	a5,0x110
   1363c:	5772                	lw	a4,60(sp)
   1363e:	e11c                	sd	a5,0(a0)
   13640:	e51c                	sd	a5,8(a0)
   13642:	57fd                	li	a5,-1
   13644:	c91c                	sw	a5,16(a0)
   13646:	e00704e3          	beqz	a4,1344e <parse_bracket+0xee>
   1364a:	00093503          	ld	a0,0(s2)
   1364e:	2705                	addiw	a4,a4,1
   13650:	070e                	slli	a4,a4,0x3
   13652:	4681                	li	a3,0
   13654:	4601                	li	a2,0
   13656:	4581                	li	a1,0
   13658:	192020ef          	jal	ra,157ea <__tre_mem_alloc_impl>
   1365c:	8a2a                	mv	s4,a0
   1365e:	ea050ae3          	beqz	a0,13512 <parse_bracket+0x1b2>
   13662:	5672                	lw	a2,60(sp)
   13664:	008c                	addi	a1,sp,64
   13666:	060e                	slli	a2,a2,0x3
   13668:	344040ef          	jal	ra,179ac <memcpy>
   1366c:	57f2                	lw	a5,60(sp)
   1366e:	078e                	slli	a5,a5,0x3
   13670:	97d2                	add	a5,a5,s4
   13672:	0007b023          	sd	zero,0(a5) # 110000 <_end+0xeb048>
   13676:	bbe9                	j	13450 <parse_bracket+0xf0>
   13678:	00399713          	slli	a4,s3,0x3
   1367c:	97ba                	add	a5,a5,a4
   1367e:	6390                	ld	a2,0(a5)
   13680:	57e2                	lw	a5,56(sp)
   13682:	c39d                	beqz	a5,136a8 <parse_bracket+0x348>
   13684:	6618                	ld	a4,8(a2)
   13686:	421c                	lw	a5,0(a2)
   13688:	0017069b          	addiw	a3,a4,1
   1368c:	00f44a63          	blt	s0,a5,136a0 <parse_bracket+0x340>
   13690:	87a2                	mv	a5,s0
   13692:	00d45363          	bge	s0,a3,13698 <parse_bracket+0x338>
   13696:	87b6                	mv	a5,a3
   13698:	0007841b          	sext.w	s0,a5
   1369c:	0985                	addi	s3,s3,1
   1369e:	bb65                	j	13456 <parse_bracket+0xf6>
   136a0:	37fd                	addiw	a5,a5,-1
   136a2:	e200                	sd	s0,0(a2)
   136a4:	e61c                	sd	a5,8(a2)
   136a6:	8436                	mv	s0,a3
   136a8:	02c92783          	lw	a5,44(s2)
   136ac:	00093503          	ld	a0,0(s2)
   136b0:	03463023          	sd	s4,32(a2)
   136b4:	ca1c                	sw	a5,16(a2)
   136b6:	4581                	li	a1,0
   136b8:	dcdfe0ef          	jal	ra,12484 <tre_ast_new_node>
   136bc:	862a                	mv	a2,a0
   136be:	00093503          	ld	a0,0(s2)
   136c2:	85a6                	mv	a1,s1
   136c4:	c47ff0ef          	jal	ra,1330a <tre_ast_new_union>
   136c8:	84aa                	mv	s1,a0
   136ca:	f969                	bnez	a0,1369c <parse_bracket+0x33c>
   136cc:	b599                	j	13512 <parse_bracket+0x1b2>
   136ce:	440d                	li	s0,3
   136d0:	bb31                	j	133ec <parse_bracket+0x8c>

00000000000136d2 <parse_atom>:
   136d2:	715d                	addi	sp,sp,-80
   136d4:	e0a2                	sd	s0,64(sp)
   136d6:	fc26                	sd	s1,56(sp)
   136d8:	e486                	sd	ra,72(sp)
   136da:	f84a                	sd	s2,48(sp)
   136dc:	f44e                	sd	s3,40(sp)
   136de:	f052                	sd	s4,32(sp)
   136e0:	5950                	lw	a2,52(a0)
   136e2:	0005c783          	lbu	a5,0(a1)
   136e6:	03f00693          	li	a3,63
   136ea:	842a                	mv	s0,a0
   136ec:	84ae                	mv	s1,a1
   136ee:	00167713          	andi	a4,a2,1
   136f2:	32d78663          	beq	a5,a3,13a1e <parse_atom+0x34c>
   136f6:	0ef6e663          	bltu	a3,a5,137e2 <parse_atom+0x110>
   136fa:	02b00693          	li	a3,43
   136fe:	08f6eb63          	bltu	a3,a5,13794 <parse_atom+0xc2>
   13702:	02a00693          	li	a3,42
   13706:	30d7fc63          	bgeu	a5,a3,13a1e <parse_atom+0x34c>
   1370a:	20078d63          	beqz	a5,13924 <parse_atom+0x252>
   1370e:	02400693          	li	a3,36
   13712:	2ed78163          	beq	a5,a3,139f4 <parse_atom+0x322>
   13716:	567d                	li	a2,-1
   13718:	85a6                	mv	a1,s1
   1371a:	0868                	addi	a0,sp,28
   1371c:	55c060ef          	jal	ra,19c78 <mbtowc>
   13720:	89aa                	mv	s3,a0
   13722:	4509                	li	a0,2
   13724:	1209c363          	bltz	s3,1384a <parse_atom+0x178>
   13728:	585c                	lw	a5,52(s0)
   1372a:	8b89                	andi	a5,a5,2
   1372c:	30078263          	beqz	a5,13a30 <parse_atom+0x35e>
   13730:	4572                	lw	a0,28(sp)
   13732:	201050ef          	jal	ra,19132 <iswupper>
   13736:	2e050863          	beqz	a0,13a26 <parse_atom+0x354>
   1373a:	4572                	lw	a0,28(sp)
   1373c:	00043903          	ld	s2,0(s0)
   13740:	38b050ef          	jal	ra,192ca <towupper>
   13744:	0005059b          	sext.w	a1,a0
   13748:	4572                	lw	a0,28(sp)
   1374a:	e42e                	sd	a1,8(sp)
   1374c:	37f050ef          	jal	ra,192ca <towupper>
   13750:	5454                	lw	a3,44(s0)
   13752:	65a2                	ld	a1,8(sp)
   13754:	0005061b          	sext.w	a2,a0
   13758:	854a                	mv	a0,s2
   1375a:	dc5fe0ef          	jal	ra,1251e <tre_ast_new_literal>
   1375e:	892a                	mv	s2,a0
   13760:	4572                	lw	a0,28(sp)
   13762:	00043a03          	ld	s4,0(s0)
   13766:	37b050ef          	jal	ra,192e0 <towlower>
   1376a:	0005059b          	sext.w	a1,a0
   1376e:	4572                	lw	a0,28(sp)
   13770:	e42e                	sd	a1,8(sp)
   13772:	36f050ef          	jal	ra,192e0 <towlower>
   13776:	5454                	lw	a3,44(s0)
   13778:	65a2                	ld	a1,8(sp)
   1377a:	0005061b          	sext.w	a2,a0
   1377e:	8552                	mv	a0,s4
   13780:	d9ffe0ef          	jal	ra,1251e <tre_ast_new_literal>
   13784:	862a                	mv	a2,a0
   13786:	2a091c63          	bnez	s2,13a3e <parse_atom+0x36c>
   1378a:	545c                	lw	a5,44(s0)
   1378c:	94ce                	add	s1,s1,s3
   1378e:	2785                	addiw	a5,a5,1
   13790:	d45c                	sw	a5,44(s0)
   13792:	aa85                	j	13902 <parse_atom+0x230>
   13794:	02e00713          	li	a4,46
   13798:	f6e79fe3          	bne	a5,a4,13716 <parse_atom+0x44>
   1379c:	5554                	lw	a3,44(a0)
   1379e:	8a11                	andi	a2,a2,4
   137a0:	6108                	ld	a0,0(a0)
   137a2:	0016879b          	addiw	a5,a3,1
   137a6:	d45c                	sw	a5,44(s0)
   137a8:	22060363          	beqz	a2,139ce <parse_atom+0x2fc>
   137ac:	4625                	li	a2,9
   137ae:	4581                	li	a1,0
   137b0:	d6ffe0ef          	jal	ra,1251e <tre_ast_new_literal>
   137b4:	5454                	lw	a3,44(s0)
   137b6:	892a                	mv	s2,a0
   137b8:	6008                	ld	a0,0(s0)
   137ba:	0016879b          	addiw	a5,a3,1
   137be:	00110637          	lui	a2,0x110
   137c2:	167d                	addi	a2,a2,-1
   137c4:	d45c                	sw	a5,44(s0)
   137c6:	45ad                	li	a1,11
   137c8:	d57fe0ef          	jal	ra,1251e <tre_ast_new_literal>
   137cc:	862a                	mv	a2,a0
   137ce:	20090863          	beqz	s2,139de <parse_atom+0x30c>
   137d2:	20050563          	beqz	a0,139dc <parse_atom+0x30a>
   137d6:	6008                	ld	a0,0(s0)
   137d8:	85ca                	mv	a1,s2
   137da:	b31ff0ef          	jal	ra,1330a <tre_ast_new_union>
   137de:	892a                	mv	s2,a0
   137e0:	aafd                	j	139de <parse_atom+0x30c>
   137e2:	05e00693          	li	a3,94
   137e6:	1ed78e63          	beq	a5,a3,139e2 <parse_atom+0x310>
   137ea:	04f6e363          	bltu	a3,a5,13830 <parse_atom+0x15e>
   137ee:	05b00693          	li	a3,91
   137f2:	04d78963          	beq	a5,a3,13844 <parse_atom+0x172>
   137f6:	05c00693          	li	a3,92
   137fa:	f0d79ee3          	bne	a5,a3,13716 <parse_atom+0x44>
   137fe:	000207b7          	lui	a5,0x20
   13802:	98078613          	addi	a2,a5,-1664 # 1f980 <tre_macros>
   13806:	4681                	li	a3,0
   13808:	98078793          	addi	a5,a5,-1664
   1380c:	00064583          	lbu	a1,0(a2) # 110000 <_end+0xeb048>
   13810:	c591                	beqz	a1,1381c <parse_atom+0x14a>
   13812:	0014c503          	lbu	a0,1(s1)
   13816:	0641                	addi	a2,a2,16
   13818:	04b51163          	bne	a0,a1,1385a <parse_atom+0x188>
   1381c:	0692                	slli	a3,a3,0x4
